///////////////////////////////////////////////////////////////////////////////
//
// IAR C/C++ Compiler V9.30.1.3056 for 8051               24/Oct/2016  15:11:54
// Copyright 2004-2015 IAR Systems AB.
// Standalone license - IAR Embedded Workbench for 8051
//
//    Core               =  plain
//    Code model         =  banked
//    Data model         =  large
//    Calling convention =  xdata reentrant
//    Constant location  =  data_rom
//    Dptr setup         =  1,16
//                          
//    Source file        =  
//        E:\资源(G：)\#个人项目\ZigbeeProject\Z-Stack Mesh
//        1.0.0\Projects\zstack\Samples\Demo_App_V1.7饮水机控制增加uart\Frame\ESP8266_Driver.c
//    Command line       =  
//        -f "E:\资源(G：)\#个人项目\ZigbeeProject\Z-Stack Mesh
//        1.0.0\Projects\zstack\Samples\Demo_App_V1.7饮水机控制增加uart\CC2530DB\..\..\..\Tools\CC2530DB\f8wEndev.cfg"
//        (-DCPU32MHZ -DROOT=__near_func -DMAC_CFG_TX_DATA_MAX=3
//        -DMAC_CFG_TX_MAX=6 -DMAC_CFG_RX_MAX=3) -f
//        "E:\资源(G：)\#个人项目\ZigbeeProject\Z-Stack Mesh
//        1.0.0\Projects\zstack\Samples\Demo_App_V1.7饮水机控制增加uart\CC2530DB\..\..\..\Tools\CC2530DB\f8wConfig.cfg"
//        (-DZIGBEEPRO -DSECURE=1 -DZG_SECURE_DYNAMIC=0 -DREFLECTOR
//        -DDEFAULT_CHANLIST=0x00000800 -DZDAPP_CONFIG_PAN_ID=0xFFFF
//        -DNWK_START_DELAY=100 -DEXTENDED_JOINING_RANDOM_MASK=0x007F
//        -DBEACON_REQUEST_DELAY=100 -DBEACON_REQ_DELAY_MASK=0x00FF
//        -DLINK_STATUS_JITTER_MASK=0x007F -DROUTE_EXPIRY_TIME=30
//        -DAPSC_ACK_WAIT_DURATION_POLLED=3000 -DNWK_INDIRECT_MSG_TIMEOUT=7
//        -DMAX_RREQ_ENTRIES=8 -DAPSC_MAX_FRAME_RETRIES=3
//        -DNWK_MAX_DATA_RETRIES=2 -DMAX_POLL_FAILURE_RETRIES=2 -DMAX_BCAST=9
//        -DAPS_MAX_GROUPS=16 -DMAX_RTG_ENTRIES=40 -DNWK_MAX_BINDING_ENTRIES=4
//        -DMAX_BINDING_CLUSTER_IDS=4 "-DDEFAULT_KEY={0x01, 0x03, 0x05, 0x07,
//        0x09, 0x0B, 0x0D, 0x0F, 0x00, 0x02, 0x04, 0x06, 0x08, 0x0A, 0x0C,
//        0x0D}" -DMAC_MAX_FRAME_SIZE=116 -DZDNWKMGR_MIN_TRANSMISSIONS=20
//        "-DCONST=const __code" -DGENERIC=__generic -DRFD_RCVC_ALWAYS_ON=FALSE
//        -DPOLL_RATE=50 -DQUEUED_POLL_RATE=100 -DRESPONSE_POLL_RATE=100)
//        -DREJOIN_POLL_RATE=440 "E:\资源(G：)\#个人项目\ZigbeeProject\Z-Stack
//        Mesh
//        1.0.0\Projects\zstack\Samples\Demo_App_V1.7饮水机控制增加uart\Frame\ESP8266_Driver.c"
//        -D LOG_OUT -D UART1_PROTOCOL_RESOLVER=1 -D xISQC -D NWK_AUTO_POLL -D
//        ZTOOL_P1 -D ISR_KEYINTERRUPT -D xMT_TASK -D xMT_SYS_FUNC -D
//        xMT_ZDO_FUNC -D xLCD_SUPPORTED=DEBUG -D xPOWER_SAVING -lC
//        "E:\资源(G：)\#个人项目\ZigbeeProject\Z-Stack Mesh
//        1.0.0\Projects\zstack\Samples\Demo_App_V1.7饮水机控制增加uart\CC2530DB\WaterMachine\List"
//        -lA "E:\资源(G：)\#个人项目\ZigbeeProject\Z-Stack Mesh
//        1.0.0\Projects\zstack\Samples\Demo_App_V1.7饮水机控制增加uart\CC2530DB\WaterMachine\List"
//        --diag_suppress Pe001,Pa010 -o
//        "E:\资源(G：)\#个人项目\ZigbeeProject\Z-Stack Mesh
//        1.0.0\Projects\zstack\Samples\Demo_App_V1.7饮水机控制增加uart\CC2530DB\WaterMachine\Obj"
//        -e --no_code_motion --debug --core=plain --dptr=16,1
//        --data_model=large --code_model=banked
//        --calling_convention=xdata_reentrant --place_constants=data_rom
//        --nr_virtual_regs 8 -I "E:\资源(G：)\#个人项目\ZigbeeProject\Z-Stack
//        Mesh
//        1.0.0\Projects\zstack\Samples\Demo_App_V1.7饮水机控制增加uart\CC2530DB\"
//        -I "E:\资源(G：)\#个人项目\ZigbeeProject\Z-Stack Mesh
//        1.0.0\Projects\zstack\Samples\Demo_App_V1.7饮水机控制增加uart\CC2530DB\..\Source\"
//        -I "E:\资源(G：)\#个人项目\ZigbeeProject\Z-Stack Mesh
//        1.0.0\Projects\zstack\Samples\Demo_App_V1.7饮水机控制增加uart\CC2530DB\..\Frame\"
//        -I "E:\资源(G：)\#个人项目\ZigbeeProject\Z-Stack Mesh
//        1.0.0\Projects\zstack\Samples\Demo_App_V1.7饮水机控制增加uart\CC2530DB\..\Module\WaterMachine\"
//        -I "E:\资源(G：)\#个人项目\ZigbeeProject\Z-Stack Mesh
//        1.0.0\Projects\zstack\Samples\Demo_App_V1.7饮水机控制增加uart\CC2530DB\..\..\..\ZMain\TI2530DB\"
//        -I "E:\资源(G：)\#个人项目\ZigbeeProject\Z-Stack Mesh
//        1.0.0\Projects\zstack\Samples\Demo_App_V1.7饮水机控制增加uart\CC2530DB\..\..\..\..\..\Components\hal\include\"
//        -I "E:\资源(G：)\#个人项目\ZigbeeProject\Z-Stack Mesh
//        1.0.0\Projects\zstack\Samples\Demo_App_V1.7饮水机控制增加uart\CC2530DB\..\..\..\..\..\Components\hal\target\CC2530EB\"
//        -I "E:\资源(G：)\#个人项目\ZigbeeProject\Z-Stack Mesh
//        1.0.0\Projects\zstack\Samples\Demo_App_V1.7饮水机控制增加uart\CC2530DB\..\..\..\..\..\Components\mac\include\"
//        -I "E:\资源(G：)\#个人项目\ZigbeeProject\Z-Stack Mesh
//        1.0.0\Projects\zstack\Samples\Demo_App_V1.7饮水机控制增加uart\CC2530DB\..\..\..\..\..\Components\mac\high_level\"
//        -I "E:\资源(G：)\#个人项目\ZigbeeProject\Z-Stack Mesh
//        1.0.0\Projects\zstack\Samples\Demo_App_V1.7饮水机控制增加uart\CC2530DB\..\..\..\..\..\Components\mac\low_level\srf04\"
//        -I "E:\资源(G：)\#个人项目\ZigbeeProject\Z-Stack Mesh
//        1.0.0\Projects\zstack\Samples\Demo_App_V1.7饮水机控制增加uart\CC2530DB\..\..\..\..\..\Components\mac\low_level\srf04\single_chip\"
//        -I "E:\资源(G：)\#个人项目\ZigbeeProject\Z-Stack Mesh
//        1.0.0\Projects\zstack\Samples\Demo_App_V1.7饮水机控制增加uart\CC2530DB\..\..\..\..\..\Components\mt\"
//        -I "E:\资源(G：)\#个人项目\ZigbeeProject\Z-Stack Mesh
//        1.0.0\Projects\zstack\Samples\Demo_App_V1.7饮水机控制增加uart\CC2530DB\..\..\..\..\..\Components\osal\include\"
//        -I "E:\资源(G：)\#个人项目\ZigbeeProject\Z-Stack Mesh
//        1.0.0\Projects\zstack\Samples\Demo_App_V1.7饮水机控制增加uart\CC2530DB\..\..\..\..\..\Components\services\saddr\"
//        -I "E:\资源(G：)\#个人项目\ZigbeeProject\Z-Stack Mesh
//        1.0.0\Projects\zstack\Samples\Demo_App_V1.7饮水机控制增加uart\CC2530DB\..\..\..\..\..\Components\services\sdata\"
//        -I "E:\资源(G：)\#个人项目\ZigbeeProject\Z-Stack Mesh
//        1.0.0\Projects\zstack\Samples\Demo_App_V1.7饮水机控制增加uart\CC2530DB\..\..\..\..\..\Components\stack\af\"
//        -I "E:\资源(G：)\#个人项目\ZigbeeProject\Z-Stack Mesh
//        1.0.0\Projects\zstack\Samples\Demo_App_V1.7饮水机控制增加uart\CC2530DB\..\..\..\..\..\Components\stack\nwk\"
//        -I "E:\资源(G：)\#个人项目\ZigbeeProject\Z-Stack Mesh
//        1.0.0\Projects\zstack\Samples\Demo_App_V1.7饮水机控制增加uart\CC2530DB\..\..\..\..\..\Components\stack\sapi\"
//        -I "E:\资源(G：)\#个人项目\ZigbeeProject\Z-Stack Mesh
//        1.0.0\Projects\zstack\Samples\Demo_App_V1.7饮水机控制增加uart\CC2530DB\..\..\..\..\..\Components\stack\sec\"
//        -I "E:\资源(G：)\#个人项目\ZigbeeProject\Z-Stack Mesh
//        1.0.0\Projects\zstack\Samples\Demo_App_V1.7饮水机控制增加uart\CC2530DB\..\..\..\..\..\Components\stack\sys\"
//        -I "E:\资源(G：)\#个人项目\ZigbeeProject\Z-Stack Mesh
//        1.0.0\Projects\zstack\Samples\Demo_App_V1.7饮水机控制增加uart\CC2530DB\..\..\..\..\..\Components\stack\zdo\"
//        -I "E:\资源(G：)\#个人项目\ZigbeeProject\Z-Stack Mesh
//        1.0.0\Projects\zstack\Samples\Demo_App_V1.7饮水机控制增加uart\CC2530DB\..\..\..\..\..\Components\zmac\"
//        -I "E:\资源(G：)\#个人项目\ZigbeeProject\Z-Stack Mesh
//        1.0.0\Projects\zstack\Samples\Demo_App_V1.7饮水机控制增加uart\CC2530DB\..\..\..\..\..\Components\zmac\f8w\"
//        -Ohz
//    List file          =  
//        E:\资源(G：)\#个人项目\ZigbeeProject\Z-Stack Mesh
//        1.0.0\Projects\zstack\Samples\Demo_App_V1.7饮水机控制增加uart\CC2530DB\WaterMachine\List\ESP8266_Driver.s51
//
///////////////////////////////////////////////////////////////////////////////

        NAME ESP8266_Driver

        RTMODEL "__SystemLibrary", "CLib"
        RTMODEL "__calling_convention", "xdata_reentrant"
        RTMODEL "__code_model", "banked"
        RTMODEL "__core", "plain"
        RTMODEL "__data_model", "large"
        RTMODEL "__dptr_size", "16"
        RTMODEL "__extended_stack", "disabled"
        RTMODEL "__iar_require _formatted_write", "unknown"
        RTMODEL "__location_for_constants", "data"
        RTMODEL "__number_of_dptrs", "1"
        RTMODEL "__rt_version", "1"

        RSEG DOVERLAY:DATA:NOROOT(0)
        RSEG IOVERLAY:IDATA:NOROOT(0)
        RSEG ISTACK:IDATA:NOROOT(0)
        RSEG PSTACK:XDATA:NOROOT(0)
        RSEG XSTACK:XDATA:NOROOT(0)

        EXTERN ?V0
        EXTERN ?V1
        EXTERN ?V2
        EXTERN ?V3
        EXTERN ?V4
        EXTERN ?V5
        EXTERN ?ALLOC_XSTACK8
        EXTERN ?BANKED_ENTER_XDATA
        EXTERN ?BANKED_LEAVE_XDATA
        EXTERN ?BDISPATCH
        EXTERN ?BRET
        EXTERN ?CALL_IND
        EXTERN ?DEALLOC_XSTACK8
        EXTERN ?MOVE_LONG8_XDATA_XDATA
        EXTERN ?PUSH_XSTACK_I_TWO
        EXTERN ?XSP
        EXTERN ?XSTACK_DISP0_8
        EXTERN ?XSTACK_DISP100_8
        EXTERN ?XSTACK_DISP101_8
        EXTERN ?XSTACK_DISP102_8
        EXTERN __INIT_XDATA_I
        EXTERN __INIT_XDATA_Z

        PUBLIC `??ESP8266_CMD_Send::?relay`
        FUNCTION `??ESP8266_CMD_Send::?relay`,0203H
        PUBLIC `??ESP8266_Init::?relay`
        FUNCTION `??ESP8266_Init::?relay`,0203H
        PUBLIC `??ESP8266_Poll::?relay`
        FUNCTION `??ESP8266_Poll::?relay`,0203H
        PUBLIC `??ESP8266_Run::?relay`
        FUNCTION `??ESP8266_Run::?relay`,0203H
        PUBLIC `??SetSsidPwd::?relay`
        FUNCTION `??SetSsidPwd::?relay`,0203H
        PUBLIC ESP8266_CMD
        PUBLIC ESP8266_CMD_Queue
        PUBLIC ESP8266_CMD_Send
        FUNCTION ESP8266_CMD_Send,0a1203H
        ARGFRAME XSTACK, 94, STACK
        ARGFRAME IOVERLAY, 0, STATIC
        ARGFRAME DOVERLAY, 0, STATIC
        LOCFRAME XSTACK, 10, STACK
        PUBLIC ESP8266_Init
        FUNCTION ESP8266_Init,021203H
        ARGFRAME XSTACK, 0, STACK
        LOCFRAME ISTACK, 2, STACK
        PUBLIC ESP8266_Poll
        FUNCTION ESP8266_Poll,0a1203H
        ARGFRAME XSTACK, 0, STACK
        LOCFRAME XSTACK, 10, STACK
        PUBLIC ESP8266_Run
        FUNCTION ESP8266_Run,021203H
        ARGFRAME XSTACK, 0, STACK
        LOCFRAME ISTACK, 1, STACK
        LOCFRAME XSTACK, 50, STACK
        PUBLIC ESP8266_State
        PUBLIC ESP_8266_CMD
        PUBLIC ESP_Change
        PUBLIC SetSsidPwd
        FUNCTION SetSsidPwd,0a1203H
        ARGFRAME XSTACK, 0, STACK
        LOCFRAME XSTACK, 98, STACK
        
          CFI Names cfiNames0
          CFI StackFrame CFA_SP SP IDATA
          CFI StackFrame CFA_PSP16 PSP16 XDATA
          CFI StackFrame CFA_XSP16 XSP16 XDATA
          CFI StaticOverlayFrame CFA_IOVERLAY IOVERLAY
          CFI StaticOverlayFrame CFA_DOVERLAY DOVERLAY
          CFI Resource `PSW.CY`:1, `B.BR0`:1, `B.BR1`:1, `B.BR2`:1, `B.BR3`:1
          CFI Resource `B.BR4`:1, `B.BR5`:1, `B.BR6`:1, `B.BR7`:1, `VB.BR8`:1
          CFI Resource `VB.BR9`:1, `VB.BR10`:1, `VB.BR11`:1, `VB.BR12`:1
          CFI Resource `VB.BR13`:1, `VB.BR14`:1, `VB.BR15`:1, VB:8, B:8, A:8
          CFI Resource PSW:8, DPL0:8, DPH0:8, R0:8, R1:8, R2:8, R3:8, R4:8, R5:8
          CFI Resource R6:8, R7:8, V0:8, V1:8, V2:8, V3:8, V4:8, V5:8, V6:8, V7:8
          CFI Resource SP:8, PSPH:8, PSPL:8, PSP16:16, XSPH:8, XSPL:8, XSP16:16
          CFI VirtualResource ?RET:24
          CFI Resource ?BRET_EXT:8
          CFI VirtualResource ?RET_HIGH:8, ?RET_LOW:8
          CFI ResourceParts PSP16 PSPH, PSPL
          CFI ResourceParts XSP16 XSPH, XSPL
          CFI ResourceParts ?RET ?BRET_EXT, ?RET_HIGH, ?RET_LOW
          CFI EndNames cfiNames0
        
          CFI Common cfiCommon0 Using cfiNames0
          CFI CodeAlign 1
          CFI DataAlign -1
          CFI ReturnAddress ?RET CODE
          CFI CFA_DOVERLAY Used
          CFI CFA_IOVERLAY Used
          CFI CFA_SP SP+-3
          CFI CFA_PSP16 PSP16+0
          CFI CFA_XSP16 XSP16+0
          CFI `PSW.CY` SameValue
          CFI `B.BR0` SameValue
          CFI `B.BR1` SameValue
          CFI `B.BR2` SameValue
          CFI `B.BR3` SameValue
          CFI `B.BR4` SameValue
          CFI `B.BR5` SameValue
          CFI `B.BR6` SameValue
          CFI `B.BR7` SameValue
          CFI `VB.BR8` SameValue
          CFI `VB.BR9` SameValue
          CFI `VB.BR10` SameValue
          CFI `VB.BR11` SameValue
          CFI `VB.BR12` SameValue
          CFI `VB.BR13` SameValue
          CFI `VB.BR14` SameValue
          CFI `VB.BR15` SameValue
          CFI VB SameValue
          CFI B Undefined
          CFI A Undefined
          CFI PSW SameValue
          CFI DPL0 SameValue
          CFI DPH0 SameValue
          CFI R0 Undefined
          CFI R1 Undefined
          CFI R2 Undefined
          CFI R3 Undefined
          CFI R4 Undefined
          CFI R5 Undefined
          CFI R6 SameValue
          CFI R7 SameValue
          CFI V0 SameValue
          CFI V1 SameValue
          CFI V2 SameValue
          CFI V3 SameValue
          CFI V4 SameValue
          CFI V5 SameValue
          CFI V6 SameValue
          CFI V7 SameValue
          CFI PSPH Undefined
          CFI PSPL Undefined
          CFI XSPH Undefined
          CFI XSPL Undefined
          CFI ?RET Concat
          CFI ?BRET_EXT Frame(CFA_SP, 3)
          CFI ?RET_HIGH Frame(CFA_SP, 2)
          CFI ?RET_LOW Frame(CFA_SP, 1)
          CFI EndCommon cfiCommon0
        
        
          CFI Common cfiCommon1 Using cfiNames0
          CFI CodeAlign 1
          CFI DataAlign -1
          CFI ReturnAddress ?RET CODE
          CFI CFA_DOVERLAY Used
          CFI CFA_IOVERLAY Used
          CFI CFA_SP SP+-2
          CFI CFA_PSP16 PSP16+0
          CFI CFA_XSP16 XSP16+0
          CFI `PSW.CY` SameValue
          CFI `B.BR0` SameValue
          CFI `B.BR1` SameValue
          CFI `B.BR2` SameValue
          CFI `B.BR3` SameValue
          CFI `B.BR4` SameValue
          CFI `B.BR5` SameValue
          CFI `B.BR6` SameValue
          CFI `B.BR7` SameValue
          CFI `VB.BR8` SameValue
          CFI `VB.BR9` SameValue
          CFI `VB.BR10` SameValue
          CFI `VB.BR11` SameValue
          CFI `VB.BR12` SameValue
          CFI `VB.BR13` SameValue
          CFI `VB.BR14` SameValue
          CFI `VB.BR15` SameValue
          CFI VB SameValue
          CFI B SameValue
          CFI A SameValue
          CFI PSW SameValue
          CFI DPL0 SameValue
          CFI DPH0 SameValue
          CFI R0 SameValue
          CFI R1 SameValue
          CFI R2 SameValue
          CFI R3 SameValue
          CFI R4 SameValue
          CFI R5 SameValue
          CFI R6 SameValue
          CFI R7 SameValue
          CFI V0 SameValue
          CFI V1 SameValue
          CFI V2 SameValue
          CFI V3 SameValue
          CFI V4 SameValue
          CFI V5 SameValue
          CFI V6 SameValue
          CFI V7 SameValue
          CFI PSPH Undefined
          CFI PSPL Undefined
          CFI XSPH Undefined
          CFI XSPL Undefined
          CFI ?RET Concat
          CFI ?BRET_EXT SameValue
          CFI ?RET_HIGH Frame(CFA_SP, 2)
          CFI ?RET_LOW Frame(CFA_SP, 1)
          CFI EndCommon cfiCommon1
        
HalUARTWrite        SYMBOL "HalUARTWrite"
`??HalUARTWrite::?relay` SYMBOL "?relay", HalUARTWrite
Queue_Get           SYMBOL "Queue_Get"
`??Queue_Get::?relay` SYMBOL "?relay", Queue_Get
Queue_Init          SYMBOL "Queue_Init"
`??Queue_Init::?relay` SYMBOL "?relay", Queue_Init
Queue_Put           SYMBOL "Queue_Put"
`??Queue_Put::?relay` SYMBOL "?relay", Queue_Put
memcpy              SYMBOL "memcpy"
`??memcpy::?relay`  SYMBOL "?relay", memcpy
sprintf             SYMBOL "sprintf"
`??sprintf::?relay` SYMBOL "?relay", sprintf
strlen              SYMBOL "strlen"
`??strlen::?relay`  SYMBOL "?relay", strlen
strstr              SYMBOL "strstr"
`??strstr::?relay`  SYMBOL "?relay", strstr
ESP8266_CMD_Send    SYMBOL "ESP8266_CMD_Send"
`??ESP8266_CMD_Send::?relay` SYMBOL "?relay", ESP8266_CMD_Send
ESP8266_Init        SYMBOL "ESP8266_Init"
`??ESP8266_Init::?relay` SYMBOL "?relay", ESP8266_Init
ESP8266_Poll        SYMBOL "ESP8266_Poll"
`??ESP8266_Poll::?relay` SYMBOL "?relay", ESP8266_Poll
ESP8266_Run         SYMBOL "ESP8266_Run"
`??ESP8266_Run::?relay` SYMBOL "?relay", ESP8266_Run
SetSsidPwd          SYMBOL "SetSsidPwd"
`??SetSsidPwd::?relay` SYMBOL "?relay", SetSsidPwd

        EXTERN `??HalUARTWrite::?relay`
        FUNCTION `??HalUARTWrite::?relay`,00H
        EXTERN `??Queue_Get::?relay`
        FUNCTION `??Queue_Get::?relay`,00H
        EXTERN `??Queue_Init::?relay`
        FUNCTION `??Queue_Init::?relay`,00H
        EXTERN `??Queue_Put::?relay`
        FUNCTION `??Queue_Put::?relay`,00H
        EXTERN `??memcpy::?relay`
        FUNCTION `??memcpy::?relay`,00H
        EXTERN `??sprintf::?relay`
        FUNCTION `??sprintf::?relay`,00H
        EXTERN `??strlen::?relay`
        FUNCTION `??strlen::?relay`,00H
        EXTERN `??strstr::?relay`
        FUNCTION `??strstr::?relay`,00H
        EXTERN HalUARTWrite
        FUNCTION HalUARTWrite,0202H
        ARGFRAME ISTACK, 0, STACK
        ARGFRAME PSTACK, 0, STACK
        ARGFRAME XSTACK, 50, STACK
        ARGFRAME IOVERLAY, 0, STATIC
        ARGFRAME DOVERLAY, 0, STATIC
        EXTERN Log
        EXTERN Queue_Get
        FUNCTION Queue_Get,0202H
        ARGFRAME ISTACK, 0, STACK
        ARGFRAME PSTACK, 0, STACK
        ARGFRAME XSTACK, 50, STACK
        ARGFRAME IOVERLAY, 0, STATIC
        ARGFRAME DOVERLAY, 0, STATIC
        EXTERN Queue_Init
        FUNCTION Queue_Init,0202H
        ARGFRAME ISTACK, 2, STACK
        ARGFRAME PSTACK, 0, STACK
        ARGFRAME XSTACK, 0, STACK
        ARGFRAME IOVERLAY, 0, STATIC
        ARGFRAME DOVERLAY, 0, STATIC
        EXTERN Queue_Put
        FUNCTION Queue_Put,0202H
        ARGFRAME ISTACK, 0, STACK
        ARGFRAME PSTACK, 0, STACK
        ARGFRAME XSTACK, 10, STACK
        ARGFRAME IOVERLAY, 0, STATIC
        ARGFRAME DOVERLAY, 0, STATIC
        EXTERN memcpy
        FUNCTION memcpy,010202H
        ARGFRAME ISTACK, 0, STACK
        ARGFRAME PSTACK, 0, STACK
        ARGFRAME XSTACK, 96, STACK
        ARGFRAME IOVERLAY, 0, STATIC
        ARGFRAME DOVERLAY, 0, STATIC
        EXTERN sprintf
        FUNCTION sprintf,0202H
        ARGFRAME ISTACK, 0, STACK
        ARGFRAME PSTACK, 0, STACK
        ARGFRAME XSTACK, 98, STACK
        ARGFRAME IOVERLAY, 0, STATIC
        ARGFRAME DOVERLAY, 0, STATIC
        EXTERN strlen
        FUNCTION strlen,010202H
        ARGFRAME ISTACK, 0, STACK
        ARGFRAME PSTACK, 0, STACK
        ARGFRAME XSTACK, 94, STACK
        ARGFRAME IOVERLAY, 0, STATIC
        ARGFRAME DOVERLAY, 0, STATIC
        EXTERN strstr
        FUNCTION strstr,010202H
        ARGFRAME ISTACK, 0, STACK
        ARGFRAME PSTACK, 0, STACK
        ARGFRAME XSTACK, 10, STACK
        ARGFRAME IOVERLAY, 0, STATIC
        ARGFRAME DOVERLAY, 0, STATIC

// E:\资源(G：)\#个人项目\ZigbeeProject\Z-Stack Mesh 1.0.0\Projects\zstack\Samples\Demo_App_V1.7饮水机控制增加uart\Frame\ESP8266_Driver.c
//    1 #include "ESP8266_Driver.h"
//    2 #include "hal_uart.h"
//    3 

        RSEG XDATA_I:XDATA:NOROOT(0)
//    4 ESP8266_CMD_T ESP_8266_CMD = {
ESP_8266_CMD:
        DATA8
        DS 10
        REQUIRE `?<Initializer for ESP_8266_CMD>`
        REQUIRE __INIT_XDATA_I
//    5     "AT+CWMODE=%d\r\n",
//    6     "AT+CWJAP=\"%s\",\"%s\"\r\n",
//    7     "AT+CIPMUX=1\r\n",
//    8     "AT+CIPSERVER=1,8080\r\n",
//    9     "AT+SEND=%d,%d\r\n"
//   10 };
//   11 
//   12 

        RSEG XDATA_Z:XDATA:NOROOT(0)
        DATA16
//   13 QUEUE_T* ESP8266_CMD_Queue;
ESP8266_CMD_Queue:
        DS 2
        REQUIRE __INIT_XDATA_Z
//   14 

        RSEG XDATA_I:XDATA:NOROOT(0)
//   15 ESP8266_STATE ESP8266_State = ESP8266_BUSY; 
ESP8266_State:
        DATA8
        DS 1
        REQUIRE `?<Initializer for ESP8266_State>`
        REQUIRE __INIT_XDATA_I

        RSEG XDATA_Z:XDATA:NOROOT(0)
        DATA8
//   16 uint8_t ESP8266_CMD[ESP8266_CMD_LEN] = {0}; 
ESP8266_CMD:
        DS 100
        REQUIRE __INIT_XDATA_Z

        RSEG XDATA_Z:XDATA:NOROOT(0)
        DATA8
//   17 uint8_t ESP_Change = 0;
ESP_Change:
        DS 1
        REQUIRE __INIT_XDATA_Z
//   18 
//   19 
//   20 
//   21 
//   22 

        RSEG BANKED_CODE:CODE:NOROOT(0)
//   23 void ESP8266_Init(void){
ESP8266_Init:
          CFI Block cfiBlock0 Using cfiCommon0
          CFI Function ESP8266_Init
        CODE
        FUNCALL ESP8266_Init, Queue_Init
        LOCFRAME ISTACK, 2, STACK
        LOCFRAME PSTACK, 0, STACK
        LOCFRAME XSTACK, 0, STACK
        LOCFRAME IOVERLAY, 0, STATIC
        LOCFRAME DOVERLAY, 0, STATIC
        ARGFRAME ISTACK, 2, STACK
        ARGFRAME PSTACK, 0, STACK
        ARGFRAME XSTACK, 0, STACK
        ARGFRAME IOVERLAY, 0, STATIC
        ARGFRAME DOVERLAY, 0, STATIC
        FUNCALL ESP8266_Init, ESP8266_CMD_Send
        LOCFRAME ISTACK, 2, STACK
        LOCFRAME PSTACK, 0, STACK
        LOCFRAME XSTACK, 0, STACK
        LOCFRAME IOVERLAY, 0, STATIC
        LOCFRAME DOVERLAY, 0, STATIC
        ARGFRAME ISTACK, 2, STACK
        ARGFRAME PSTACK, 0, STACK
        ARGFRAME XSTACK, 0, STACK
        ARGFRAME IOVERLAY, 0, STATIC
        ARGFRAME DOVERLAY, 0, STATIC
        FUNCALL ESP8266_Init, ESP8266_CMD_Send
        LOCFRAME ISTACK, 2, STACK
        LOCFRAME PSTACK, 0, STACK
        LOCFRAME XSTACK, 0, STACK
        LOCFRAME IOVERLAY, 0, STATIC
        LOCFRAME DOVERLAY, 0, STATIC
        ARGFRAME ISTACK, 2, STACK
        ARGFRAME PSTACK, 0, STACK
        ARGFRAME XSTACK, 0, STACK
        ARGFRAME IOVERLAY, 0, STATIC
        ARGFRAME DOVERLAY, 0, STATIC
        PUSH    DPL
          CFI DPL0 Frame(CFA_SP, 4)
          CFI CFA_SP SP+-4
        PUSH    DPH
          CFI DPH0 Frame(CFA_SP, 5)
          CFI CFA_SP SP+-5
        ; Saved register size: 2
        ; Auto size: 0
//   24     ESP8266_CMD_Queue = Queue_Init(ESP8266_CMD , sizeof(uint8_t), ESP8266_CMD_LEN); 
        ; Setup parameters for call to function Queue_Init
        MOV     R4,#0x64
        MOV     R5,#0x0
        MOV     R1,#0x1
        MOV     R2,#ESP8266_CMD & 0xff
        MOV     R3,#(ESP8266_CMD >> 8) & 0xff
        LCALL   `??Queue_Init::?relay`; Banked call to: Queue_Init
        MOV     DPTR,#ESP8266_CMD_Queue
        MOV     A,R2
        MOVX    @DPTR,A
        INC     DPTR
        MOV     A,R3
        MOVX    @DPTR,A
//   25     ESP8266_CMD_Send(ESP_8266_CMD.MultiConn);
        ; Setup parameters for call to function ESP8266_CMD_Send
        LCALL   ?Subroutine1 & 0xFFFF
??CrossCallReturnLabel_8:
        LCALL   `??ESP8266_CMD_Send::?relay`; Banked call to: ESP8266_CMD_Send
//   26     ESP8266_CMD_Send(ESP_8266_CMD.ServerMode);
        ; Setup parameters for call to function ESP8266_CMD_Send
        MOV     DPTR,#ESP_8266_CMD + 6
        LCALL   ??Subroutine4_0 & 0xFFFF
??CrossCallReturnLabel_3:
        LCALL   `??ESP8266_CMD_Send::?relay`; Banked call to: ESP8266_CMD_Send
//   27     
//   28 }
        POP     DPH
          CFI DPH0 SameValue
          CFI CFA_SP SP+-4
        POP     DPL
          CFI DPL0 SameValue
          CFI CFA_SP SP+-3
        LJMP    ?BRET
          CFI EndBlock cfiBlock0
//   29 

        RSEG BANKED_CODE:CODE:NOROOT(0)
//   30 void ESP8266_Poll(uint8_t* data, uint8_t len){
ESP8266_Poll:
          CFI Block cfiBlock1 Using cfiCommon0
          CFI Function ESP8266_Poll
        CODE
        FUNCALL ESP8266_Poll, strstr
        LOCFRAME ISTACK, 0, STACK
        LOCFRAME PSTACK, 0, STACK
        LOCFRAME XSTACK, 10, STACK
        LOCFRAME IOVERLAY, 0, STATIC
        LOCFRAME DOVERLAY, 0, STATIC
        ARGFRAME ISTACK, 0, STACK
        ARGFRAME PSTACK, 0, STACK
        ARGFRAME XSTACK, 10, STACK
        ARGFRAME IOVERLAY, 0, STATIC
        ARGFRAME DOVERLAY, 0, STATIC
        FUNCALL ESP8266_Poll, strstr
        LOCFRAME ISTACK, 0, STACK
        LOCFRAME PSTACK, 0, STACK
        LOCFRAME XSTACK, 10, STACK
        LOCFRAME IOVERLAY, 0, STATIC
        LOCFRAME DOVERLAY, 0, STATIC
        ARGFRAME ISTACK, 0, STACK
        ARGFRAME PSTACK, 0, STACK
        ARGFRAME XSTACK, 10, STACK
        ARGFRAME IOVERLAY, 0, STATIC
        ARGFRAME DOVERLAY, 0, STATIC
        FUNCALL ESP8266_Poll, ESP8266_CMD_Send
        LOCFRAME ISTACK, 0, STACK
        LOCFRAME PSTACK, 0, STACK
        LOCFRAME XSTACK, 10, STACK
        LOCFRAME IOVERLAY, 0, STATIC
        LOCFRAME DOVERLAY, 0, STATIC
        ARGFRAME ISTACK, 0, STACK
        ARGFRAME PSTACK, 0, STACK
        ARGFRAME XSTACK, 10, STACK
        ARGFRAME IOVERLAY, 0, STATIC
        ARGFRAME DOVERLAY, 0, STATIC
        FUNCALL ESP8266_Poll, ESP8266_CMD_Send
        LOCFRAME ISTACK, 0, STACK
        LOCFRAME PSTACK, 0, STACK
        LOCFRAME XSTACK, 10, STACK
        LOCFRAME IOVERLAY, 0, STATIC
        LOCFRAME DOVERLAY, 0, STATIC
        ARGFRAME ISTACK, 0, STACK
        ARGFRAME PSTACK, 0, STACK
        ARGFRAME XSTACK, 10, STACK
        ARGFRAME IOVERLAY, 0, STATIC
        ARGFRAME DOVERLAY, 0, STATIC
        FUNCALL ESP8266_Poll, strstr
        LOCFRAME ISTACK, 0, STACK
        LOCFRAME PSTACK, 0, STACK
        LOCFRAME XSTACK, 10, STACK
        LOCFRAME IOVERLAY, 0, STATIC
        LOCFRAME DOVERLAY, 0, STATIC
        ARGFRAME ISTACK, 0, STACK
        ARGFRAME PSTACK, 0, STACK
        ARGFRAME XSTACK, 10, STACK
        ARGFRAME IOVERLAY, 0, STATIC
        ARGFRAME DOVERLAY, 0, STATIC
        FUNCALL ESP8266_Poll, strstr
        LOCFRAME ISTACK, 0, STACK
        LOCFRAME PSTACK, 0, STACK
        LOCFRAME XSTACK, 10, STACK
        LOCFRAME IOVERLAY, 0, STATIC
        LOCFRAME DOVERLAY, 0, STATIC
        ARGFRAME ISTACK, 0, STACK
        ARGFRAME PSTACK, 0, STACK
        ARGFRAME XSTACK, 10, STACK
        ARGFRAME IOVERLAY, 0, STATIC
        ARGFRAME DOVERLAY, 0, STATIC
        FUNCALL ESP8266_Poll, strstr
        LOCFRAME ISTACK, 0, STACK
        LOCFRAME PSTACK, 0, STACK
        LOCFRAME XSTACK, 10, STACK
        LOCFRAME IOVERLAY, 0, STATIC
        LOCFRAME DOVERLAY, 0, STATIC
        ARGFRAME ISTACK, 0, STACK
        ARGFRAME PSTACK, 0, STACK
        ARGFRAME XSTACK, 10, STACK
        ARGFRAME IOVERLAY, 0, STATIC
        ARGFRAME DOVERLAY, 0, STATIC
        REQUIRE ?V0
        REQUIRE ?V1
        MOV     A,#-0xa
        LCALL   ?BANKED_ENTER_XDATA
          CFI DPH0 load(1, XDATA, add(CFA_XSP16, literal(-1)))
          CFI DPL0 load(1, XDATA, add(CFA_XSP16, literal(-2)))
          CFI ?BRET_EXT load(1, XDATA, add(CFA_XSP16, literal(-3)))
          CFI ?RET_HIGH load(1, XDATA, add(CFA_XSP16, literal(-4)))
          CFI ?RET_LOW load(1, XDATA, add(CFA_XSP16, literal(-5)))
          CFI R7 load(1, XDATA, add(CFA_XSP16, literal(-6)))
          CFI V1 load(1, XDATA, add(CFA_XSP16, literal(-7)))
          CFI V0 load(1, XDATA, add(CFA_XSP16, literal(-8)))
          CFI VB load(1, XDATA, add(CFA_XSP16, literal(-9)))
          CFI R6 load(1, XDATA, add(CFA_XSP16, literal(-10)))
          CFI CFA_SP SP+0
          CFI CFA_XSP16 add(XSP16, 10)
        ; Saved register size: 10
        ; Auto size: 0
        MOV     A,R2
        MOV     R6,A
        MOV     A,R3
        MOV     R7,A
//   31   if(strstr((char const*)data,"ready") != NULL){
        ; Setup parameters for call to function strstr
        MOV     R4,#`?<Constant "ready">` & 0xff
        MOV     R5,#(`?<Constant "ready">` >> 8) & 0xff
        LCALL   `??strstr::?relay`   ; Banked call to: strstr
        MOV     ?V1,R3
        MOV     A,R2
        ORL     A,?V1
        JZ      ??ESP8266_Poll_0
//   32     ESP8266_State = ESP8266_READY; 
        MOV     DPTR,#ESP8266_State
        MOV     A,#0x2
        MOVX    @DPTR,A
//   33     Log.waring("路由器启动完成\r\n");  
        ; Setup parameters for indirect call
        MOV     R2,#`?<Constant "\\302\\267\\323\\311\\306\\367\\306\\364\\2` & 0xff
        MOV     R3,#(`?<Constant "\\302\\267\\323\\311\\306\\367\\306\\364\\2` >> 8) & 0xff
        SJMP    ??ESP8266_Poll_1
//   34   }else if(strstr((char const*)data,"WIFI GOT IP") != NULL){
??ESP8266_Poll_0:
        ; Setup parameters for call to function strstr
        MOV     R4,#`?<Constant "WIFI GOT IP">` & 0xff
        MOV     R5,#(`?<Constant "WIFI GOT IP">` >> 8) & 0xff
        MOV     A,R6
        MOV     R2,A
        MOV     A,R7
        MOV     R3,A
        LCALL   `??strstr::?relay`   ; Banked call to: strstr
        MOV     ?V1,R3
        MOV     A,R2
        ORL     A,?V1
        JZ      ??ESP8266_Poll_2
//   35     ESP8266_State = ESP8266_CONNECTED;
        MOV     DPTR,#ESP8266_State
        MOV     A,#0x4
        MOVX    @DPTR,A
//   36     Log.waring("路由器连接成功\r\n"); 
        ; Setup parameters for indirect call
        MOV     R2,#`?<Constant "\\302\\267\\323\\311\\306\\367\\301\\254\\2` & 0xff
        MOV     R3,#(`?<Constant "\\302\\267\\323\\311\\306\\367\\301\\254\\2` >> 8) & 0xff
        LCALL   ?Subroutine2 & 0xFFFF
??CrossCallReturnLabel_1:
        LCALL   ?CALL_IND
//   37     ESP8266_CMD_Send(ESP_8266_CMD.MultiConn);
        ; Setup parameters for call to function ESP8266_CMD_Send
        LCALL   ?Subroutine1 & 0xFFFF
??CrossCallReturnLabel_9:
        LCALL   `??ESP8266_CMD_Send::?relay`; Banked call to: ESP8266_CMD_Send
//   38     ESP8266_CMD_Send(ESP_8266_CMD.ServerMode);
        ; Setup parameters for call to function ESP8266_CMD_Send
        MOV     DPTR,#ESP_8266_CMD + 6
        LCALL   ??Subroutine4_0 & 0xFFFF
//   39   }else if(strstr((char const*)data,"WIFI DISCONNECT") != NULL){
??CrossCallReturnLabel_4:
        LCALL   `??ESP8266_CMD_Send::?relay`; Banked call to: ESP8266_CMD_Send
        SJMP    ??ESP8266_Poll_3
??ESP8266_Poll_2:
        ; Setup parameters for call to function strstr
        MOV     R4,#`?<Constant "WIFI DISCONNECT">` & 0xff
        MOV     R5,#(`?<Constant "WIFI DISCONNECT">` >> 8) & 0xff
        MOV     A,R6
        MOV     R2,A
        MOV     A,R7
        MOV     R3,A
        LCALL   `??strstr::?relay`   ; Banked call to: strstr
        MOV     ?V1,R3
        MOV     A,R2
        ORL     A,?V1
        JZ      ??ESP8266_Poll_4
//   40     ESP8266_State = ESP8266_CONNFAIL;
        MOV     DPTR,#ESP8266_State
        MOV     A,#0x5
        MOVX    @DPTR,A
//   41     Log.waring("路由器连接失败\r\n");
        ; Setup parameters for indirect call
        MOV     R2,#`?<Constant "\\302\\267\\323\\311\\306\\367\\301\\254\\2_1` & 0xff
        MOV     R3,#(`?<Constant "\\302\\267\\323\\311\\306\\367\\301\\254\\2_1` >> 8) & 0xff
//   42   }else if(strstr((char const*)data,"OK") != NULL){
??ESP8266_Poll_1:
        LCALL   ?Subroutine2 & 0xFFFF
??CrossCallReturnLabel_2:
        LCALL   ?CALL_IND
        SJMP    ??ESP8266_Poll_3
??ESP8266_Poll_4:
        ; Setup parameters for call to function strstr
        MOV     R4,#`?<Constant "OK">` & 0xff
        MOV     R5,#(`?<Constant "OK">` >> 8) & 0xff
        MOV     A,R6
        MOV     R2,A
        MOV     A,R7
        MOV     R3,A
        LCALL   `??strstr::?relay`   ; Banked call to: strstr
        MOV     ?V1,R3
        MOV     A,R2
        ORL     A,?V1
        JZ      ??ESP8266_Poll_5
//   43     ESP8266_State = ESP8266_READY;
        MOV     DPTR,#ESP8266_State
        MOV     A,#0x2
        MOVX    @DPTR,A
        SJMP    ??ESP8266_Poll_3
//   44   }else if(strstr((char const*)data,"ERROR") != NULL){
??ESP8266_Poll_5:
        ; Setup parameters for call to function strstr
        MOV     R4,#`?<Constant "ERROR">` & 0xff
        MOV     R5,#(`?<Constant "ERROR">` >> 8) & 0xff
        MOV     A,R6
        MOV     R2,A
        MOV     A,R7
        MOV     R3,A
        LCALL   `??strstr::?relay`   ; Banked call to: strstr
//   45     //ESP8266_State = ESP8266_ERROR; 
//   46     //Log.waring("WIFI模块ERROR\r\n"); 
//   47   }   
//   48 }
??ESP8266_Poll_3:
          CFI EndBlock cfiBlock1
        REQUIRE ?Subroutine0
        ; // Fall through to label ?Subroutine0

        RSEG BANKED_CODE:CODE:NOROOT(0)
?Subroutine0:
          CFI Block cfiBlock2 Using cfiCommon0
          CFI NoFunction
          CFI CFA_SP SP+0
          CFI CFA_XSP16 add(XSP16, 10)
          CFI VB load(1, XDATA, add(CFA_XSP16, literal(-9)))
          CFI DPL0 load(1, XDATA, add(CFA_XSP16, literal(-2)))
          CFI DPH0 load(1, XDATA, add(CFA_XSP16, literal(-1)))
          CFI R6 load(1, XDATA, add(CFA_XSP16, literal(-10)))
          CFI R7 load(1, XDATA, add(CFA_XSP16, literal(-6)))
          CFI V0 load(1, XDATA, add(CFA_XSP16, literal(-8)))
          CFI V1 load(1, XDATA, add(CFA_XSP16, literal(-7)))
          CFI ?BRET_EXT load(1, XDATA, add(CFA_XSP16, literal(-3)))
          CFI ?RET_HIGH load(1, XDATA, add(CFA_XSP16, literal(-4)))
          CFI ?RET_LOW load(1, XDATA, add(CFA_XSP16, literal(-5)))
        MOV     R7,#0x2
        LJMP    ?BANKED_LEAVE_XDATA
          CFI EndBlock cfiBlock2

        RSEG BANKED_CODE:CODE:NOROOT(0)
?Subroutine2:
          CFI Block cfiCond3 Using cfiCommon0
          CFI Function ESP8266_Poll
          CFI Conditional ??CrossCallReturnLabel_1
          CFI R6 load(1, XDATA, add(CFA_XSP16, literal(-10)))
          CFI VB load(1, XDATA, add(CFA_XSP16, literal(-9)))
          CFI V0 load(1, XDATA, add(CFA_XSP16, literal(-8)))
          CFI V1 load(1, XDATA, add(CFA_XSP16, literal(-7)))
          CFI R7 load(1, XDATA, add(CFA_XSP16, literal(-6)))
          CFI ?RET_LOW load(1, XDATA, add(CFA_XSP16, literal(-5)))
          CFI ?RET_HIGH load(1, XDATA, add(CFA_XSP16, literal(-4)))
          CFI ?BRET_EXT load(1, XDATA, add(CFA_XSP16, literal(-3)))
          CFI DPL0 load(1, XDATA, add(CFA_XSP16, literal(-2)))
          CFI DPH0 load(1, XDATA, add(CFA_XSP16, literal(-1)))
          CFI CFA_SP SP+-2
          CFI CFA_XSP16 add(XSP16, 10)
          CFI Block cfiCond4 Using cfiCommon0
          CFI (cfiCond4) Function ESP8266_Poll
          CFI (cfiCond4) Conditional ??CrossCallReturnLabel_2
          CFI (cfiCond4) R6 load(1, XDATA, add(CFA_XSP16, literal(-10)))
          CFI (cfiCond4) VB load(1, XDATA, add(CFA_XSP16, literal(-9)))
          CFI (cfiCond4) V0 load(1, XDATA, add(CFA_XSP16, literal(-8)))
          CFI (cfiCond4) V1 load(1, XDATA, add(CFA_XSP16, literal(-7)))
          CFI (cfiCond4) R7 load(1, XDATA, add(CFA_XSP16, literal(-6)))
          CFI (cfiCond4) ?RET_LOW load(1, XDATA, add(CFA_XSP16, literal(-5)))
          CFI (cfiCond4) ?RET_HIGH load(1, XDATA, add(CFA_XSP16, literal(-4)))
          CFI (cfiCond4) ?BRET_EXT load(1, XDATA, add(CFA_XSP16, literal(-3)))
          CFI (cfiCond4) DPL0 load(1, XDATA, add(CFA_XSP16, literal(-2)))
          CFI (cfiCond4) DPH0 load(1, XDATA, add(CFA_XSP16, literal(-1)))
          CFI (cfiCond4) CFA_SP SP+-2
          CFI (cfiCond4) CFA_XSP16 add(XSP16, 10)
          CFI Block cfiPicker5 Using cfiCommon1
          CFI (cfiPicker5) NoFunction
          CFI (cfiPicker5) Picker
        MOV     DPTR,#Log
          CFI EndBlock cfiCond3
          CFI EndBlock cfiCond4
          CFI EndBlock cfiPicker5
        REQUIRE ??Subroutine3_0
        ; // Fall through to label ??Subroutine3_0

        RSEG BANKED_CODE:CODE:NOROOT(0)
??Subroutine3_0:
          CFI Block cfiCond6 Using cfiCommon0
          CFI Function ESP8266_Run
          CFI Conditional ??CrossCallReturnLabel_0
          CFI R6 load(1, XDATA, add(CFA_XSP16, literal(-9)))
          CFI VB load(1, XDATA, add(CFA_XSP16, literal(-8)))
          CFI V0 load(1, XDATA, add(CFA_XSP16, literal(-7)))
          CFI R7 load(1, XDATA, add(CFA_XSP16, literal(-6)))
          CFI ?RET_LOW load(1, XDATA, add(CFA_XSP16, literal(-5)))
          CFI ?RET_HIGH load(1, XDATA, add(CFA_XSP16, literal(-4)))
          CFI ?BRET_EXT load(1, XDATA, add(CFA_XSP16, literal(-3)))
          CFI DPL0 load(1, XDATA, add(CFA_XSP16, literal(-2)))
          CFI DPH0 load(1, XDATA, add(CFA_XSP16, literal(-1)))
          CFI CFA_SP SP+-2
          CFI CFA_XSP16 add(XSP16, 50)
          CFI Block cfiCond7 Using cfiCommon0
          CFI (cfiCond7) Function ESP8266_Poll
          CFI (cfiCond7) Conditional ??CrossCallReturnLabel_1
          CFI (cfiCond7) R6 load(1, XDATA, add(CFA_XSP16, literal(-10)))
          CFI (cfiCond7) VB load(1, XDATA, add(CFA_XSP16, literal(-9)))
          CFI (cfiCond7) V0 load(1, XDATA, add(CFA_XSP16, literal(-8)))
          CFI (cfiCond7) V1 load(1, XDATA, add(CFA_XSP16, literal(-7)))
          CFI (cfiCond7) R7 load(1, XDATA, add(CFA_XSP16, literal(-6)))
          CFI (cfiCond7) ?RET_LOW load(1, XDATA, add(CFA_XSP16, literal(-5)))
          CFI (cfiCond7) ?RET_HIGH load(1, XDATA, add(CFA_XSP16, literal(-4)))
          CFI (cfiCond7) ?BRET_EXT load(1, XDATA, add(CFA_XSP16, literal(-3)))
          CFI (cfiCond7) DPL0 load(1, XDATA, add(CFA_XSP16, literal(-2)))
          CFI (cfiCond7) DPH0 load(1, XDATA, add(CFA_XSP16, literal(-1)))
          CFI (cfiCond7) CFA_SP SP+-2
          CFI (cfiCond7) CFA_XSP16 add(XSP16, 10)
          CFI Block cfiCond8 Using cfiCommon0
          CFI (cfiCond8) Function ESP8266_Poll
          CFI (cfiCond8) Conditional ??CrossCallReturnLabel_2
          CFI (cfiCond8) R6 load(1, XDATA, add(CFA_XSP16, literal(-10)))
          CFI (cfiCond8) VB load(1, XDATA, add(CFA_XSP16, literal(-9)))
          CFI (cfiCond8) V0 load(1, XDATA, add(CFA_XSP16, literal(-8)))
          CFI (cfiCond8) V1 load(1, XDATA, add(CFA_XSP16, literal(-7)))
          CFI (cfiCond8) R7 load(1, XDATA, add(CFA_XSP16, literal(-6)))
          CFI (cfiCond8) ?RET_LOW load(1, XDATA, add(CFA_XSP16, literal(-5)))
          CFI (cfiCond8) ?RET_HIGH load(1, XDATA, add(CFA_XSP16, literal(-4)))
          CFI (cfiCond8) ?BRET_EXT load(1, XDATA, add(CFA_XSP16, literal(-3)))
          CFI (cfiCond8) DPL0 load(1, XDATA, add(CFA_XSP16, literal(-2)))
          CFI (cfiCond8) DPH0 load(1, XDATA, add(CFA_XSP16, literal(-1)))
          CFI (cfiCond8) CFA_SP SP+-2
          CFI (cfiCond8) CFA_XSP16 add(XSP16, 10)
          CFI Block cfiPicker9 Using cfiCommon1
          CFI (cfiPicker9) NoFunction
          CFI (cfiPicker9) Picker
        MOVX    A,@DPTR
        MOV     R0,A
        INC     DPTR
        MOVX    A,@DPTR
        MOV     DPH,A
        MOV     DPL,R0
        RET
          CFI EndBlock cfiCond6
          CFI EndBlock cfiCond7
          CFI EndBlock cfiCond8
          CFI EndBlock cfiPicker9
//   49 
//   50 
//   51 

        RSEG BANKED_CODE:CODE:NOROOT(0)
//   52 int8_t ESP8266_CMD_Send(uint8_t* CMD){ 
ESP8266_CMD_Send:
          CFI Block cfiBlock10 Using cfiCommon0
          CFI Function ESP8266_CMD_Send
        CODE
        FUNCALL ESP8266_CMD_Send, strlen
        LOCFRAME ISTACK, 0, STACK
        LOCFRAME PSTACK, 0, STACK
        LOCFRAME XSTACK, 10, STACK
        LOCFRAME IOVERLAY, 0, STATIC
        LOCFRAME DOVERLAY, 0, STATIC
        ARGFRAME ISTACK, 0, STACK
        ARGFRAME PSTACK, 0, STACK
        ARGFRAME XSTACK, 10, STACK
        ARGFRAME IOVERLAY, 0, STATIC
        ARGFRAME DOVERLAY, 0, STATIC
        FUNCALL ESP8266_CMD_Send, Queue_Put
        LOCFRAME ISTACK, 0, STACK
        LOCFRAME PSTACK, 0, STACK
        LOCFRAME XSTACK, 10, STACK
        LOCFRAME IOVERLAY, 0, STATIC
        LOCFRAME DOVERLAY, 0, STATIC
        ARGFRAME ISTACK, 0, STACK
        ARGFRAME PSTACK, 0, STACK
        ARGFRAME XSTACK, 10, STACK
        ARGFRAME IOVERLAY, 0, STATIC
        ARGFRAME DOVERLAY, 0, STATIC
        REQUIRE ?V0
        REQUIRE ?V1
        MOV     A,#-0xa
        LCALL   ?BANKED_ENTER_XDATA
          CFI DPH0 load(1, XDATA, add(CFA_XSP16, literal(-1)))
          CFI DPL0 load(1, XDATA, add(CFA_XSP16, literal(-2)))
          CFI ?BRET_EXT load(1, XDATA, add(CFA_XSP16, literal(-3)))
          CFI ?RET_HIGH load(1, XDATA, add(CFA_XSP16, literal(-4)))
          CFI ?RET_LOW load(1, XDATA, add(CFA_XSP16, literal(-5)))
          CFI R7 load(1, XDATA, add(CFA_XSP16, literal(-6)))
          CFI V1 load(1, XDATA, add(CFA_XSP16, literal(-7)))
          CFI V0 load(1, XDATA, add(CFA_XSP16, literal(-8)))
          CFI VB load(1, XDATA, add(CFA_XSP16, literal(-9)))
          CFI R6 load(1, XDATA, add(CFA_XSP16, literal(-10)))
          CFI CFA_SP SP+0
          CFI CFA_XSP16 add(XSP16, 10)
        ; Saved register size: 10
        ; Auto size: 0
        MOV     A,R2
        MOV     R6,A
        MOV     A,R3
        MOV     R7,A
//   53   uint8_t len = strlen((char const*)CMD),i;
        ; Setup parameters for call to function strlen
        LCALL   `??strlen::?relay`   ; Banked call to: strlen
        MOV     A,R2
        MOV     ?V1,A
//   54   for(i = 0; i < len; i++)
        MOV     ?V0,#0x0
        SJMP    ??ESP8266_CMD_Send_0
//   55     Queue_Put(ESP8266_CMD_Queue,CMD+i);
??ESP8266_CMD_Send_1:
        ; Setup parameters for call to function Queue_Put
        MOV     R0,?V0
        MOV     A,R6
        ADD     A,R0
        MOV     R4,A
        CLR     A
        ADDC    A,R7
        MOV     R5,A
        MOV     DPTR,#ESP8266_CMD_Queue
        LCALL   ??Subroutine4_0 & 0xFFFF
??CrossCallReturnLabel_5:
        LCALL   `??Queue_Put::?relay`; Banked call to: Queue_Put
        INC     ?V0
??ESP8266_CMD_Send_0:
        MOV     A,?V0
        CLR     C
        SUBB    A,?V1
        JC      ??ESP8266_CMD_Send_1
//   56   return 0;
        MOV     R1,#0x0
        SJMP    ?Subroutine0
//   57 }
          CFI EndBlock cfiBlock10

        RSEG BANKED_CODE:CODE:NOROOT(0)
?Subroutine1:
          CFI Block cfiCond11 Using cfiCommon0
          CFI Function ESP8266_Init
          CFI Conditional ??CrossCallReturnLabel_8
          CFI DPL0 Frame(CFA_SP, 4)
          CFI DPH0 Frame(CFA_SP, 5)
          CFI CFA_SP SP+-7
          CFI Block cfiCond12 Using cfiCommon0
          CFI (cfiCond12) Function ESP8266_Poll
          CFI (cfiCond12) Conditional ??CrossCallReturnLabel_9
          CFI (cfiCond12) R6 load(1, XDATA, add(CFA_XSP16, literal(-10)))
          CFI (cfiCond12) VB load(1, XDATA, add(CFA_XSP16, literal(-9)))
          CFI (cfiCond12) V0 load(1, XDATA, add(CFA_XSP16, literal(-8)))
          CFI (cfiCond12) V1 load(1, XDATA, add(CFA_XSP16, literal(-7)))
          CFI (cfiCond12) R7 load(1, XDATA, add(CFA_XSP16, literal(-6)))
          CFI (cfiCond12) ?RET_LOW load(1, XDATA, add(CFA_XSP16, literal(-5)))
          CFI (cfiCond12) ?RET_HIGH load(1, XDATA, add(CFA_XSP16, literal(-4)))
          CFI (cfiCond12) ?BRET_EXT load(1, XDATA, add(CFA_XSP16, literal(-3)))
          CFI (cfiCond12) DPL0 load(1, XDATA, add(CFA_XSP16, literal(-2)))
          CFI (cfiCond12) DPH0 load(1, XDATA, add(CFA_XSP16, literal(-1)))
          CFI (cfiCond12) CFA_SP SP+-2
          CFI (cfiCond12) CFA_XSP16 add(XSP16, 10)
          CFI Block cfiCond13 Using cfiCommon0
          CFI (cfiCond13) Function SetSsidPwd
          CFI (cfiCond13) Conditional ??CrossCallReturnLabel_10
          CFI (cfiCond13) R6 load(1, XDATA, add(CFA_XSP16, literal(-14)))
          CFI (cfiCond13) VB load(1, XDATA, add(CFA_XSP16, literal(-13)))
          CFI (cfiCond13) V0 load(1, XDATA, add(CFA_XSP16, literal(-12)))
          CFI (cfiCond13) V1 load(1, XDATA, add(CFA_XSP16, literal(-11)))
          CFI (cfiCond13) V2 load(1, XDATA, add(CFA_XSP16, literal(-10)))
          CFI (cfiCond13) V3 load(1, XDATA, add(CFA_XSP16, literal(-9)))
          CFI (cfiCond13) V4 load(1, XDATA, add(CFA_XSP16, literal(-8)))
          CFI (cfiCond13) V5 load(1, XDATA, add(CFA_XSP16, literal(-7)))
          CFI (cfiCond13) R7 load(1, XDATA, add(CFA_XSP16, literal(-6)))
          CFI (cfiCond13) ?RET_LOW load(1, XDATA, add(CFA_XSP16, literal(-5)))
          CFI (cfiCond13) ?RET_HIGH load(1, XDATA, add(CFA_XSP16, literal(-4)))
          CFI (cfiCond13) ?BRET_EXT load(1, XDATA, add(CFA_XSP16, literal(-3)))
          CFI (cfiCond13) DPL0 load(1, XDATA, add(CFA_XSP16, literal(-2)))
          CFI (cfiCond13) DPH0 load(1, XDATA, add(CFA_XSP16, literal(-1)))
          CFI (cfiCond13) CFA_SP SP+-2
          CFI (cfiCond13) CFA_XSP16 add(XSP16, 94)
          CFI Block cfiPicker14 Using cfiCommon1
          CFI (cfiPicker14) NoFunction
          CFI (cfiPicker14) Picker
        MOV     DPTR,#ESP_8266_CMD + 4
          CFI EndBlock cfiCond11
          CFI EndBlock cfiCond12
          CFI EndBlock cfiCond13
          CFI EndBlock cfiPicker14
        REQUIRE ??Subroutine4_0
        ; // Fall through to label ??Subroutine4_0

        RSEG BANKED_CODE:CODE:NOROOT(0)
??Subroutine4_0:
          CFI Block cfiCond15 Using cfiCommon0
          CFI Function ESP8266_Init
          CFI Conditional ??CrossCallReturnLabel_3
          CFI DPL0 Frame(CFA_SP, 4)
          CFI DPH0 Frame(CFA_SP, 5)
          CFI CFA_SP SP+-7
          CFI Block cfiCond16 Using cfiCommon0
          CFI (cfiCond16) Function ESP8266_Poll
          CFI (cfiCond16) Conditional ??CrossCallReturnLabel_4
          CFI (cfiCond16) R6 load(1, XDATA, add(CFA_XSP16, literal(-10)))
          CFI (cfiCond16) VB load(1, XDATA, add(CFA_XSP16, literal(-9)))
          CFI (cfiCond16) V0 load(1, XDATA, add(CFA_XSP16, literal(-8)))
          CFI (cfiCond16) V1 load(1, XDATA, add(CFA_XSP16, literal(-7)))
          CFI (cfiCond16) R7 load(1, XDATA, add(CFA_XSP16, literal(-6)))
          CFI (cfiCond16) ?RET_LOW load(1, XDATA, add(CFA_XSP16, literal(-5)))
          CFI (cfiCond16) ?RET_HIGH load(1, XDATA, add(CFA_XSP16, literal(-4)))
          CFI (cfiCond16) ?BRET_EXT load(1, XDATA, add(CFA_XSP16, literal(-3)))
          CFI (cfiCond16) DPL0 load(1, XDATA, add(CFA_XSP16, literal(-2)))
          CFI (cfiCond16) DPH0 load(1, XDATA, add(CFA_XSP16, literal(-1)))
          CFI (cfiCond16) CFA_SP SP+-2
          CFI (cfiCond16) CFA_XSP16 add(XSP16, 10)
          CFI Block cfiCond17 Using cfiCommon0
          CFI (cfiCond17) Function ESP8266_CMD_Send
          CFI (cfiCond17) Conditional ??CrossCallReturnLabel_5
          CFI (cfiCond17) R6 load(1, XDATA, add(CFA_XSP16, literal(-10)))
          CFI (cfiCond17) VB load(1, XDATA, add(CFA_XSP16, literal(-9)))
          CFI (cfiCond17) V0 load(1, XDATA, add(CFA_XSP16, literal(-8)))
          CFI (cfiCond17) V1 load(1, XDATA, add(CFA_XSP16, literal(-7)))
          CFI (cfiCond17) R7 load(1, XDATA, add(CFA_XSP16, literal(-6)))
          CFI (cfiCond17) ?RET_LOW load(1, XDATA, add(CFA_XSP16, literal(-5)))
          CFI (cfiCond17) ?RET_HIGH load(1, XDATA, add(CFA_XSP16, literal(-4)))
          CFI (cfiCond17) ?BRET_EXT load(1, XDATA, add(CFA_XSP16, literal(-3)))
          CFI (cfiCond17) DPL0 load(1, XDATA, add(CFA_XSP16, literal(-2)))
          CFI (cfiCond17) DPH0 load(1, XDATA, add(CFA_XSP16, literal(-1)))
          CFI (cfiCond17) CFA_SP SP+-2
          CFI (cfiCond17) CFA_XSP16 add(XSP16, 10)
          CFI Block cfiCond18 Using cfiCommon0
          CFI (cfiCond18) Function SetSsidPwd
          CFI (cfiCond18) Conditional ??CrossCallReturnLabel_6
          CFI (cfiCond18) R6 load(1, XDATA, add(CFA_XSP16, literal(-14)))
          CFI (cfiCond18) VB load(1, XDATA, add(CFA_XSP16, literal(-13)))
          CFI (cfiCond18) V0 load(1, XDATA, add(CFA_XSP16, literal(-12)))
          CFI (cfiCond18) V1 load(1, XDATA, add(CFA_XSP16, literal(-11)))
          CFI (cfiCond18) V2 load(1, XDATA, add(CFA_XSP16, literal(-10)))
          CFI (cfiCond18) V3 load(1, XDATA, add(CFA_XSP16, literal(-9)))
          CFI (cfiCond18) V4 load(1, XDATA, add(CFA_XSP16, literal(-8)))
          CFI (cfiCond18) V5 load(1, XDATA, add(CFA_XSP16, literal(-7)))
          CFI (cfiCond18) R7 load(1, XDATA, add(CFA_XSP16, literal(-6)))
          CFI (cfiCond18) ?RET_LOW load(1, XDATA, add(CFA_XSP16, literal(-5)))
          CFI (cfiCond18) ?RET_HIGH load(1, XDATA, add(CFA_XSP16, literal(-4)))
          CFI (cfiCond18) ?BRET_EXT load(1, XDATA, add(CFA_XSP16, literal(-3)))
          CFI (cfiCond18) DPL0 load(1, XDATA, add(CFA_XSP16, literal(-2)))
          CFI (cfiCond18) DPH0 load(1, XDATA, add(CFA_XSP16, literal(-1)))
          CFI (cfiCond18) CFA_SP SP+-2
          CFI (cfiCond18) CFA_XSP16 add(XSP16, 94)
          CFI Block cfiCond19 Using cfiCommon0
          CFI (cfiCond19) Function ESP8266_Run
          CFI (cfiCond19) Conditional ??CrossCallReturnLabel_7
          CFI (cfiCond19) R6 load(1, XDATA, add(CFA_XSP16, literal(-9)))
          CFI (cfiCond19) VB load(1, XDATA, add(CFA_XSP16, literal(-8)))
          CFI (cfiCond19) V0 load(1, XDATA, add(CFA_XSP16, literal(-7)))
          CFI (cfiCond19) R7 load(1, XDATA, add(CFA_XSP16, literal(-6)))
          CFI (cfiCond19) ?RET_LOW load(1, XDATA, add(CFA_XSP16, literal(-5)))
          CFI (cfiCond19) ?RET_HIGH load(1, XDATA, add(CFA_XSP16, literal(-4)))
          CFI (cfiCond19) ?BRET_EXT load(1, XDATA, add(CFA_XSP16, literal(-3)))
          CFI (cfiCond19) DPL0 load(1, XDATA, add(CFA_XSP16, literal(-2)))
          CFI (cfiCond19) DPH0 load(1, XDATA, add(CFA_XSP16, literal(-1)))
          CFI (cfiCond19) CFA_SP SP+-2
          CFI (cfiCond19) CFA_XSP16 add(XSP16, 50)
          CFI Block cfiCond20 Using cfiCommon0
          CFI (cfiCond20) Function ESP8266_Init
          CFI (cfiCond20) Conditional ??CrossCallReturnLabel_8
          CFI (cfiCond20) DPL0 Frame(CFA_SP, 4)
          CFI (cfiCond20) DPH0 Frame(CFA_SP, 5)
          CFI (cfiCond20) CFA_SP SP+-7
          CFI Block cfiCond21 Using cfiCommon0
          CFI (cfiCond21) Function ESP8266_Poll
          CFI (cfiCond21) Conditional ??CrossCallReturnLabel_9
          CFI (cfiCond21) R6 load(1, XDATA, add(CFA_XSP16, literal(-10)))
          CFI (cfiCond21) VB load(1, XDATA, add(CFA_XSP16, literal(-9)))
          CFI (cfiCond21) V0 load(1, XDATA, add(CFA_XSP16, literal(-8)))
          CFI (cfiCond21) V1 load(1, XDATA, add(CFA_XSP16, literal(-7)))
          CFI (cfiCond21) R7 load(1, XDATA, add(CFA_XSP16, literal(-6)))
          CFI (cfiCond21) ?RET_LOW load(1, XDATA, add(CFA_XSP16, literal(-5)))
          CFI (cfiCond21) ?RET_HIGH load(1, XDATA, add(CFA_XSP16, literal(-4)))
          CFI (cfiCond21) ?BRET_EXT load(1, XDATA, add(CFA_XSP16, literal(-3)))
          CFI (cfiCond21) DPL0 load(1, XDATA, add(CFA_XSP16, literal(-2)))
          CFI (cfiCond21) DPH0 load(1, XDATA, add(CFA_XSP16, literal(-1)))
          CFI (cfiCond21) CFA_SP SP+-2
          CFI (cfiCond21) CFA_XSP16 add(XSP16, 10)
          CFI Block cfiCond22 Using cfiCommon0
          CFI (cfiCond22) Function SetSsidPwd
          CFI (cfiCond22) Conditional ??CrossCallReturnLabel_10
          CFI (cfiCond22) R6 load(1, XDATA, add(CFA_XSP16, literal(-14)))
          CFI (cfiCond22) VB load(1, XDATA, add(CFA_XSP16, literal(-13)))
          CFI (cfiCond22) V0 load(1, XDATA, add(CFA_XSP16, literal(-12)))
          CFI (cfiCond22) V1 load(1, XDATA, add(CFA_XSP16, literal(-11)))
          CFI (cfiCond22) V2 load(1, XDATA, add(CFA_XSP16, literal(-10)))
          CFI (cfiCond22) V3 load(1, XDATA, add(CFA_XSP16, literal(-9)))
          CFI (cfiCond22) V4 load(1, XDATA, add(CFA_XSP16, literal(-8)))
          CFI (cfiCond22) V5 load(1, XDATA, add(CFA_XSP16, literal(-7)))
          CFI (cfiCond22) R7 load(1, XDATA, add(CFA_XSP16, literal(-6)))
          CFI (cfiCond22) ?RET_LOW load(1, XDATA, add(CFA_XSP16, literal(-5)))
          CFI (cfiCond22) ?RET_HIGH load(1, XDATA, add(CFA_XSP16, literal(-4)))
          CFI (cfiCond22) ?BRET_EXT load(1, XDATA, add(CFA_XSP16, literal(-3)))
          CFI (cfiCond22) DPL0 load(1, XDATA, add(CFA_XSP16, literal(-2)))
          CFI (cfiCond22) DPH0 load(1, XDATA, add(CFA_XSP16, literal(-1)))
          CFI (cfiCond22) CFA_SP SP+-2
          CFI (cfiCond22) CFA_XSP16 add(XSP16, 94)
          CFI Block cfiPicker23 Using cfiCommon1
          CFI (cfiPicker23) NoFunction
          CFI (cfiPicker23) Picker
        MOVX    A,@DPTR
        MOV     R2,A
        INC     DPTR
        MOVX    A,@DPTR
        MOV     R3,A
        RET
          CFI EndBlock cfiCond15
          CFI EndBlock cfiCond16
          CFI EndBlock cfiCond17
          CFI EndBlock cfiCond18
          CFI EndBlock cfiCond19
          CFI EndBlock cfiCond20
          CFI EndBlock cfiCond21
          CFI EndBlock cfiCond22
          CFI EndBlock cfiPicker23
//   58 

        RSEG BANKED_CODE:CODE:NOROOT(0)
//   59 void SetSsidPwd(char* SSID, char* PWD){
SetSsidPwd:
          CFI Block cfiBlock24 Using cfiCommon0
          CFI Function SetSsidPwd
        CODE
        FUNCALL SetSsidPwd, strlen
        LOCFRAME ISTACK, 0, STACK
        LOCFRAME PSTACK, 0, STACK
        LOCFRAME XSTACK, 94, STACK
        LOCFRAME IOVERLAY, 0, STATIC
        LOCFRAME DOVERLAY, 0, STATIC
        ARGFRAME ISTACK, 0, STACK
        ARGFRAME PSTACK, 0, STACK
        ARGFRAME XSTACK, 94, STACK
        ARGFRAME IOVERLAY, 0, STATIC
        ARGFRAME DOVERLAY, 0, STATIC
        FUNCALL SetSsidPwd, memcpy
        LOCFRAME ISTACK, 0, STACK
        LOCFRAME PSTACK, 0, STACK
        LOCFRAME XSTACK, 96, STACK
        LOCFRAME IOVERLAY, 0, STATIC
        LOCFRAME DOVERLAY, 0, STATIC
        ARGFRAME ISTACK, 0, STACK
        ARGFRAME PSTACK, 0, STACK
        ARGFRAME XSTACK, 96, STACK
        ARGFRAME IOVERLAY, 0, STATIC
        ARGFRAME DOVERLAY, 0, STATIC
        FUNCALL SetSsidPwd, strlen
        LOCFRAME ISTACK, 0, STACK
        LOCFRAME PSTACK, 0, STACK
        LOCFRAME XSTACK, 94, STACK
        LOCFRAME IOVERLAY, 0, STATIC
        LOCFRAME DOVERLAY, 0, STATIC
        ARGFRAME ISTACK, 0, STACK
        ARGFRAME PSTACK, 0, STACK
        ARGFRAME XSTACK, 94, STACK
        ARGFRAME IOVERLAY, 0, STATIC
        ARGFRAME DOVERLAY, 0, STATIC
        FUNCALL SetSsidPwd, memcpy
        LOCFRAME ISTACK, 0, STACK
        LOCFRAME PSTACK, 0, STACK
        LOCFRAME XSTACK, 96, STACK
        LOCFRAME IOVERLAY, 0, STATIC
        LOCFRAME DOVERLAY, 0, STATIC
        ARGFRAME ISTACK, 0, STACK
        ARGFRAME PSTACK, 0, STACK
        ARGFRAME XSTACK, 96, STACK
        ARGFRAME IOVERLAY, 0, STATIC
        ARGFRAME DOVERLAY, 0, STATIC
        FUNCALL SetSsidPwd, sprintf
        LOCFRAME ISTACK, 0, STACK
        LOCFRAME PSTACK, 0, STACK
        LOCFRAME XSTACK, 98, STACK
        LOCFRAME IOVERLAY, 0, STATIC
        LOCFRAME DOVERLAY, 0, STATIC
        ARGFRAME ISTACK, 0, STACK
        ARGFRAME PSTACK, 0, STACK
        ARGFRAME XSTACK, 98, STACK
        ARGFRAME IOVERLAY, 0, STATIC
        ARGFRAME DOVERLAY, 0, STATIC
        FUNCALL SetSsidPwd, ESP8266_CMD_Send
        LOCFRAME ISTACK, 0, STACK
        LOCFRAME PSTACK, 0, STACK
        LOCFRAME XSTACK, 94, STACK
        LOCFRAME IOVERLAY, 0, STATIC
        LOCFRAME DOVERLAY, 0, STATIC
        ARGFRAME ISTACK, 0, STACK
        ARGFRAME PSTACK, 0, STACK
        ARGFRAME XSTACK, 94, STACK
        ARGFRAME IOVERLAY, 0, STATIC
        ARGFRAME DOVERLAY, 0, STATIC
        FUNCALL SetSsidPwd, ESP8266_CMD_Send
        LOCFRAME ISTACK, 0, STACK
        LOCFRAME PSTACK, 0, STACK
        LOCFRAME XSTACK, 94, STACK
        LOCFRAME IOVERLAY, 0, STATIC
        LOCFRAME DOVERLAY, 0, STATIC
        ARGFRAME ISTACK, 0, STACK
        ARGFRAME PSTACK, 0, STACK
        ARGFRAME XSTACK, 94, STACK
        ARGFRAME IOVERLAY, 0, STATIC
        ARGFRAME DOVERLAY, 0, STATIC
        FUNCALL SetSsidPwd, ESP8266_CMD_Send
        LOCFRAME ISTACK, 0, STACK
        LOCFRAME PSTACK, 0, STACK
        LOCFRAME XSTACK, 94, STACK
        LOCFRAME IOVERLAY, 0, STATIC
        LOCFRAME DOVERLAY, 0, STATIC
        ARGFRAME ISTACK, 0, STACK
        ARGFRAME PSTACK, 0, STACK
        ARGFRAME XSTACK, 94, STACK
        ARGFRAME IOVERLAY, 0, STATIC
        ARGFRAME DOVERLAY, 0, STATIC
        REQUIRE ?V0
        REQUIRE ?V1
        REQUIRE ?V2
        REQUIRE ?V3
        REQUIRE ?V4
        REQUIRE ?V5
        MOV     A,#-0xe
        LCALL   ?BANKED_ENTER_XDATA
          CFI DPH0 load(1, XDATA, add(CFA_XSP16, literal(-1)))
          CFI DPL0 load(1, XDATA, add(CFA_XSP16, literal(-2)))
          CFI ?BRET_EXT load(1, XDATA, add(CFA_XSP16, literal(-3)))
          CFI ?RET_HIGH load(1, XDATA, add(CFA_XSP16, literal(-4)))
          CFI ?RET_LOW load(1, XDATA, add(CFA_XSP16, literal(-5)))
          CFI R7 load(1, XDATA, add(CFA_XSP16, literal(-6)))
          CFI V5 load(1, XDATA, add(CFA_XSP16, literal(-7)))
          CFI V4 load(1, XDATA, add(CFA_XSP16, literal(-8)))
          CFI V3 load(1, XDATA, add(CFA_XSP16, literal(-9)))
          CFI V2 load(1, XDATA, add(CFA_XSP16, literal(-10)))
          CFI V1 load(1, XDATA, add(CFA_XSP16, literal(-11)))
          CFI V0 load(1, XDATA, add(CFA_XSP16, literal(-12)))
          CFI VB load(1, XDATA, add(CFA_XSP16, literal(-13)))
          CFI R6 load(1, XDATA, add(CFA_XSP16, literal(-14)))
          CFI CFA_SP SP+0
          CFI CFA_XSP16 add(XSP16, 14)
        ; Saved register size: 14
        ; Auto size: 80
        MOV     A,#-0x50
        LCALL   ?ALLOC_XSTACK8
          CFI CFA_XSP16 add(XSP16, 94)
        MOV     ?V0,R2
        MOV     ?V1,R3
        MOV     A,R4
        MOV     R6,A
        MOV     A,R5
        MOV     R7,A
//   60   char Ssid[20] = {0};
        MOV     DPTR,#`?<Constant {0, 0, 0, 0, 0, 0, 0, 0, 0, 0, 0, 0`
        MOV     A,#0x14
        LCALL   ?XSTACK_DISP102_8
        MOV     A,#0x14
        LCALL   ?MOVE_LONG8_XDATA_XDATA
//   61   char  Pwd[20] = {0};
        MOV     DPTR,#`?<Constant {0, 0, 0, 0, 0, 0, 0, 0, 0, 0, 0, 0_1`
        MOV     R4,?XSP + 0
        MOV     R5,?XSP + 1
        MOV     A,#0x14
        LCALL   ?MOVE_LONG8_XDATA_XDATA
//   62   memcpy(Ssid, SSID, strlen(SSID));
        ; Setup parameters for call to function strlen
        LCALL   `??strlen::?relay`   ; Banked call to: strlen
        MOV     ?V2,R2
        MOV     ?V3,R3
        ; Setup parameters for call to function memcpy
        MOV     R0,#?V2
        LCALL   ?PUSH_XSTACK_I_TWO
          CFI CFA_XSP16 add(XSP16, 96)
        MOV     R4,?V0
        MOV     R5,?V1
        MOV     A,#0x16
        LCALL   ?XSTACK_DISP101_8
        LCALL   `??memcpy::?relay`   ; Banked call to: memcpy
        MOV     A,#0x2
        LCALL   ?DEALLOC_XSTACK8
          CFI CFA_XSP16 add(XSP16, 94)
//   63   memcpy(Pwd, PWD, strlen(PWD));
        ; Setup parameters for call to function strlen
        MOV     A,R6
        MOV     R2,A
        MOV     A,R7
        MOV     R3,A
        LCALL   `??strlen::?relay`   ; Banked call to: strlen
        MOV     ?V0,R2
        MOV     ?V1,R3
        ; Setup parameters for call to function memcpy
        MOV     R0,#?V0
        LCALL   ?PUSH_XSTACK_I_TWO
          CFI CFA_XSP16 add(XSP16, 96)
        MOV     A,R6
        MOV     R4,A
        MOV     A,R7
        MOV     R5,A
        MOV     A,#0x2
        LCALL   ?XSTACK_DISP101_8
        LCALL   `??memcpy::?relay`   ; Banked call to: memcpy
        MOV     A,#0x2
        LCALL   ?DEALLOC_XSTACK8
          CFI CFA_XSP16 add(XSP16, 94)
//   64   uint8_t cmd[40] = {0}; 
        MOV     DPTR,#`?<Constant {0, 0, 0, 0, 0, 0, 0, 0, 0, 0, 0, 0_2`
        MOV     A,#0x28
        LCALL   ?XSTACK_DISP102_8
        MOV     A,#0x28
        LCALL   ?MOVE_LONG8_XDATA_XDATA
//   65   sprintf((char*)cmd, (char const*)ESP_8266_CMD.SsidPwd, Ssid, Pwd);
        ; Setup parameters for call to function sprintf
        MOV     R0,?XSP + 0
        MOV     R1,?XSP + 1
        MOV     ?V0,R0
        MOV     ?V1,R1
        MOV     R0,#?V0
        LCALL   ?PUSH_XSTACK_I_TWO
          CFI CFA_XSP16 add(XSP16, 96)
        MOV     A,#0x16
        LCALL   ?XSTACK_DISP100_8
        MOV     ?V0,R0
        MOV     ?V1,R1
        MOV     R0,#?V0
        LCALL   ?PUSH_XSTACK_I_TWO
          CFI CFA_XSP16 add(XSP16, 98)
        MOV     DPTR,#ESP_8266_CMD + 2
        MOVX    A,@DPTR
        MOV     R4,A
        INC     DPTR
        MOVX    A,@DPTR
        MOV     R5,A
        MOV     A,#0x2c
        LCALL   ?XSTACK_DISP101_8
        LCALL   `??sprintf::?relay`  ; Banked call to: sprintf
        MOV     A,#0x4
        LCALL   ?DEALLOC_XSTACK8
          CFI CFA_XSP16 add(XSP16, 94)
//   66   ESP8266_CMD_Send(cmd);
        ; Setup parameters for call to function ESP8266_CMD_Send
        MOV     A,#0x28
        LCALL   ?XSTACK_DISP101_8
        LCALL   `??ESP8266_CMD_Send::?relay`; Banked call to: ESP8266_CMD_Send
//   67   ESP8266_CMD_Send(ESP_8266_CMD.MultiConn);
        ; Setup parameters for call to function ESP8266_CMD_Send
        LCALL   ?Subroutine1 & 0xFFFF
??CrossCallReturnLabel_10:
        LCALL   `??ESP8266_CMD_Send::?relay`; Banked call to: ESP8266_CMD_Send
//   68   ESP8266_CMD_Send(ESP_8266_CMD.ServerMode);
        ; Setup parameters for call to function ESP8266_CMD_Send
        MOV     DPTR,#ESP_8266_CMD + 6
        LCALL   ??Subroutine4_0 & 0xFFFF
??CrossCallReturnLabel_6:
        LCALL   `??ESP8266_CMD_Send::?relay`; Banked call to: ESP8266_CMD_Send
//   69 }  
        MOV     A,#0x50
        LCALL   ?DEALLOC_XSTACK8
          CFI CFA_XSP16 add(XSP16, 14)
        MOV     R7,#0x6
        LJMP    ?BANKED_LEAVE_XDATA
          CFI EndBlock cfiBlock24
//   70   
//   71   

        RSEG BANKED_CODE:CODE:NOROOT(0)
//   72 void ESP8266_Run(void){ 
ESP8266_Run:
          CFI Block cfiBlock25 Using cfiCommon0
          CFI Function ESP8266_Run
        CODE
        FUNCALL ESP8266_Run, Queue_Get
        LOCFRAME ISTACK, 0, STACK
        LOCFRAME PSTACK, 0, STACK
        LOCFRAME XSTACK, 50, STACK
        LOCFRAME IOVERLAY, 0, STATIC
        LOCFRAME DOVERLAY, 0, STATIC
        ARGFRAME ISTACK, 0, STACK
        ARGFRAME PSTACK, 0, STACK
        ARGFRAME XSTACK, 50, STACK
        ARGFRAME IOVERLAY, 0, STATIC
        ARGFRAME DOVERLAY, 0, STATIC
        FUNCALL ESP8266_Run, HalUARTWrite
        LOCFRAME ISTACK, 0, STACK
        LOCFRAME PSTACK, 0, STACK
        LOCFRAME XSTACK, 50, STACK
        LOCFRAME IOVERLAY, 0, STATIC
        LOCFRAME DOVERLAY, 0, STATIC
        ARGFRAME ISTACK, 0, STACK
        ARGFRAME PSTACK, 0, STACK
        ARGFRAME XSTACK, 50, STACK
        ARGFRAME IOVERLAY, 0, STATIC
        ARGFRAME DOVERLAY, 0, STATIC
        MOV     A,#-0x9
        LCALL   ?BANKED_ENTER_XDATA
          CFI DPH0 load(1, XDATA, add(CFA_XSP16, literal(-1)))
          CFI DPL0 load(1, XDATA, add(CFA_XSP16, literal(-2)))
          CFI ?BRET_EXT load(1, XDATA, add(CFA_XSP16, literal(-3)))
          CFI ?RET_HIGH load(1, XDATA, add(CFA_XSP16, literal(-4)))
          CFI ?RET_LOW load(1, XDATA, add(CFA_XSP16, literal(-5)))
          CFI R7 load(1, XDATA, add(CFA_XSP16, literal(-6)))
          CFI V0 load(1, XDATA, add(CFA_XSP16, literal(-7)))
          CFI VB load(1, XDATA, add(CFA_XSP16, literal(-8)))
          CFI R6 load(1, XDATA, add(CFA_XSP16, literal(-9)))
          CFI CFA_SP SP+0
          CFI CFA_XSP16 add(XSP16, 9)
        ; Saved register size: 9
        ; Auto size: 41
        MOV     A,#-0x29
        LCALL   ?ALLOC_XSTACK8
          CFI CFA_XSP16 add(XSP16, 50)
//   73   if(ESP8266_State != ESP8266_BUSY && ESP8266_State != ESP8266_ERROR){
        MOV     DPTR,#ESP8266_State
        MOVX    A,@DPTR
        XRL     A,#0x1
        JZ      ??ESP8266_Run_0
        MOVX    A,@DPTR
        XRL     A,#0x3
        JZ      ??ESP8266_Run_1
//   74     uint8_t cmd[40] = {0},i = 0, j = 0, data;
        MOV     DPTR,#`?<Constant {0, 0, 0, 0, 0, 0, 0, 0, 0, 0, 0, 0_3`
        MOV     A,#0x1
        LCALL   ?XSTACK_DISP102_8
        MOV     A,#0x28
        LCALL   ?MOVE_LONG8_XDATA_XDATA
        MOV     R6,#0x0
//   75     while(Queue_Get(ESP8266_CMD_Queue,&data) == 0){
??ESP8266_Run_2:
        ; Setup parameters for call to function Queue_Get
        MOV     R4,?XSP + 0
        MOV     R5,?XSP + 1
        MOV     DPTR,#ESP8266_CMD_Queue
        LCALL   ??Subroutine4_0 & 0xFFFF
??CrossCallReturnLabel_7:
        LCALL   `??Queue_Get::?relay`; Banked call to: Queue_Get
        MOV     A,R1
        JNZ     ??ESP8266_Run_3
//   76         cmd[i] = data;
        MOV     DPL,?XSP + 0
        MOV     DPH,?XSP + 1
        MOVX    A,@DPTR
        PUSH    A
          CFI CFA_SP SP+-1
        MOV     A,R6
        MOV     R0,A
        MOV     A,#0x1
        LCALL   ?XSTACK_DISP0_8
        MOV     A,DPL
        ADD     A,R0
        MOV     DPL,A
        CLR     A
        ADDC    A,DPH
        MOV     DPH,A
        POP     A
          CFI CFA_SP SP+0
        MOVX    @DPTR,A
//   77         i++;
        INC     R6
//   78         if(data == '\n')
        MOV     DPL,?XSP + 0
        MOV     DPH,?XSP + 1
        MOVX    A,@DPTR
        XRL     A,#0xa
        JNZ     ??ESP8266_Run_2
//   79           break;
//   80     }
//   81     if(i != 0){ 
??ESP8266_Run_3:
        MOV     A,R6
        JZ      ??ESP8266_Run_0
//   82        ESP8266_State = ESP8266_BUSY;
        MOV     DPTR,#ESP8266_State
        MOV     A,#0x1
        MOVX    @DPTR,A
//   83        //printf("cmdlen %d\r\n", i);
//   84        HalUARTWrite(HAL_UART_PORT_1,cmd,i); 
        ; Setup parameters for call to function HalUARTWrite
        MOV     A,R6
        MOV     R4,A
        MOV     R5,#0x0
        MOV     A,#0x1
        LCALL   ?XSTACK_DISP101_8
        MOV     R1,#0x1
        LCALL   `??HalUARTWrite::?relay`; Banked call to: HalUARTWrite
        SJMP    ??ESP8266_Run_0
//   85     }
//   86   }else if(ESP8266_State == ESP8266_ERROR){
//   87     //HalUARTWrite(HAL_UART_PORT_1,"AT+RST",strlen("AT+RST"));
//   88     Log.error("ESP8266遇到ERROR");
??ESP8266_Run_1:
        ; Setup parameters for indirect call
        MOV     R2,#`?<Constant "ESP8266\\323\\366\\265\\275ERROR">` & 0xff
        MOV     R3,#(`?<Constant "ESP8266\\323\\366\\265\\275ERROR">` >> 8) & 0xff
        MOV     DPTR,#Log + 2
        LCALL   ??Subroutine3_0 & 0xFFFF
//   89   }else{
??CrossCallReturnLabel_0:
        LCALL   ?CALL_IND
//   90     //Log.waring("ESP8266 BUSY\r\n");
//   91   } 
//   92 }
??ESP8266_Run_0:
        MOV     A,#0x29
        LCALL   ?DEALLOC_XSTACK8
          CFI CFA_XSP16 add(XSP16, 9)
        MOV     R7,#0x1
        LJMP    ?BANKED_LEAVE_XDATA
          CFI EndBlock cfiBlock25

        RSEG XDATA_ID:CODE:NOROOT(0)
`?<Initializer for ESP_8266_CMD>`:
        DATA16
        DW `?<Constant "AT+CWMODE=%d\\r\\n">`
        DW `?<Constant "AT+CWJAP=\\"%s\\",\\"%s\\"\\r\\n">`
        DW `?<Constant "AT+CIPMUX=1\\r\\n">`
        DW `?<Constant "AT+CIPSERVER=1,8080\\r\\n">`
        DW `?<Constant "AT+SEND=%d,%d\\r\\n">`

        RSEG XDATA_ID:CODE:NOROOT(0)
`?<Initializer for ESP8266_State>`:
        DATA8
        DB 1

        RSEG BANK_RELAYS:CODE:REORDER:NOROOT(0)
`??ESP8266_Init::?relay`:
        CODE
        LCALL   ?BDISPATCH
        DATA24
        DC24    ESP8266_Init

        RSEG BANK_RELAYS:CODE:REORDER:NOROOT(0)
`??ESP8266_Poll::?relay`:
        CODE
        LCALL   ?BDISPATCH
        DATA24
        DC24    ESP8266_Poll

        RSEG BANK_RELAYS:CODE:REORDER:NOROOT(0)
`??ESP8266_CMD_Send::?relay`:
        CODE
        LCALL   ?BDISPATCH
        DATA24
        DC24    ESP8266_CMD_Send

        RSEG BANK_RELAYS:CODE:REORDER:NOROOT(0)
`??SetSsidPwd::?relay`:
        CODE
        LCALL   ?BDISPATCH
        DATA24
        DC24    SetSsidPwd

        RSEG BANK_RELAYS:CODE:REORDER:NOROOT(0)
`??ESP8266_Run::?relay`:
        CODE
        LCALL   ?BDISPATCH
        DATA24
        DC24    ESP8266_Run

        RSEG XDATA_ROM_C:CONST:REORDER:NOROOT(0)
        DATA8
`?<Constant "AT+CWMODE=%d\\r\\n">`:
        DB "AT+CWMODE=%d\015\012"

        RSEG XDATA_ROM_C:CONST:REORDER:NOROOT(0)
        DATA8
`?<Constant "AT+CWJAP=\\"%s\\",\\"%s\\"\\r\\n">`:
        DB "AT+CWJAP=\"%s\",\"%s\"\015\012"

        RSEG XDATA_ROM_C:CONST:REORDER:NOROOT(0)
        DATA8
`?<Constant "AT+CIPMUX=1\\r\\n">`:
        DB "AT+CIPMUX=1\015\012"

        RSEG XDATA_ROM_C:CONST:REORDER:NOROOT(0)
        DATA8
`?<Constant "AT+CIPSERVER=1,8080\\r\\n">`:
        DB "AT+CIPSERVER=1,8080\015\012"

        RSEG XDATA_ROM_C:CONST:REORDER:NOROOT(0)
        DATA8
`?<Constant "AT+SEND=%d,%d\\r\\n">`:
        DB "AT+SEND=%d,%d\015\012"

        RSEG XDATA_ROM_C:CONST:REORDER:NOROOT(0)
        DATA8
`?<Constant "ready">`:
        DB "ready"

        RSEG XDATA_ROM_C:CONST:REORDER:NOROOT(0)
        DATA8
`?<Constant "\\302\\267\\323\\311\\306\\367\\306\\364\\2`:
        DB "\302\267\323\311\306\367\306\364\266\257\315\352\263\311\015\012"

        RSEG XDATA_ROM_C:CONST:REORDER:NOROOT(0)
        DATA8
`?<Constant "WIFI GOT IP">`:
        DB "WIFI GOT IP"

        RSEG XDATA_ROM_C:CONST:REORDER:NOROOT(0)
        DATA8
`?<Constant "\\302\\267\\323\\311\\306\\367\\301\\254\\2`:
        DB "\302\267\323\311\306\367\301\254\275\323\263\311\271\246\015\012"

        RSEG XDATA_ROM_C:CONST:REORDER:NOROOT(0)
        DATA8
`?<Constant "WIFI DISCONNECT">`:
        DB "WIFI DISCONNECT"

        RSEG XDATA_ROM_C:CONST:REORDER:NOROOT(0)
        DATA8
`?<Constant "\\302\\267\\323\\311\\306\\367\\301\\254\\2_1`:
        DB "\302\267\323\311\306\367\301\254\275\323\312\247\260\334\015\012"

        RSEG XDATA_ROM_C:CONST:REORDER:NOROOT(0)
        DATA8
`?<Constant "OK">`:
        DB "OK"

        RSEG XDATA_ROM_C:CONST:REORDER:NOROOT(0)
        DATA8
`?<Constant "ERROR">`:
        DB "ERROR"

        RSEG XDATA_ROM_C:CONST:REORDER:NOROOT(0)
        DATA8
`?<Constant {0, 0, 0, 0, 0, 0, 0, 0, 0, 0, 0, 0`:
        DB 0
        DB 0
        DB 0
        DB 0
        DB 0
        DB 0
        DB 0
        DB 0
        DB 0
        DB 0
        DB 0
        DB 0
        DB 0
        DB 0
        DB 0
        DB 0
        DB 0
        DB 0
        DB 0
        DB 0

        RSEG XDATA_ROM_C:CONST:REORDER:NOROOT(0)
        DATA8
`?<Constant {0, 0, 0, 0, 0, 0, 0, 0, 0, 0, 0, 0_1`:
        DB 0
        DB 0
        DB 0
        DB 0
        DB 0
        DB 0
        DB 0
        DB 0
        DB 0
        DB 0
        DB 0
        DB 0
        DB 0
        DB 0
        DB 0
        DB 0
        DB 0
        DB 0
        DB 0
        DB 0

        RSEG XDATA_ROM_C:CONST:REORDER:NOROOT(0)
        DATA8
`?<Constant {0, 0, 0, 0, 0, 0, 0, 0, 0, 0, 0, 0_2`:
        DB 0
        DB 0
        DB 0
        DB 0
        DB 0
        DB 0
        DB 0
        DB 0
        DB 0
        DB 0
        DB 0
        DB 0
        DB 0
        DB 0
        DB 0
        DB 0
        DB 0
        DB 0
        DB 0
        DB 0
        DB 0
        DB 0
        DB 0
        DB 0
        DB 0
        DB 0
        DB 0
        DB 0
        DB 0
        DB 0
        DB 0
        DB 0
        DB 0
        DB 0
        DB 0
        DB 0
        DB 0
        DB 0
        DB 0
        DB 0

        RSEG XDATA_ROM_C:CONST:REORDER:NOROOT(0)
        DATA8
`?<Constant {0, 0, 0, 0, 0, 0, 0, 0, 0, 0, 0, 0_3`:
        DB 0
        DB 0
        DB 0
        DB 0
        DB 0
        DB 0
        DB 0
        DB 0
        DB 0
        DB 0
        DB 0
        DB 0
        DB 0
        DB 0
        DB 0
        DB 0
        DB 0
        DB 0
        DB 0
        DB 0
        DB 0
        DB 0
        DB 0
        DB 0
        DB 0
        DB 0
        DB 0
        DB 0
        DB 0
        DB 0
        DB 0
        DB 0
        DB 0
        DB 0
        DB 0
        DB 0
        DB 0
        DB 0
        DB 0
        DB 0

        RSEG XDATA_ROM_C:CONST:REORDER:NOROOT(0)
        DATA8
`?<Constant "ESP8266\\323\\366\\265\\275ERROR">`:
        DB "ESP8266\323\366\265\275ERROR"

        END
//   93 
//   94   
//   95   
// 
// 624 bytes in segment BANKED_CODE
//  30 bytes in segment BANK_RELAYS
//  11 bytes in segment XDATA_I
//  11 bytes in segment XDATA_ID
// 319 bytes in segment XDATA_ROM_C
// 103 bytes in segment XDATA_Z
// 
// 665 bytes of CODE  memory
// 319 bytes of CONST memory
// 114 bytes of XDATA memory
//
//Errors: none
//Warnings: 1
