///////////////////////////////////////////////////////////////////////////////
//
// IAR C/C++ Compiler V9.30.1.3056 for 8051               24/Oct/2016  15:11:59
// Copyright 2004-2015 IAR Systems AB.
// Standalone license - IAR Embedded Workbench for 8051
//
//    Core               =  plain
//    Code model         =  banked
//    Data model         =  large
//    Calling convention =  xdata reentrant
//    Constant location  =  data_rom
//    Dptr setup         =  1,16
//                          
//    Source file        =  
//        E:\资源(G：)\#个人项目\ZigbeeProject\Z-Stack Mesh
//        1.0.0\Projects\zstack\Samples\Demo_App_V1.7饮水机控制增加uart\Module\WaterMachine\WaterMachineProtocol.c
//    Command line       =  
//        -f "E:\资源(G：)\#个人项目\ZigbeeProject\Z-Stack Mesh
//        1.0.0\Projects\zstack\Samples\Demo_App_V1.7饮水机控制增加uart\CC2530DB\..\..\..\Tools\CC2530DB\f8wEndev.cfg"
//        (-DCPU32MHZ -DROOT=__near_func -DMAC_CFG_TX_DATA_MAX=3
//        -DMAC_CFG_TX_MAX=6 -DMAC_CFG_RX_MAX=3) -f
//        "E:\资源(G：)\#个人项目\ZigbeeProject\Z-Stack Mesh
//        1.0.0\Projects\zstack\Samples\Demo_App_V1.7饮水机控制增加uart\CC2530DB\..\..\..\Tools\CC2530DB\f8wConfig.cfg"
//        (-DZIGBEEPRO -DSECURE=1 -DZG_SECURE_DYNAMIC=0 -DREFLECTOR
//        -DDEFAULT_CHANLIST=0x00000800 -DZDAPP_CONFIG_PAN_ID=0xFFFF
//        -DNWK_START_DELAY=100 -DEXTENDED_JOINING_RANDOM_MASK=0x007F
//        -DBEACON_REQUEST_DELAY=100 -DBEACON_REQ_DELAY_MASK=0x00FF
//        -DLINK_STATUS_JITTER_MASK=0x007F -DROUTE_EXPIRY_TIME=30
//        -DAPSC_ACK_WAIT_DURATION_POLLED=3000 -DNWK_INDIRECT_MSG_TIMEOUT=7
//        -DMAX_RREQ_ENTRIES=8 -DAPSC_MAX_FRAME_RETRIES=3
//        -DNWK_MAX_DATA_RETRIES=2 -DMAX_POLL_FAILURE_RETRIES=2 -DMAX_BCAST=9
//        -DAPS_MAX_GROUPS=16 -DMAX_RTG_ENTRIES=40 -DNWK_MAX_BINDING_ENTRIES=4
//        -DMAX_BINDING_CLUSTER_IDS=4 "-DDEFAULT_KEY={0x01, 0x03, 0x05, 0x07,
//        0x09, 0x0B, 0x0D, 0x0F, 0x00, 0x02, 0x04, 0x06, 0x08, 0x0A, 0x0C,
//        0x0D}" -DMAC_MAX_FRAME_SIZE=116 -DZDNWKMGR_MIN_TRANSMISSIONS=20
//        "-DCONST=const __code" -DGENERIC=__generic -DRFD_RCVC_ALWAYS_ON=FALSE
//        -DPOLL_RATE=50 -DQUEUED_POLL_RATE=100 -DRESPONSE_POLL_RATE=100)
//        -DREJOIN_POLL_RATE=440 "E:\资源(G：)\#个人项目\ZigbeeProject\Z-Stack
//        Mesh
//        1.0.0\Projects\zstack\Samples\Demo_App_V1.7饮水机控制增加uart\Module\WaterMachine\WaterMachineProtocol.c"
//        -D LOG_OUT -D UART1_PROTOCOL_RESOLVER=1 -D xISQC -D NWK_AUTO_POLL -D
//        ZTOOL_P1 -D ISR_KEYINTERRUPT -D xMT_TASK -D xMT_SYS_FUNC -D
//        xMT_ZDO_FUNC -D xLCD_SUPPORTED=DEBUG -D xPOWER_SAVING -lC
//        "E:\资源(G：)\#个人项目\ZigbeeProject\Z-Stack Mesh
//        1.0.0\Projects\zstack\Samples\Demo_App_V1.7饮水机控制增加uart\CC2530DB\WaterMachine\List"
//        -lA "E:\资源(G：)\#个人项目\ZigbeeProject\Z-Stack Mesh
//        1.0.0\Projects\zstack\Samples\Demo_App_V1.7饮水机控制增加uart\CC2530DB\WaterMachine\List"
//        --diag_suppress Pe001,Pa010 -o
//        "E:\资源(G：)\#个人项目\ZigbeeProject\Z-Stack Mesh
//        1.0.0\Projects\zstack\Samples\Demo_App_V1.7饮水机控制增加uart\CC2530DB\WaterMachine\Obj"
//        -e --no_code_motion --debug --core=plain --dptr=16,1
//        --data_model=large --code_model=banked
//        --calling_convention=xdata_reentrant --place_constants=data_rom
//        --nr_virtual_regs 8 -I "E:\资源(G：)\#个人项目\ZigbeeProject\Z-Stack
//        Mesh
//        1.0.0\Projects\zstack\Samples\Demo_App_V1.7饮水机控制增加uart\CC2530DB\"
//        -I "E:\资源(G：)\#个人项目\ZigbeeProject\Z-Stack Mesh
//        1.0.0\Projects\zstack\Samples\Demo_App_V1.7饮水机控制增加uart\CC2530DB\..\Source\"
//        -I "E:\资源(G：)\#个人项目\ZigbeeProject\Z-Stack Mesh
//        1.0.0\Projects\zstack\Samples\Demo_App_V1.7饮水机控制增加uart\CC2530DB\..\Frame\"
//        -I "E:\资源(G：)\#个人项目\ZigbeeProject\Z-Stack Mesh
//        1.0.0\Projects\zstack\Samples\Demo_App_V1.7饮水机控制增加uart\CC2530DB\..\Module\WaterMachine\"
//        -I "E:\资源(G：)\#个人项目\ZigbeeProject\Z-Stack Mesh
//        1.0.0\Projects\zstack\Samples\Demo_App_V1.7饮水机控制增加uart\CC2530DB\..\..\..\ZMain\TI2530DB\"
//        -I "E:\资源(G：)\#个人项目\ZigbeeProject\Z-Stack Mesh
//        1.0.0\Projects\zstack\Samples\Demo_App_V1.7饮水机控制增加uart\CC2530DB\..\..\..\..\..\Components\hal\include\"
//        -I "E:\资源(G：)\#个人项目\ZigbeeProject\Z-Stack Mesh
//        1.0.0\Projects\zstack\Samples\Demo_App_V1.7饮水机控制增加uart\CC2530DB\..\..\..\..\..\Components\hal\target\CC2530EB\"
//        -I "E:\资源(G：)\#个人项目\ZigbeeProject\Z-Stack Mesh
//        1.0.0\Projects\zstack\Samples\Demo_App_V1.7饮水机控制增加uart\CC2530DB\..\..\..\..\..\Components\mac\include\"
//        -I "E:\资源(G：)\#个人项目\ZigbeeProject\Z-Stack Mesh
//        1.0.0\Projects\zstack\Samples\Demo_App_V1.7饮水机控制增加uart\CC2530DB\..\..\..\..\..\Components\mac\high_level\"
//        -I "E:\资源(G：)\#个人项目\ZigbeeProject\Z-Stack Mesh
//        1.0.0\Projects\zstack\Samples\Demo_App_V1.7饮水机控制增加uart\CC2530DB\..\..\..\..\..\Components\mac\low_level\srf04\"
//        -I "E:\资源(G：)\#个人项目\ZigbeeProject\Z-Stack Mesh
//        1.0.0\Projects\zstack\Samples\Demo_App_V1.7饮水机控制增加uart\CC2530DB\..\..\..\..\..\Components\mac\low_level\srf04\single_chip\"
//        -I "E:\资源(G：)\#个人项目\ZigbeeProject\Z-Stack Mesh
//        1.0.0\Projects\zstack\Samples\Demo_App_V1.7饮水机控制增加uart\CC2530DB\..\..\..\..\..\Components\mt\"
//        -I "E:\资源(G：)\#个人项目\ZigbeeProject\Z-Stack Mesh
//        1.0.0\Projects\zstack\Samples\Demo_App_V1.7饮水机控制增加uart\CC2530DB\..\..\..\..\..\Components\osal\include\"
//        -I "E:\资源(G：)\#个人项目\ZigbeeProject\Z-Stack Mesh
//        1.0.0\Projects\zstack\Samples\Demo_App_V1.7饮水机控制增加uart\CC2530DB\..\..\..\..\..\Components\services\saddr\"
//        -I "E:\资源(G：)\#个人项目\ZigbeeProject\Z-Stack Mesh
//        1.0.0\Projects\zstack\Samples\Demo_App_V1.7饮水机控制增加uart\CC2530DB\..\..\..\..\..\Components\services\sdata\"
//        -I "E:\资源(G：)\#个人项目\ZigbeeProject\Z-Stack Mesh
//        1.0.0\Projects\zstack\Samples\Demo_App_V1.7饮水机控制增加uart\CC2530DB\..\..\..\..\..\Components\stack\af\"
//        -I "E:\资源(G：)\#个人项目\ZigbeeProject\Z-Stack Mesh
//        1.0.0\Projects\zstack\Samples\Demo_App_V1.7饮水机控制增加uart\CC2530DB\..\..\..\..\..\Components\stack\nwk\"
//        -I "E:\资源(G：)\#个人项目\ZigbeeProject\Z-Stack Mesh
//        1.0.0\Projects\zstack\Samples\Demo_App_V1.7饮水机控制增加uart\CC2530DB\..\..\..\..\..\Components\stack\sapi\"
//        -I "E:\资源(G：)\#个人项目\ZigbeeProject\Z-Stack Mesh
//        1.0.0\Projects\zstack\Samples\Demo_App_V1.7饮水机控制增加uart\CC2530DB\..\..\..\..\..\Components\stack\sec\"
//        -I "E:\资源(G：)\#个人项目\ZigbeeProject\Z-Stack Mesh
//        1.0.0\Projects\zstack\Samples\Demo_App_V1.7饮水机控制增加uart\CC2530DB\..\..\..\..\..\Components\stack\sys\"
//        -I "E:\资源(G：)\#个人项目\ZigbeeProject\Z-Stack Mesh
//        1.0.0\Projects\zstack\Samples\Demo_App_V1.7饮水机控制增加uart\CC2530DB\..\..\..\..\..\Components\stack\zdo\"
//        -I "E:\资源(G：)\#个人项目\ZigbeeProject\Z-Stack Mesh
//        1.0.0\Projects\zstack\Samples\Demo_App_V1.7饮水机控制增加uart\CC2530DB\..\..\..\..\..\Components\zmac\"
//        -I "E:\资源(G：)\#个人项目\ZigbeeProject\Z-Stack Mesh
//        1.0.0\Projects\zstack\Samples\Demo_App_V1.7饮水机控制增加uart\CC2530DB\..\..\..\..\..\Components\zmac\f8w\"
//        -Ohz
//    List file          =  
//        E:\资源(G：)\#个人项目\ZigbeeProject\Z-Stack Mesh
//        1.0.0\Projects\zstack\Samples\Demo_App_V1.7饮水机控制增加uart\CC2530DB\WaterMachine\List\WaterMachineProtocol.s51
//
///////////////////////////////////////////////////////////////////////////////

        NAME WaterMachineProtocol

        RTMODEL "__SystemLibrary", "CLib"
        RTMODEL "__calling_convention", "xdata_reentrant"
        RTMODEL "__code_model", "banked"
        RTMODEL "__core", "plain"
        RTMODEL "__data_model", "large"
        RTMODEL "__dptr_size", "16"
        RTMODEL "__extended_stack", "disabled"
        RTMODEL "__location_for_constants", "data"
        RTMODEL "__number_of_dptrs", "1"
        RTMODEL "__rt_version", "1"

        RSEG DOVERLAY:DATA:NOROOT(0)
        RSEG IOVERLAY:IDATA:NOROOT(0)
        RSEG ISTACK:IDATA:NOROOT(0)
        RSEG PSTACK:XDATA:NOROOT(0)
        RSEG XSTACK:XDATA:NOROOT(0)

        EXTERN ?V0
        EXTERN ?V1
        EXTERN ?V2
        EXTERN ?V3
        EXTERN ?ALLOC_XSTACK8
        EXTERN ?BANKED_ENTER_XDATA
        EXTERN ?BANKED_LEAVE_XDATA
        EXTERN ?BDISPATCH
        EXTERN ?BRET
        EXTERN ?DEALLOC_XSTACK8
        EXTERN ?PUSH_XSTACK_I_ONE
        EXTERN ?PUSH_XSTACK_I_TWO
        EXTERN ?XSP
        EXTERN ?XSTACK_DISP0_8
        EXTERN ?XSTACK_DISP101_8
        EXTERN ?XSTACK_DISP102_8
        EXTERN __INIT_XDATA_Z

        PUBLIC `??ProtocolSend::?relay`
        FUNCTION `??ProtocolSend::?relay`,0203H
        PUBLIC `??Protocol_Init::?relay`
        FUNCTION `??Protocol_Init::?relay`,0203H
        PUBLIC ProtocolSend
        FUNCTION ProtocolSend,0a1603H
        ARGFRAME XSTACK, 0, STACK
        LOCFRAME XSTACK, 39, STACK
        PUBLIC Protocol_Init
        FUNCTION Protocol_Init,021201H
        ARGFRAME XSTACK, 0, STACK
        LOCFRAME ISTACK, 2, STACK
        LOCFRAME XSTACK, 12, STACK
        
          CFI Names cfiNames0
          CFI StackFrame CFA_SP SP IDATA
          CFI StackFrame CFA_PSP16 PSP16 XDATA
          CFI StackFrame CFA_XSP16 XSP16 XDATA
          CFI StaticOverlayFrame CFA_IOVERLAY IOVERLAY
          CFI StaticOverlayFrame CFA_DOVERLAY DOVERLAY
          CFI Resource `PSW.CY`:1, `B.BR0`:1, `B.BR1`:1, `B.BR2`:1, `B.BR3`:1
          CFI Resource `B.BR4`:1, `B.BR5`:1, `B.BR6`:1, `B.BR7`:1, `VB.BR8`:1
          CFI Resource `VB.BR9`:1, `VB.BR10`:1, `VB.BR11`:1, `VB.BR12`:1
          CFI Resource `VB.BR13`:1, `VB.BR14`:1, `VB.BR15`:1, VB:8, B:8, A:8
          CFI Resource PSW:8, DPL0:8, DPH0:8, R0:8, R1:8, R2:8, R3:8, R4:8, R5:8
          CFI Resource R6:8, R7:8, V0:8, V1:8, V2:8, V3:8, V4:8, V5:8, V6:8, V7:8
          CFI Resource SP:8, PSPH:8, PSPL:8, PSP16:16, XSPH:8, XSPL:8, XSP16:16
          CFI VirtualResource ?RET:24
          CFI Resource ?BRET_EXT:8
          CFI VirtualResource ?RET_HIGH:8, ?RET_LOW:8
          CFI ResourceParts PSP16 PSPH, PSPL
          CFI ResourceParts XSP16 XSPH, XSPL
          CFI ResourceParts ?RET ?BRET_EXT, ?RET_HIGH, ?RET_LOW
          CFI EndNames cfiNames0
        
          CFI Common cfiCommon0 Using cfiNames0
          CFI CodeAlign 1
          CFI DataAlign -1
          CFI ReturnAddress ?RET CODE
          CFI CFA_DOVERLAY Used
          CFI CFA_IOVERLAY Used
          CFI CFA_SP SP+-3
          CFI CFA_PSP16 PSP16+0
          CFI CFA_XSP16 XSP16+0
          CFI `PSW.CY` SameValue
          CFI `B.BR0` SameValue
          CFI `B.BR1` SameValue
          CFI `B.BR2` SameValue
          CFI `B.BR3` SameValue
          CFI `B.BR4` SameValue
          CFI `B.BR5` SameValue
          CFI `B.BR6` SameValue
          CFI `B.BR7` SameValue
          CFI `VB.BR8` SameValue
          CFI `VB.BR9` SameValue
          CFI `VB.BR10` SameValue
          CFI `VB.BR11` SameValue
          CFI `VB.BR12` SameValue
          CFI `VB.BR13` SameValue
          CFI `VB.BR14` SameValue
          CFI `VB.BR15` SameValue
          CFI VB SameValue
          CFI B Undefined
          CFI A Undefined
          CFI PSW SameValue
          CFI DPL0 SameValue
          CFI DPH0 SameValue
          CFI R0 Undefined
          CFI R1 Undefined
          CFI R2 Undefined
          CFI R3 Undefined
          CFI R4 Undefined
          CFI R5 Undefined
          CFI R6 SameValue
          CFI R7 SameValue
          CFI V0 SameValue
          CFI V1 SameValue
          CFI V2 SameValue
          CFI V3 SameValue
          CFI V4 SameValue
          CFI V5 SameValue
          CFI V6 SameValue
          CFI V7 SameValue
          CFI PSPH Undefined
          CFI PSPL Undefined
          CFI XSPH Undefined
          CFI XSPL Undefined
          CFI ?RET Concat
          CFI ?BRET_EXT Frame(CFA_SP, 3)
          CFI ?RET_HIGH Frame(CFA_SP, 2)
          CFI ?RET_LOW Frame(CFA_SP, 1)
          CFI EndCommon cfiCommon0
        
        
          CFI Common cfiCommon1 Using cfiNames0
          CFI CodeAlign 1
          CFI DataAlign -1
          CFI ReturnAddress ?RET CODE
          CFI CFA_DOVERLAY Used
          CFI CFA_IOVERLAY Used
          CFI CFA_SP SP+-2
          CFI CFA_PSP16 PSP16+0
          CFI CFA_XSP16 XSP16+0
          CFI `PSW.CY` SameValue
          CFI `B.BR0` SameValue
          CFI `B.BR1` SameValue
          CFI `B.BR2` SameValue
          CFI `B.BR3` SameValue
          CFI `B.BR4` SameValue
          CFI `B.BR5` SameValue
          CFI `B.BR6` SameValue
          CFI `B.BR7` SameValue
          CFI `VB.BR8` SameValue
          CFI `VB.BR9` SameValue
          CFI `VB.BR10` SameValue
          CFI `VB.BR11` SameValue
          CFI `VB.BR12` SameValue
          CFI `VB.BR13` SameValue
          CFI `VB.BR14` SameValue
          CFI `VB.BR15` SameValue
          CFI VB SameValue
          CFI B SameValue
          CFI A SameValue
          CFI PSW SameValue
          CFI DPL0 SameValue
          CFI DPH0 SameValue
          CFI R0 SameValue
          CFI R1 SameValue
          CFI R2 SameValue
          CFI R3 SameValue
          CFI R4 SameValue
          CFI R5 SameValue
          CFI R6 SameValue
          CFI R7 SameValue
          CFI V0 SameValue
          CFI V1 SameValue
          CFI V2 SameValue
          CFI V3 SameValue
          CFI V4 SameValue
          CFI V5 SameValue
          CFI V6 SameValue
          CFI V7 SameValue
          CFI PSPH Undefined
          CFI PSPL Undefined
          CFI XSPH Undefined
          CFI XSPL Undefined
          CFI ?RET Concat
          CFI ?BRET_EXT SameValue
          CFI ?RET_HIGH Frame(CFA_SP, 2)
          CFI ?RET_LOW Frame(CFA_SP, 1)
          CFI EndCommon cfiCommon1
        
AF_DataRequest      SYMBOL "AF_DataRequest"
`??AF_DataRequest::?relay` SYMBOL "?relay", AF_DataRequest
App_GetepDesc       SYMBOL "App_GetepDesc"
`??App_GetepDesc::?relay` SYMBOL "?relay", App_GetepDesc
`?<Name Cmd_P_Handle 4>` SYMBOL "Cmd_P_Handle"
`??Cmd_P_Handle::?relay` SYMBOL "?relay", `?<Name Cmd_P_Handle 4>`
Protocol_Register   SYMBOL "Protocol_Register"
`??Protocol_Register::?relay` SYMBOL "?relay", Protocol_Register
`?<Name StateGet_P_Handle 8>` SYMBOL "StateGet_P_Handle"
`??StateGet_P_Handle::?relay` SYMBOL "?relay", `?<Name StateGet_P_Handle 8>`
getModuleByModuleID SYMBOL "getModuleByModuleID"
`??getModuleByModuleID::?relay` SYMBOL "?relay", getModuleByModuleID
ProtocolSend        SYMBOL "ProtocolSend"
`??ProtocolSend::?relay` SYMBOL "?relay", ProtocolSend
Protocol_Init       SYMBOL "Protocol_Init"
`??Protocol_Init::?relay` SYMBOL "?relay", Protocol_Init

        EXTERN `??AF_DataRequest::?relay`
        FUNCTION `??AF_DataRequest::?relay`,00H
        EXTERN `??App_GetepDesc::?relay`
        FUNCTION `??App_GetepDesc::?relay`,00H
        EXTERN `??Cmd_P_Handle::?relay`
        FUNCTION `??Cmd_P_Handle::?relay`,00H
        EXTERN `??Protocol_Register::?relay`
        FUNCTION `??Protocol_Register::?relay`,00H
        EXTERN `??StateGet_P_Handle::?relay`
        FUNCTION `??StateGet_P_Handle::?relay`,00H
        EXTERN `??getModuleByModuleID::?relay`
        FUNCTION `??getModuleByModuleID::?relay`,00H
        EXTERN AF_DataRequest
        FUNCTION AF_DataRequest,0202H
        ARGFRAME ISTACK, 0, STACK
        ARGFRAME PSTACK, 0, STACK
        ARGFRAME XSTACK, 39, STACK
        ARGFRAME IOVERLAY, 0, STATIC
        ARGFRAME DOVERLAY, 0, STATIC
        EXTERN App_GetepDesc
        FUNCTION App_GetepDesc,0202H
        ARGFRAME ISTACK, 0, STACK
        ARGFRAME PSTACK, 0, STACK
        ARGFRAME XSTACK, 30, STACK
        ARGFRAME IOVERLAY, 0, STATIC
        ARGFRAME DOVERLAY, 0, STATIC
        EXTERN Protocol_Register
        FUNCTION Protocol_Register,0202H
        ARGFRAME ISTACK, 2, STACK
        ARGFRAME PSTACK, 0, STACK
        ARGFRAME XSTACK, 12, STACK
        ARGFRAME IOVERLAY, 0, STATIC
        ARGFRAME DOVERLAY, 0, STATIC
        EXTERN getModuleByModuleID
        FUNCTION getModuleByModuleID,0202H
        ARGFRAME ISTACK, 0, STACK
        ARGFRAME PSTACK, 0, STACK
        ARGFRAME XSTACK, 30, STACK
        ARGFRAME IOVERLAY, 0, STATIC
        ARGFRAME DOVERLAY, 0, STATIC

// E:\资源(G：)\#个人项目\ZigbeeProject\Z-Stack Mesh 1.0.0\Projects\zstack\Samples\Demo_App_V1.7饮水机控制增加uart\Module\WaterMachine\WaterMachineProtocol.c
//    1 #include "ProtocolFrame.h"
//    2 #include "WaterMachineProtocol.h"
//    3 #include "protocol.h"
//    4 #include "ProtocolHandle.h"
//    5 
//    6 #include "af.h"
//    7 #include "DemoApp.h"
//    8 #include "tool.h"
//    9 #include "ModuleManager.h"
//   10 

        RSEG BANKED_CODE:CODE:NOROOT(0)
//   11 void ProtocolSend(uint8_t* data, uint8_t len){
ProtocolSend:
          CFI Block cfiBlock0 Using cfiCommon0
          CFI Function ProtocolSend
        CODE
        FUNCALL ProtocolSend, getModuleByModuleID
        LOCFRAME ISTACK, 0, STACK
        LOCFRAME PSTACK, 0, STACK
        LOCFRAME XSTACK, 30, STACK
        LOCFRAME IOVERLAY, 0, STATIC
        LOCFRAME DOVERLAY, 0, STATIC
        ARGFRAME ISTACK, 0, STACK
        ARGFRAME PSTACK, 0, STACK
        ARGFRAME XSTACK, 30, STACK
        ARGFRAME IOVERLAY, 0, STATIC
        ARGFRAME DOVERLAY, 0, STATIC
        FUNCALL ProtocolSend, App_GetepDesc
        LOCFRAME ISTACK, 0, STACK
        LOCFRAME PSTACK, 0, STACK
        LOCFRAME XSTACK, 30, STACK
        LOCFRAME IOVERLAY, 0, STATIC
        LOCFRAME DOVERLAY, 0, STATIC
        ARGFRAME ISTACK, 0, STACK
        ARGFRAME PSTACK, 0, STACK
        ARGFRAME XSTACK, 30, STACK
        ARGFRAME IOVERLAY, 0, STATIC
        ARGFRAME DOVERLAY, 0, STATIC
        FUNCALL ProtocolSend, AF_DataRequest
        LOCFRAME ISTACK, 0, STACK
        LOCFRAME PSTACK, 0, STACK
        LOCFRAME XSTACK, 39, STACK
        LOCFRAME IOVERLAY, 0, STATIC
        LOCFRAME DOVERLAY, 0, STATIC
        ARGFRAME ISTACK, 0, STACK
        ARGFRAME PSTACK, 0, STACK
        ARGFRAME XSTACK, 39, STACK
        ARGFRAME IOVERLAY, 0, STATIC
        ARGFRAME DOVERLAY, 0, STATIC
        REQUIRE ?V0
        REQUIRE ?V1
        REQUIRE ?V2
        REQUIRE ?V3
        MOV     A,#-0xc
        LCALL   ?BANKED_ENTER_XDATA
          CFI DPH0 load(1, XDATA, add(CFA_XSP16, literal(-1)))
          CFI DPL0 load(1, XDATA, add(CFA_XSP16, literal(-2)))
          CFI ?BRET_EXT load(1, XDATA, add(CFA_XSP16, literal(-3)))
          CFI ?RET_HIGH load(1, XDATA, add(CFA_XSP16, literal(-4)))
          CFI ?RET_LOW load(1, XDATA, add(CFA_XSP16, literal(-5)))
          CFI R7 load(1, XDATA, add(CFA_XSP16, literal(-6)))
          CFI V3 load(1, XDATA, add(CFA_XSP16, literal(-7)))
          CFI V2 load(1, XDATA, add(CFA_XSP16, literal(-8)))
          CFI V1 load(1, XDATA, add(CFA_XSP16, literal(-9)))
          CFI V0 load(1, XDATA, add(CFA_XSP16, literal(-10)))
          CFI VB load(1, XDATA, add(CFA_XSP16, literal(-11)))
          CFI R6 load(1, XDATA, add(CFA_XSP16, literal(-12)))
          CFI CFA_SP SP+0
          CFI CFA_XSP16 add(XSP16, 12)
        ; Saved register size: 12
        ; Auto size: 18
        MOV     A,#-0x12
        LCALL   ?ALLOC_XSTACK8
          CFI CFA_XSP16 add(XSP16, 30)
        MOV     ?V0,R2
        MOV     ?V1,R3
        MOV     A,R1
        MOV     R6,A
//   12   static byte TransID = 0;
//   13 //  printf("准备发送:%d\r\n",len);
//   14   //Protocol_Printf(data, len); 
//   15   ModuleBoard_T *module = getModuleByModuleID((MODULE)(data[3] & 0x0f));
        ; Setup parameters for call to function getModuleByModuleID
        MOV     DPL,R2
        MOV     DPH,R3
        INC     DPTR
        INC     DPTR
        INC     DPTR
        MOVX    A,@DPTR
        ANL     A,#0xf
        MOV     R1,A
        LCALL   `??getModuleByModuleID::?relay`; Banked call to: getModuleByModuleID
        MOV     ?V3,R3
        MOV     R1,?V3
//   16   afAddrType_t Protocol_DstAddr;  //地址描述符
//   17   endPointDesc_t Protocol_epDesc; //端点描述符 
//   18   
//   19   Protocol_DstAddr.addrMode = (afAddrMode_t)Addr16Bit;
        MOV     A,#0xe
        LCALL   ?XSTACK_DISP0_8
        MOV     A,#0x2
        MOVX    @DPTR,A
//   20   Protocol_DstAddr.endPoint = APP_ENDPOINT;
        MOV     A,#0xf
        LCALL   ?XSTACK_DISP0_8
        MOV     A,#0xa
        MOVX    @DPTR,A
//   21   Protocol_DstAddr.addr.shortAddr = module->ShortAddr;
        MOV     A,R2
        ADD     A,#0xb
        MOV     DPL,A
        CLR     A
        ADDC    A,R1
        MOV     DPH,A
        MOVX    A,@DPTR
        MOV     R0,A
        INC     DPTR
        MOVX    A,@DPTR
        MOV     R1,A
        MOV     A,#0x6
        LCALL   ?XSTACK_DISP0_8
        MOV     A,R0
        MOVX    @DPTR,A
        INC     DPTR
        MOV     A,R1
        MOVX    @DPTR,A
//   22  
//   23   Protocol_epDesc = App_GetepDesc();
        ; Setup parameters for call to function App_GetepDesc
        MOV     R2,?XSP + 0
        MOV     R3,?XSP + 1
        LCALL   `??App_GetepDesc::?relay`; Banked call to: App_GetepDesc
//   24   TransID++;
        MOV     DPTR,#??TransID
        MOVX    A,@DPTR
        INC     A
        MOVX    @DPTR,A
//   25   if ( AF_DataRequest( &Protocol_DstAddr, &Protocol_epDesc,
//   26                        APP_CLUSTERID,
//   27                        len,
//   28                        (byte *)data,
//   29                        &TransID,
//   30                        AF_ACK_REQUEST, AF_DEFAULT_RADIUS ) == afStatus_SUCCESS );
        ; Setup parameters for call to function AF_DataRequest
        MOV     ?V2,#0x1e
        MOV     R0,#?V2
        LCALL   ?PUSH_XSTACK_I_ONE
          CFI CFA_XSP16 add(XSP16, 31)
        MOV     ?V2,#??TransID & 0xff
        MOV     ?V3,#(??TransID >> 8) & 0xff
        MOV     R0,#?V2
        LCALL   ?PUSH_XSTACK_I_TWO
          CFI CFA_XSP16 add(XSP16, 33)
        MOV     R0,#?V0
        LCALL   ?PUSH_XSTACK_I_TWO
          CFI CFA_XSP16 add(XSP16, 35)
        MOV     ?V0,R6
        MOV     ?V1,#0x0
        MOV     R0,#?V0
        LCALL   ?PUSH_XSTACK_I_TWO
          CFI CFA_XSP16 add(XSP16, 37)
        MOV     ?V0,#0x1
        MOV     R0,#?V0
        LCALL   ?PUSH_XSTACK_I_TWO
          CFI CFA_XSP16 add(XSP16, 39)
        MOV     R1,#0x10
        MOV     A,#0x9
        LCALL   ?XSTACK_DISP102_8
        MOV     A,#0xf
        LCALL   ?XSTACK_DISP101_8
        LCALL   `??AF_DataRequest::?relay`; Banked call to: AF_DataRequest
        MOV     A,#0x9
        LCALL   ?DEALLOC_XSTACK8
          CFI CFA_XSP16 add(XSP16, 30)
//   31 
//   32 }
        MOV     A,#0x12
        LCALL   ?DEALLOC_XSTACK8
          CFI CFA_XSP16 add(XSP16, 12)
        MOV     R7,#0x4
        LJMP    ?BANKED_LEAVE_XDATA
          CFI EndBlock cfiBlock0

        RSEG XDATA_Z:XDATA:NOROOT(0)
        DATA8
??TransID:
        DS 1
        REQUIRE __INIT_XDATA_Z
//   33 
//   34 

        RSEG BANKED_CODE:CODE:NOROOT(0)
//   35 void Protocol_Init(){ 
Protocol_Init:
          CFI Block cfiBlock1 Using cfiCommon0
          CFI Function Protocol_Init
        CODE
        FUNCALL Protocol_Init, Protocol_Register
        LOCFRAME ISTACK, 2, STACK
        LOCFRAME PSTACK, 0, STACK
        LOCFRAME XSTACK, 12, STACK
        LOCFRAME IOVERLAY, 0, STATIC
        LOCFRAME DOVERLAY, 0, STATIC
        ARGFRAME ISTACK, 2, STACK
        ARGFRAME PSTACK, 0, STACK
        ARGFRAME XSTACK, 12, STACK
        ARGFRAME IOVERLAY, 0, STATIC
        ARGFRAME DOVERLAY, 0, STATIC
        FUNCALL Protocol_Init, Protocol_Register
        LOCFRAME ISTACK, 2, STACK
        LOCFRAME PSTACK, 0, STACK
        LOCFRAME XSTACK, 12, STACK
        LOCFRAME IOVERLAY, 0, STATIC
        LOCFRAME DOVERLAY, 0, STATIC
        ARGFRAME ISTACK, 2, STACK
        ARGFRAME PSTACK, 0, STACK
        ARGFRAME XSTACK, 12, STACK
        ARGFRAME IOVERLAY, 0, STATIC
        ARGFRAME DOVERLAY, 0, STATIC
        FUNCALL Protocol_Init, Protocol_Register
        LOCFRAME ISTACK, 2, STACK
        LOCFRAME PSTACK, 0, STACK
        LOCFRAME XSTACK, 12, STACK
        LOCFRAME IOVERLAY, 0, STATIC
        LOCFRAME DOVERLAY, 0, STATIC
        ARGFRAME ISTACK, 2, STACK
        ARGFRAME PSTACK, 0, STACK
        ARGFRAME XSTACK, 12, STACK
        ARGFRAME IOVERLAY, 0, STATIC
        ARGFRAME DOVERLAY, 0, STATIC
        FUNCALL Protocol_Init, Protocol_Register
        LOCFRAME ISTACK, 2, STACK
        LOCFRAME PSTACK, 0, STACK
        LOCFRAME XSTACK, 12, STACK
        LOCFRAME IOVERLAY, 0, STATIC
        LOCFRAME DOVERLAY, 0, STATIC
        ARGFRAME ISTACK, 2, STACK
        ARGFRAME PSTACK, 0, STACK
        ARGFRAME XSTACK, 12, STACK
        ARGFRAME IOVERLAY, 0, STATIC
        ARGFRAME DOVERLAY, 0, STATIC
        FUNCALL Protocol_Init, Protocol_Register
        LOCFRAME ISTACK, 2, STACK
        LOCFRAME PSTACK, 0, STACK
        LOCFRAME XSTACK, 12, STACK
        LOCFRAME IOVERLAY, 0, STATIC
        LOCFRAME DOVERLAY, 0, STATIC
        ARGFRAME ISTACK, 2, STACK
        ARGFRAME PSTACK, 0, STACK
        ARGFRAME XSTACK, 12, STACK
        ARGFRAME IOVERLAY, 0, STATIC
        ARGFRAME DOVERLAY, 0, STATIC
        FUNCALL Protocol_Init, Protocol_Register
        LOCFRAME ISTACK, 2, STACK
        LOCFRAME PSTACK, 0, STACK
        LOCFRAME XSTACK, 12, STACK
        LOCFRAME IOVERLAY, 0, STATIC
        LOCFRAME DOVERLAY, 0, STATIC
        ARGFRAME ISTACK, 2, STACK
        ARGFRAME PSTACK, 0, STACK
        ARGFRAME XSTACK, 12, STACK
        ARGFRAME IOVERLAY, 0, STATIC
        ARGFRAME DOVERLAY, 0, STATIC
        PUSH    DPL
          CFI DPL0 Frame(CFA_SP, 4)
          CFI CFA_SP SP+-4
        PUSH    DPH
          CFI DPH0 Frame(CFA_SP, 5)
          CFI CFA_SP SP+-5
        ; Saved register size: 2
        ; Auto size: 12
        MOV     A,#-0xc
        LCALL   ?ALLOC_XSTACK8
          CFI CFA_XSP16 add(XSP16, 12)
//   36 	PROTOCOL_DESC_T pdt; 
//   37         //公共协议初始化
//   38 	pdt.ProtocolSize = sizeof(HEARTBEAT_PROTOCOL_T);
        MOV     A,#0x4
        LCALL   ?XSTACK_DISP0_8
        MOV     A,#0x3
        LCALL   ??Subroutine3_0 & 0xFFFF
//   39 	pdt.ModuleAction = HEARTBEAT_PROTOCOL; 
??CrossCallReturnLabel_11:
        MOV     A,#0x31
        LCALL   ?Subroutine2 & 0xFFFF
//   40         pdt.send = ProtocolSend; 
??CrossCallReturnLabel_4:
        LCALL   ?XSTACK_DISP0_8
        LCALL   ?Subroutine0 & 0xFFFF
//   41 	Protocol_Register(&pdt, SEND);
??CrossCallReturnLabel_0:
        LCALL   `??Protocol_Register::?relay`; Banked call to: Protocol_Register
//   42 	
//   43         pdt.ProtocolSize = sizeof(STATE_PROTOCOL_T);
        MOV     A,#0x4
        LCALL   ?XSTACK_DISP0_8
        MOV     A,#0x1
        LCALL   ??Subroutine3_0 & 0xFFFF
//   44 	pdt.ModuleAction = STATE_PROTOCOL; 
??CrossCallReturnLabel_12:
        MOV     A,#0x20
        LCALL   ?Subroutine2 & 0xFFFF
//   45         pdt.send = ProtocolSend; 
??CrossCallReturnLabel_5:
        LCALL   ?XSTACK_DISP0_8
        LCALL   ?Subroutine0 & 0xFFFF
//   46 	Protocol_Register(&pdt, SEND);
??CrossCallReturnLabel_1:
        LCALL   `??Protocol_Register::?relay`; Banked call to: Protocol_Register
//   47         
//   48 	pdt.ProtocolSize = sizeof(ACK_PROTOCOL_T);
        MOV     A,#0x4
        LCALL   ?XSTACK_DISP0_8
        MOV     A,#0x1
        LCALL   ??Subroutine3_0 & 0xFFFF
//   49 	pdt.ModuleAction = ACK_PROTOCOL; 
??CrossCallReturnLabel_13:
        MOV     A,#-0x5f
        LCALL   ?Subroutine2 & 0xFFFF
//   50         pdt.send = ProtocolSend; 
??CrossCallReturnLabel_6:
        LCALL   ?XSTACK_DISP0_8
        LCALL   ?Subroutine0 & 0xFFFF
//   51 	Protocol_Register(&pdt, SEND);
??CrossCallReturnLabel_2:
        LCALL   `??Protocol_Register::?relay`; Banked call to: Protocol_Register
//   52         
//   53 	pdt.ProtocolSize = sizeof(ADDRREPORT_PROTOCOL_T);
        MOV     A,#0x4
        LCALL   ?XSTACK_DISP0_8
        LCALL   ?Subroutine1 & 0xFFFF
//   54 	pdt.ModuleAction = ADDRREPORT_PROTOCOL; 
??CrossCallReturnLabel_8:
        MOV     A,#-0x4f
        LCALL   ?Subroutine2 & 0xFFFF
//   55         pdt.send = ProtocolSend; 
??CrossCallReturnLabel_7:
        LCALL   ?XSTACK_DISP0_8
        LCALL   ?Subroutine0 & 0xFFFF
//   56 	Protocol_Register(&pdt, SEND);
??CrossCallReturnLabel_3:
        LCALL   `??Protocol_Register::?relay`; Banked call to: Protocol_Register
//   57 
//   58         
//   59         pdt.ProtocolSize = sizeof(CMD_PROTOCOL_T);
        MOV     A,#0x4
        LCALL   ?XSTACK_DISP0_8
        LCALL   ?Subroutine1 & 0xFFFF
//   60 	pdt.ModuleAction = CMD_PROTOCOL;  
??CrossCallReturnLabel_9:
        DEC     A
        MOVX    @DPTR,A
        INC     DPTR
        MOVX    @DPTR,A
//   61 	pdt.handle = Cmd_P_Handle;
        MOV     A,#0x8
        LCALL   ?XSTACK_DISP0_8
        MOV     A,#`??Cmd_P_Handle::?relay` & 0xff
        MOVX    @DPTR,A
        INC     DPTR
        MOV     A,#(`??Cmd_P_Handle::?relay` >> 8) & 0xff
        MOVX    @DPTR,A
//   62 	Protocol_Register(&pdt, RECEIVE);
        ; Setup parameters for call to function Protocol_Register
        MOV     R1,#0x1
        MOV     R2,?XSP + 0
        MOV     R3,?XSP + 1
        LCALL   `??Protocol_Register::?relay`; Banked call to: Protocol_Register
//   63 	
//   64         pdt.ProtocolSize = sizeof(STATEGET_PROTOCOL_T);
        MOV     A,#0x4
        LCALL   ?XSTACK_DISP0_8
        LCALL   ?Subroutine1 & 0xFFFF
//   65 	pdt.ModuleAction = STATEGET_PROTOCOL;  
??CrossCallReturnLabel_10:
        MOVX    @DPTR,A
        INC     DPTR
        DEC     A
        MOVX    @DPTR,A
//   66 	pdt.handle = StateGet_P_Handle;
        MOV     A,#0x8
        LCALL   ?XSTACK_DISP0_8
        MOV     A,#`??StateGet_P_Handle::?relay` & 0xff
        MOVX    @DPTR,A
        INC     DPTR
        MOV     A,#(`??StateGet_P_Handle::?relay` >> 8) & 0xff
        MOVX    @DPTR,A
//   67 	Protocol_Register(&pdt, RECEIVE);
        ; Setup parameters for call to function Protocol_Register
        MOV     R1,#0x1
        MOV     R2,?XSP + 0
        MOV     R3,?XSP + 1
        LCALL   `??Protocol_Register::?relay`; Banked call to: Protocol_Register
//   68         
//   69         //特有协议初始化	
//   70 
//   71 }
        MOV     A,#0xc
        LCALL   ?DEALLOC_XSTACK8
          CFI CFA_XSP16 XSP16+0
        POP     DPH
          CFI DPH0 SameValue
          CFI CFA_SP SP+-4
        POP     DPL
          CFI DPL0 SameValue
          CFI CFA_SP SP+-3
        LJMP    ?BRET
          CFI EndBlock cfiBlock1

        RSEG BANKED_CODE:CODE:NOROOT(0)
?Subroutine2:
          CFI Block cfiCond2 Using cfiCommon0
          CFI Function Protocol_Init
          CFI Conditional ??CrossCallReturnLabel_4
          CFI DPL0 Frame(CFA_SP, 4)
          CFI DPH0 Frame(CFA_SP, 5)
          CFI CFA_SP SP+-7
          CFI CFA_XSP16 add(XSP16, 12)
          CFI Block cfiCond3 Using cfiCommon0
          CFI (cfiCond3) Function Protocol_Init
          CFI (cfiCond3) Conditional ??CrossCallReturnLabel_5
          CFI (cfiCond3) DPL0 Frame(CFA_SP, 4)
          CFI (cfiCond3) DPH0 Frame(CFA_SP, 5)
          CFI (cfiCond3) CFA_SP SP+-7
          CFI (cfiCond3) CFA_XSP16 add(XSP16, 12)
          CFI Block cfiCond4 Using cfiCommon0
          CFI (cfiCond4) Function Protocol_Init
          CFI (cfiCond4) Conditional ??CrossCallReturnLabel_6
          CFI (cfiCond4) DPL0 Frame(CFA_SP, 4)
          CFI (cfiCond4) DPH0 Frame(CFA_SP, 5)
          CFI (cfiCond4) CFA_SP SP+-7
          CFI (cfiCond4) CFA_XSP16 add(XSP16, 12)
          CFI Block cfiCond5 Using cfiCommon0
          CFI (cfiCond5) Function Protocol_Init
          CFI (cfiCond5) Conditional ??CrossCallReturnLabel_7
          CFI (cfiCond5) DPL0 Frame(CFA_SP, 4)
          CFI (cfiCond5) DPH0 Frame(CFA_SP, 5)
          CFI (cfiCond5) CFA_SP SP+-7
          CFI (cfiCond5) CFA_XSP16 add(XSP16, 12)
          CFI Block cfiPicker6 Using cfiCommon1
          CFI (cfiPicker6) NoFunction
          CFI (cfiPicker6) Picker
        MOVX    @DPTR,A
        INC     DPTR
        MOV     A,#0x10
        MOVX    @DPTR,A
        MOV     A,#0x6
        RET
          CFI EndBlock cfiCond2
          CFI EndBlock cfiCond3
          CFI EndBlock cfiCond4
          CFI EndBlock cfiCond5
          CFI EndBlock cfiPicker6

        RSEG BANKED_CODE:CODE:NOROOT(0)
?Subroutine1:
          CFI Block cfiCond7 Using cfiCommon0
          CFI Function Protocol_Init
          CFI Conditional ??CrossCallReturnLabel_8
          CFI DPL0 Frame(CFA_SP, 4)
          CFI DPH0 Frame(CFA_SP, 5)
          CFI CFA_SP SP+-7
          CFI CFA_XSP16 add(XSP16, 12)
          CFI Block cfiCond8 Using cfiCommon0
          CFI (cfiCond8) Function Protocol_Init
          CFI (cfiCond8) Conditional ??CrossCallReturnLabel_9
          CFI (cfiCond8) DPL0 Frame(CFA_SP, 4)
          CFI (cfiCond8) DPH0 Frame(CFA_SP, 5)
          CFI (cfiCond8) CFA_SP SP+-7
          CFI (cfiCond8) CFA_XSP16 add(XSP16, 12)
          CFI Block cfiCond9 Using cfiCommon0
          CFI (cfiCond9) Function Protocol_Init
          CFI (cfiCond9) Conditional ??CrossCallReturnLabel_10
          CFI (cfiCond9) DPL0 Frame(CFA_SP, 4)
          CFI (cfiCond9) DPH0 Frame(CFA_SP, 5)
          CFI (cfiCond9) CFA_SP SP+-7
          CFI (cfiCond9) CFA_XSP16 add(XSP16, 12)
          CFI Block cfiPicker10 Using cfiCommon1
          CFI (cfiPicker10) NoFunction
          CFI (cfiPicker10) Picker
        MOV     A,#0x2
          CFI EndBlock cfiCond7
          CFI EndBlock cfiCond8
          CFI EndBlock cfiCond9
          CFI EndBlock cfiPicker10
        REQUIRE ??Subroutine3_0
        ; // Fall through to label ??Subroutine3_0

        RSEG BANKED_CODE:CODE:NOROOT(0)
??Subroutine3_0:
          CFI Block cfiCond11 Using cfiCommon0
          CFI Function Protocol_Init
          CFI Conditional ??CrossCallReturnLabel_11
          CFI DPL0 Frame(CFA_SP, 4)
          CFI DPH0 Frame(CFA_SP, 5)
          CFI CFA_SP SP+-7
          CFI CFA_XSP16 add(XSP16, 12)
          CFI Block cfiCond12 Using cfiCommon0
          CFI (cfiCond12) Function Protocol_Init
          CFI (cfiCond12) Conditional ??CrossCallReturnLabel_12
          CFI (cfiCond12) DPL0 Frame(CFA_SP, 4)
          CFI (cfiCond12) DPH0 Frame(CFA_SP, 5)
          CFI (cfiCond12) CFA_SP SP+-7
          CFI (cfiCond12) CFA_XSP16 add(XSP16, 12)
          CFI Block cfiCond13 Using cfiCommon0
          CFI (cfiCond13) Function Protocol_Init
          CFI (cfiCond13) Conditional ??CrossCallReturnLabel_13
          CFI (cfiCond13) DPL0 Frame(CFA_SP, 4)
          CFI (cfiCond13) DPH0 Frame(CFA_SP, 5)
          CFI (cfiCond13) CFA_SP SP+-7
          CFI (cfiCond13) CFA_XSP16 add(XSP16, 12)
          CFI Block cfiCond14 Using cfiCommon0
          CFI (cfiCond14) Function Protocol_Init
          CFI (cfiCond14) Conditional ??CrossCallReturnLabel_8
          CFI (cfiCond14) DPL0 Frame(CFA_SP, 4)
          CFI (cfiCond14) DPH0 Frame(CFA_SP, 5)
          CFI (cfiCond14) CFA_SP SP+-7
          CFI (cfiCond14) CFA_XSP16 add(XSP16, 12)
          CFI Block cfiCond15 Using cfiCommon0
          CFI (cfiCond15) Function Protocol_Init
          CFI (cfiCond15) Conditional ??CrossCallReturnLabel_9
          CFI (cfiCond15) DPL0 Frame(CFA_SP, 4)
          CFI (cfiCond15) DPH0 Frame(CFA_SP, 5)
          CFI (cfiCond15) CFA_SP SP+-7
          CFI (cfiCond15) CFA_XSP16 add(XSP16, 12)
          CFI Block cfiCond16 Using cfiCommon0
          CFI (cfiCond16) Function Protocol_Init
          CFI (cfiCond16) Conditional ??CrossCallReturnLabel_10
          CFI (cfiCond16) DPL0 Frame(CFA_SP, 4)
          CFI (cfiCond16) DPH0 Frame(CFA_SP, 5)
          CFI (cfiCond16) CFA_SP SP+-7
          CFI (cfiCond16) CFA_XSP16 add(XSP16, 12)
          CFI Block cfiPicker17 Using cfiCommon1
          CFI (cfiPicker17) NoFunction
          CFI (cfiPicker17) Picker
        MOVX    @DPTR,A
        MOV     DPL,?XSP + 0
        MOV     DPH,?XSP + 1
        RET
          CFI EndBlock cfiCond11
          CFI EndBlock cfiCond12
          CFI EndBlock cfiCond13
          CFI EndBlock cfiCond14
          CFI EndBlock cfiCond15
          CFI EndBlock cfiCond16
          CFI EndBlock cfiPicker17

        RSEG BANKED_CODE:CODE:NOROOT(0)
?Subroutine0:
          CFI Block cfiCond18 Using cfiCommon0
          CFI Function Protocol_Init
          CFI Conditional ??CrossCallReturnLabel_0
          CFI DPL0 Frame(CFA_SP, 4)
          CFI DPH0 Frame(CFA_SP, 5)
          CFI CFA_SP SP+-7
          CFI CFA_XSP16 add(XSP16, 12)
          CFI Block cfiCond19 Using cfiCommon0
          CFI (cfiCond19) Function Protocol_Init
          CFI (cfiCond19) Conditional ??CrossCallReturnLabel_1
          CFI (cfiCond19) DPL0 Frame(CFA_SP, 4)
          CFI (cfiCond19) DPH0 Frame(CFA_SP, 5)
          CFI (cfiCond19) CFA_SP SP+-7
          CFI (cfiCond19) CFA_XSP16 add(XSP16, 12)
          CFI Block cfiCond20 Using cfiCommon0
          CFI (cfiCond20) Function Protocol_Init
          CFI (cfiCond20) Conditional ??CrossCallReturnLabel_2
          CFI (cfiCond20) DPL0 Frame(CFA_SP, 4)
          CFI (cfiCond20) DPH0 Frame(CFA_SP, 5)
          CFI (cfiCond20) CFA_SP SP+-7
          CFI (cfiCond20) CFA_XSP16 add(XSP16, 12)
          CFI Block cfiCond21 Using cfiCommon0
          CFI (cfiCond21) Function Protocol_Init
          CFI (cfiCond21) Conditional ??CrossCallReturnLabel_3
          CFI (cfiCond21) DPL0 Frame(CFA_SP, 4)
          CFI (cfiCond21) DPH0 Frame(CFA_SP, 5)
          CFI (cfiCond21) CFA_SP SP+-7
          CFI (cfiCond21) CFA_XSP16 add(XSP16, 12)
          CFI Block cfiPicker22 Using cfiCommon1
          CFI (cfiPicker22) NoFunction
          CFI (cfiPicker22) Picker
        MOV     A,#`??ProtocolSend::?relay` & 0xff
        MOVX    @DPTR,A
        INC     DPTR
        MOV     A,#(`??ProtocolSend::?relay` >> 8) & 0xff
        MOVX    @DPTR,A
        ; Setup parameters for call to function Protocol_Register
        ; Setup parameters for call to function Protocol_Register
        ; Setup parameters for call to function Protocol_Register
        ; Setup parameters for call to function Protocol_Register
        MOV     R1,#0x0
        MOV     R2,?XSP + 0
        MOV     R3,?XSP + 1
        RET
          CFI EndBlock cfiCond18
          CFI EndBlock cfiCond19
          CFI EndBlock cfiCond20
          CFI EndBlock cfiCond21
          CFI EndBlock cfiPicker22

        RSEG BANK_RELAYS:CODE:REORDER:NOROOT(0)
`??ProtocolSend::?relay`:
        CODE
        LCALL   ?BDISPATCH
        DATA24
        DC24    ProtocolSend

        RSEG BANK_RELAYS:CODE:REORDER:NOROOT(0)
`??Protocol_Init::?relay`:
        CODE
        LCALL   ?BDISPATCH
        DATA24
        DC24    Protocol_Init

        END
//   72 
// 
// 372 bytes in segment BANKED_CODE
//  12 bytes in segment BANK_RELAYS
//   1 byte  in segment XDATA_Z
// 
// 384 bytes of CODE  memory
//   1 byte  of XDATA memory
//
//Errors: none
//Warnings: none
