///////////////////////////////////////////////////////////////////////////////
//
// IAR C/C++ Compiler V9.30.1.3056 for 8051               20/Oct/2016  09:33:48
// Copyright 2004-2015 IAR Systems AB.
// Standalone license - IAR Embedded Workbench for 8051
//
//    Core               =  plain
//    Code model         =  banked
//    Data model         =  large
//    Calling convention =  xdata reentrant
//    Constant location  =  data_rom
//    Dptr setup         =  1,16
//                          
//    Source file        =  
//        E:\资源(G：)\#个人项目\ZigbeeProject\Z-Stack Mesh
//        1.0.0\Components\stack\af\AF.c
//    Command line       =  
//        -f "E:\资源(G：)\#个人项目\ZigbeeProject\Z-Stack Mesh
//        1.0.0\Projects\zstack\Samples\Demo_App_V1.4饮水机控制 -
//        副本\CC2530DB\..\..\..\Tools\CC2530DB\f8wEndev.cfg" (-DCPU32MHZ
//        -DROOT=__near_func -DMAC_CFG_TX_DATA_MAX=3 -DMAC_CFG_TX_MAX=6
//        -DMAC_CFG_RX_MAX=3) -f "E:\资源(G：)\#个人项目\ZigbeeProject\Z-Stack
//        Mesh 1.0.0\Projects\zstack\Samples\Demo_App_V1.4饮水机控制 -
//        副本\CC2530DB\..\..\..\Tools\CC2530DB\f8wConfig.cfg" (-DZIGBEEPRO
//        -DSECURE=1 -DZG_SECURE_DYNAMIC=0 -DREFLECTOR
//        -DDEFAULT_CHANLIST=0x00000800 -DZDAPP_CONFIG_PAN_ID=0xFFFF
//        -DNWK_START_DELAY=100 -DEXTENDED_JOINING_RANDOM_MASK=0x007F
//        -DBEACON_REQUEST_DELAY=100 -DBEACON_REQ_DELAY_MASK=0x00FF
//        -DLINK_STATUS_JITTER_MASK=0x007F -DROUTE_EXPIRY_TIME=30
//        -DAPSC_ACK_WAIT_DURATION_POLLED=3000 -DNWK_INDIRECT_MSG_TIMEOUT=7
//        -DMAX_RREQ_ENTRIES=8 -DAPSC_MAX_FRAME_RETRIES=3
//        -DNWK_MAX_DATA_RETRIES=2 -DMAX_POLL_FAILURE_RETRIES=2 -DMAX_BCAST=9
//        -DAPS_MAX_GROUPS=16 -DMAX_RTG_ENTRIES=40 -DNWK_MAX_BINDING_ENTRIES=4
//        -DMAX_BINDING_CLUSTER_IDS=4 "-DDEFAULT_KEY={0x01, 0x03, 0x05, 0x07,
//        0x09, 0x0B, 0x0D, 0x0F, 0x00, 0x02, 0x04, 0x06, 0x08, 0x0A, 0x0C,
//        0x0D}" -DMAC_MAX_FRAME_SIZE=116 -DZDNWKMGR_MIN_TRANSMISSIONS=20
//        "-DCONST=const __code" -DGENERIC=__generic -DRFD_RCVC_ALWAYS_ON=FALSE
//        -DPOLL_RATE=100 -DQUEUED_POLL_RATE=100 -DRESPONSE_POLL_RATE=100)
//        -DREJOIN_POLL_RATE=440 "E:\资源(G：)\#个人项目\ZigbeeProject\Z-Stack
//        Mesh 1.0.0\Components\stack\af\AF.c" -D LOG_OUT -D
//        UART1_PROTOCOL_RESOLVER=1 -D xISQC -D NWK_AUTO_POLL -D ZTOOL_P1 -D
//        ISR_KEYINTERRUPT -D xMT_TASK -D xMT_SYS_FUNC -D xMT_ZDO_FUNC -D
//        xLCD_SUPPORTED=DEBUG -D xPOWER_SAVING -lC
//        "E:\资源(G：)\#个人项目\ZigbeeProject\Z-Stack Mesh
//        1.0.0\Projects\zstack\Samples\Demo_App_V1.4饮水机控制 -
//        副本\CC2530DB\WaterMachine\List" -lA
//        "E:\资源(G：)\#个人项目\ZigbeeProject\Z-Stack Mesh
//        1.0.0\Projects\zstack\Samples\Demo_App_V1.4饮水机控制 -
//        副本\CC2530DB\WaterMachine\List" --diag_suppress Pe001,Pa010 -o
//        "E:\资源(G：)\#个人项目\ZigbeeProject\Z-Stack Mesh
//        1.0.0\Projects\zstack\Samples\Demo_App_V1.4饮水机控制 -
//        副本\CC2530DB\WaterMachine\Obj" -e --no_code_motion --debug
//        --core=plain --dptr=16,1 --data_model=large --code_model=banked
//        --calling_convention=xdata_reentrant --place_constants=data_rom
//        --nr_virtual_regs 8 -I "E:\资源(G：)\#个人项目\ZigbeeProject\Z-Stack
//        Mesh 1.0.0\Projects\zstack\Samples\Demo_App_V1.4饮水机控制 -
//        副本\CC2530DB\" -I "E:\资源(G：)\#个人项目\ZigbeeProject\Z-Stack Mesh
//        1.0.0\Projects\zstack\Samples\Demo_App_V1.4饮水机控制 -
//        副本\CC2530DB\..\Source\" -I
//        "E:\资源(G：)\#个人项目\ZigbeeProject\Z-Stack Mesh
//        1.0.0\Projects\zstack\Samples\Demo_App_V1.4饮水机控制 -
//        副本\CC2530DB\..\Frame\" -I
//        "E:\资源(G：)\#个人项目\ZigbeeProject\Z-Stack Mesh
//        1.0.0\Projects\zstack\Samples\Demo_App_V1.4饮水机控制 -
//        副本\CC2530DB\..\Module\WaterMachine\" -I
//        "E:\资源(G：)\#个人项目\ZigbeeProject\Z-Stack Mesh
//        1.0.0\Projects\zstack\Samples\Demo_App_V1.4饮水机控制 -
//        副本\CC2530DB\..\..\..\ZMain\TI2530DB\" -I
//        "E:\资源(G：)\#个人项目\ZigbeeProject\Z-Stack Mesh
//        1.0.0\Projects\zstack\Samples\Demo_App_V1.4饮水机控制 -
//        副本\CC2530DB\..\..\..\..\..\Components\hal\include\" -I
//        "E:\资源(G：)\#个人项目\ZigbeeProject\Z-Stack Mesh
//        1.0.0\Projects\zstack\Samples\Demo_App_V1.4饮水机控制 -
//        副本\CC2530DB\..\..\..\..\..\Components\hal\target\CC2530EB\" -I
//        "E:\资源(G：)\#个人项目\ZigbeeProject\Z-Stack Mesh
//        1.0.0\Projects\zstack\Samples\Demo_App_V1.4饮水机控制 -
//        副本\CC2530DB\..\..\..\..\..\Components\mac\include\" -I
//        "E:\资源(G：)\#个人项目\ZigbeeProject\Z-Stack Mesh
//        1.0.0\Projects\zstack\Samples\Demo_App_V1.4饮水机控制 -
//        副本\CC2530DB\..\..\..\..\..\Components\mac\high_level\" -I
//        "E:\资源(G：)\#个人项目\ZigbeeProject\Z-Stack Mesh
//        1.0.0\Projects\zstack\Samples\Demo_App_V1.4饮水机控制 -
//        副本\CC2530DB\..\..\..\..\..\Components\mac\low_level\srf04\" -I
//        "E:\资源(G：)\#个人项目\ZigbeeProject\Z-Stack Mesh
//        1.0.0\Projects\zstack\Samples\Demo_App_V1.4饮水机控制 -
//        副本\CC2530DB\..\..\..\..\..\Components\mac\low_level\srf04\single_chip\"
//        -I "E:\资源(G：)\#个人项目\ZigbeeProject\Z-Stack Mesh
//        1.0.0\Projects\zstack\Samples\Demo_App_V1.4饮水机控制 -
//        副本\CC2530DB\..\..\..\..\..\Components\mt\" -I
//        "E:\资源(G：)\#个人项目\ZigbeeProject\Z-Stack Mesh
//        1.0.0\Projects\zstack\Samples\Demo_App_V1.4饮水机控制 -
//        副本\CC2530DB\..\..\..\..\..\Components\osal\include\" -I
//        "E:\资源(G：)\#个人项目\ZigbeeProject\Z-Stack Mesh
//        1.0.0\Projects\zstack\Samples\Demo_App_V1.4饮水机控制 -
//        副本\CC2530DB\..\..\..\..\..\Components\services\saddr\" -I
//        "E:\资源(G：)\#个人项目\ZigbeeProject\Z-Stack Mesh
//        1.0.0\Projects\zstack\Samples\Demo_App_V1.4饮水机控制 -
//        副本\CC2530DB\..\..\..\..\..\Components\services\sdata\" -I
//        "E:\资源(G：)\#个人项目\ZigbeeProject\Z-Stack Mesh
//        1.0.0\Projects\zstack\Samples\Demo_App_V1.4饮水机控制 -
//        副本\CC2530DB\..\..\..\..\..\Components\stack\af\" -I
//        "E:\资源(G：)\#个人项目\ZigbeeProject\Z-Stack Mesh
//        1.0.0\Projects\zstack\Samples\Demo_App_V1.4饮水机控制 -
//        副本\CC2530DB\..\..\..\..\..\Components\stack\nwk\" -I
//        "E:\资源(G：)\#个人项目\ZigbeeProject\Z-Stack Mesh
//        1.0.0\Projects\zstack\Samples\Demo_App_V1.4饮水机控制 -
//        副本\CC2530DB\..\..\..\..\..\Components\stack\sapi\" -I
//        "E:\资源(G：)\#个人项目\ZigbeeProject\Z-Stack Mesh
//        1.0.0\Projects\zstack\Samples\Demo_App_V1.4饮水机控制 -
//        副本\CC2530DB\..\..\..\..\..\Components\stack\sec\" -I
//        "E:\资源(G：)\#个人项目\ZigbeeProject\Z-Stack Mesh
//        1.0.0\Projects\zstack\Samples\Demo_App_V1.4饮水机控制 -
//        副本\CC2530DB\..\..\..\..\..\Components\stack\sys\" -I
//        "E:\资源(G：)\#个人项目\ZigbeeProject\Z-Stack Mesh
//        1.0.0\Projects\zstack\Samples\Demo_App_V1.4饮水机控制 -
//        副本\CC2530DB\..\..\..\..\..\Components\stack\zdo\" -I
//        "E:\资源(G：)\#个人项目\ZigbeeProject\Z-Stack Mesh
//        1.0.0\Projects\zstack\Samples\Demo_App_V1.4饮水机控制 -
//        副本\CC2530DB\..\..\..\..\..\Components\zmac\" -I
//        "E:\资源(G：)\#个人项目\ZigbeeProject\Z-Stack Mesh
//        1.0.0\Projects\zstack\Samples\Demo_App_V1.4饮水机控制 -
//        副本\CC2530DB\..\..\..\..\..\Components\zmac\f8w\" -Ohz
//    List file          =  
//        E:\资源(G：)\#个人项目\ZigbeeProject\Z-Stack Mesh
//        1.0.0\Projects\zstack\Samples\Demo_App_V1.4饮水机控制 -
//        副本\CC2530DB\WaterMachine\List\AF.s51
//
///////////////////////////////////////////////////////////////////////////////

        NAME AF

        RTMODEL "__SystemLibrary", "CLib"
        RTMODEL "__calling_convention", "xdata_reentrant"
        RTMODEL "__code_model", "banked"
        RTMODEL "__core", "plain"
        RTMODEL "__data_model", "large"
        RTMODEL "__dptr_size", "16"
        RTMODEL "__extended_stack", "disabled"
        RTMODEL "__location_for_constants", "data"
        RTMODEL "__number_of_dptrs", "1"
        RTMODEL "__rt_version", "1"

        RSEG DOVERLAY:DATA:NOROOT(0)
        RSEG IOVERLAY:IDATA:NOROOT(0)
        RSEG ISTACK:IDATA:NOROOT(0)
        RSEG PSTACK:XDATA:NOROOT(0)
        RSEG XSTACK:XDATA:NOROOT(0)

        EXTERN ?V0
        EXTERN ?V1
        EXTERN ?V2
        EXTERN ?V3
        EXTERN ?V4
        EXTERN ?V5
        EXTERN ?V6
        EXTERN ?V7
        EXTERN ?ALLOC_XSTACK8
        EXTERN ?BANKED_ENTER_XDATA
        EXTERN ?BANKED_LEAVE_XDATA
        EXTERN ?BDISPATCH
        EXTERN ?BRET
        EXTERN ?CALL_IND
        EXTERN ?DEALLOC_XSTACK8
        EXTERN ?L_MOV_X
        EXTERN ?PUSH_XSTACK8_X_TWO
        EXTERN ?PUSH_XSTACK_I_FOUR
        EXTERN ?PUSH_XSTACK_I_ONE
        EXTERN ?PUSH_XSTACK_I_THREE
        EXTERN ?PUSH_XSTACK_I_TWO
        EXTERN ?XLOAD_R0123
        EXTERN ?XSP
        EXTERN ?XSTACK_DISP0_8
        EXTERN ?XSTACK_DISP101_8
        EXTERN ?XSTORE_R0123
        EXTERN __INIT_XDATA_I
        EXTERN __INIT_XDATA_Z

        PUBLIC `??AF_DataRequest::?relay`
        FUNCTION `??AF_DataRequest::?relay`,0203H
        PUBLIC `??AF_DataRequestSrcRtg::?relay`
        FUNCTION `??AF_DataRequestSrcRtg::?relay`,0203H
        PUBLIC `??afAPSF_ConfigGet::?relay`
        FUNCTION `??afAPSF_ConfigGet::?relay`,0203H
        PUBLIC `??afAPSF_ConfigSet::?relay`
        FUNCTION `??afAPSF_ConfigSet::?relay`,0203H
        FUNCTION `??afBuildMSGIncoming::?relay`,0203H
        PUBLIC `??afCopyAddress::?relay`
        FUNCTION `??afCopyAddress::?relay`,0203H
        PUBLIC `??afDataConfirm::?relay`
        FUNCTION `??afDataConfirm::?relay`,0203H
        PUBLIC `??afDataReqMTU::?relay`
        FUNCTION `??afDataReqMTU::?relay`,0203H
        PUBLIC `??afDelete::?relay`
        FUNCTION `??afDelete::?relay`,0203H
        PUBLIC `??afEndPoints::?relay`
        FUNCTION `??afEndPoints::?relay`,0203H
        PUBLIC `??afFindEndPointDesc::?relay`
        FUNCTION `??afFindEndPointDesc::?relay`,0203H
        FUNCTION `??afFindEndPointDescList::?relay`,0203H
        PUBLIC `??afFindSimpleDesc::?relay`
        FUNCTION `??afFindSimpleDesc::?relay`,0203H
        PUBLIC `??afGetMatch::?relay`
        FUNCTION `??afGetMatch::?relay`,0203H
        PUBLIC `??afIncomingData::?relay`
        FUNCTION `??afIncomingData::?relay`,0203H
        PUBLIC `??afNumEndPoints::?relay`
        FUNCTION `??afNumEndPoints::?relay`,0203H
        PUBLIC `??afReflectError::?relay`
        FUNCTION `??afReflectError::?relay`,0203H
        PUBLIC `??afRegister::?relay`
        FUNCTION `??afRegister::?relay`,0203H
        PUBLIC `??afRegisterExtended::?relay`
        FUNCTION `??afRegisterExtended::?relay`,0203H
        PUBLIC `??afSetApplCB::?relay`
        FUNCTION `??afSetApplCB::?relay`,0203H
        PUBLIC `??afSetMatch::?relay`
        FUNCTION `??afSetMatch::?relay`,0203H
        PUBLIC AF_DataRequest
        FUNCTION AF_DataRequest,0a1203H
        ARGFRAME XSTACK, 21, STACK
        ARGFRAME IOVERLAY, 0, STATIC
        ARGFRAME DOVERLAY, 0, STATIC
        LOCFRAME ISTACK, 1, STACK
        LOCFRAME XSTACK, 46, STACK
        PUBLIC AF_DataRequestDiscoverRoute
        PUBLIC AF_DataRequestSrcRtg
        FUNCTION AF_DataRequestSrcRtg,0a1203H
        ARGFRAME XSTACK, 12, STACK
        LOCFRAME XSTACK, 21, STACK
        PUBLIC afAPSF_ConfigGet
        FUNCTION afAPSF_ConfigGet,0a1203H
        ARGFRAME XSTACK, 0, STACK
        LOCFRAME XSTACK, 15, STACK
        PUBLIC afAPSF_ConfigSet
        FUNCTION afAPSF_ConfigSet,0a1203H
        ARGFRAME XSTACK, 0, STACK
        LOCFRAME XSTACK, 18, STACK
        FUNCTION afBuildMSGIncoming,0a1203H
        ARGFRAME XSTACK, 37, STACK
        ARGFRAME IOVERLAY, 0, STATIC
        ARGFRAME DOVERLAY, 0, STATIC
        LOCFRAME ISTACK, 1, STACK
        LOCFRAME XSTACK, 20, STACK
        PUBLIC afCopyAddress
        FUNCTION afCopyAddress,021203H
        ARGFRAME XSTACK, 17, STACK
        ARGFRAME IOVERLAY, 0, STATIC
        ARGFRAME DOVERLAY, 0, STATIC
        LOCFRAME ISTACK, 1, STACK
        LOCFRAME XSTACK, 9, STACK
        PUBLIC afDataConfirm
        FUNCTION afDataConfirm,0a1203H
        ARGFRAME XSTACK, 46, STACK
        ARGFRAME IOVERLAY, 0, STATIC
        ARGFRAME DOVERLAY, 0, STATIC
        LOCFRAME ISTACK, 1, STACK
        LOCFRAME XSTACK, 14, STACK
        PUBLIC afDataReqMTU
        FUNCTION afDataReqMTU,021203H
        ARGFRAME XSTACK, 46, STACK
        ARGFRAME IOVERLAY, 0, STATIC
        ARGFRAME DOVERLAY, 0, STATIC
        LOCFRAME XSTACK, 9, STACK
        PUBLIC afDelete
        FUNCTION afDelete,021203H
        ARGFRAME XSTACK, 0, STACK
        LOCFRAME XSTACK, 9, STACK
        PUBLIC afEndPoints
        FUNCTION afEndPoints,0203H
        ARGFRAME XSTACK, 0, STACK
        LOCFRAME ISTACK, 3, STACK
        PUBLIC afFindEndPointDesc
        FUNCTION afFindEndPointDesc,0a1203H
        ARGFRAME XSTACK, 25, STACK
        ARGFRAME IOVERLAY, 0, STATIC
        ARGFRAME DOVERLAY, 0, STATIC
        LOCFRAME XSTACK, 10, STACK
        FUNCTION afFindEndPointDescList,0203H
        ARGFRAME XSTACK, 46, STACK
        ARGFRAME IOVERLAY, 0, STATIC
        ARGFRAME DOVERLAY, 0, STATIC
        LOCFRAME ISTACK, 2, STACK
        PUBLIC afFindSimpleDesc
        FUNCTION afFindSimpleDesc,0a1203H
        ARGFRAME XSTACK, 0, STACK
        LOCFRAME XSTACK, 12, STACK
        PUBLIC afGetMatch
        FUNCTION afGetMatch,0a1203H
        ARGFRAME XSTACK, 0, STACK
        LOCFRAME XSTACK, 10, STACK
        PUBLIC afIncomingData
        FUNCTION afIncomingData,0a1203H
        ARGFRAME XSTACK, 10, STACK
        LOCFRAME ISTACK, 1, STACK
        LOCFRAME XSTACK, 37, STACK
        PUBLIC afNumEndPoints
        FUNCTION afNumEndPoints,0203H
        ARGFRAME XSTACK, 0, STACK
        LOCFRAME ISTACK, 2, STACK
        PUBLIC afReflectError
        FUNCTION afReflectError,0a1203H
        ARGFRAME XSTACK, 1, STACK
        LOCFRAME ISTACK, 1, STACK
        LOCFRAME XSTACK, 16, STACK
        PUBLIC afRegister
        FUNCTION afRegister,0a1203H
        ARGFRAME XSTACK, 0, STACK
        LOCFRAME XSTACK, 12, STACK
        PUBLIC afRegisterExtended
        FUNCTION afRegisterExtended,0a1203H
        ARGFRAME XSTACK, 12, STACK
        ARGFRAME IOVERLAY, 0, STATIC
        ARGFRAME DOVERLAY, 0, STATIC
        LOCFRAME XSTACK, 12, STACK
        PUBLIC afSetApplCB
        FUNCTION afSetApplCB,0a1203H
        ARGFRAME XSTACK, 0, STACK
        LOCFRAME XSTACK, 12, STACK
        PUBLIC afSetMatch
        FUNCTION afSetMatch,0a1203H
        ARGFRAME XSTACK, 0, STACK
        LOCFRAME XSTACK, 10, STACK
        PUBLIC epList
        
          CFI Names cfiNames0
          CFI StackFrame CFA_SP SP IDATA
          CFI StackFrame CFA_PSP16 PSP16 XDATA
          CFI StackFrame CFA_XSP16 XSP16 XDATA
          CFI StaticOverlayFrame CFA_IOVERLAY IOVERLAY
          CFI StaticOverlayFrame CFA_DOVERLAY DOVERLAY
          CFI Resource `PSW.CY`:1, `B.BR0`:1, `B.BR1`:1, `B.BR2`:1, `B.BR3`:1
          CFI Resource `B.BR4`:1, `B.BR5`:1, `B.BR6`:1, `B.BR7`:1, `VB.BR8`:1
          CFI Resource `VB.BR9`:1, `VB.BR10`:1, `VB.BR11`:1, `VB.BR12`:1
          CFI Resource `VB.BR13`:1, `VB.BR14`:1, `VB.BR15`:1, VB:8, B:8, A:8
          CFI Resource PSW:8, DPL0:8, DPH0:8, R0:8, R1:8, R2:8, R3:8, R4:8, R5:8
          CFI Resource R6:8, R7:8, V0:8, V1:8, V2:8, V3:8, V4:8, V5:8, V6:8, V7:8
          CFI Resource SP:8, PSPH:8, PSPL:8, PSP16:16, XSPH:8, XSPL:8, XSP16:16
          CFI VirtualResource ?RET:24
          CFI Resource ?BRET_EXT:8
          CFI VirtualResource ?RET_HIGH:8, ?RET_LOW:8
          CFI ResourceParts PSP16 PSPH, PSPL
          CFI ResourceParts XSP16 XSPH, XSPL
          CFI ResourceParts ?RET ?BRET_EXT, ?RET_HIGH, ?RET_LOW
          CFI EndNames cfiNames0
        
          CFI Common cfiCommon0 Using cfiNames0
          CFI CodeAlign 1
          CFI DataAlign -1
          CFI ReturnAddress ?RET CODE
          CFI CFA_DOVERLAY Used
          CFI CFA_IOVERLAY Used
          CFI CFA_SP SP+-3
          CFI CFA_PSP16 PSP16+0
          CFI CFA_XSP16 XSP16+0
          CFI `PSW.CY` SameValue
          CFI `B.BR0` SameValue
          CFI `B.BR1` SameValue
          CFI `B.BR2` SameValue
          CFI `B.BR3` SameValue
          CFI `B.BR4` SameValue
          CFI `B.BR5` SameValue
          CFI `B.BR6` SameValue
          CFI `B.BR7` SameValue
          CFI `VB.BR8` SameValue
          CFI `VB.BR9` SameValue
          CFI `VB.BR10` SameValue
          CFI `VB.BR11` SameValue
          CFI `VB.BR12` SameValue
          CFI `VB.BR13` SameValue
          CFI `VB.BR14` SameValue
          CFI `VB.BR15` SameValue
          CFI VB SameValue
          CFI B Undefined
          CFI A Undefined
          CFI PSW SameValue
          CFI DPL0 SameValue
          CFI DPH0 SameValue
          CFI R0 Undefined
          CFI R1 Undefined
          CFI R2 Undefined
          CFI R3 Undefined
          CFI R4 Undefined
          CFI R5 Undefined
          CFI R6 SameValue
          CFI R7 SameValue
          CFI V0 SameValue
          CFI V1 SameValue
          CFI V2 SameValue
          CFI V3 SameValue
          CFI V4 SameValue
          CFI V5 SameValue
          CFI V6 SameValue
          CFI V7 SameValue
          CFI PSPH Undefined
          CFI PSPL Undefined
          CFI XSPH Undefined
          CFI XSPL Undefined
          CFI ?RET Concat
          CFI ?BRET_EXT Frame(CFA_SP, 3)
          CFI ?RET_HIGH Frame(CFA_SP, 2)
          CFI ?RET_LOW Frame(CFA_SP, 1)
          CFI EndCommon cfiCommon0
        
        
          CFI Common cfiCommon1 Using cfiNames0
          CFI CodeAlign 1
          CFI DataAlign -1
          CFI ReturnAddress ?RET CODE
          CFI CFA_DOVERLAY Used
          CFI CFA_IOVERLAY Used
          CFI CFA_SP SP+-2
          CFI CFA_PSP16 PSP16+0
          CFI CFA_XSP16 XSP16+0
          CFI `PSW.CY` SameValue
          CFI `B.BR0` SameValue
          CFI `B.BR1` SameValue
          CFI `B.BR2` SameValue
          CFI `B.BR3` SameValue
          CFI `B.BR4` SameValue
          CFI `B.BR5` SameValue
          CFI `B.BR6` SameValue
          CFI `B.BR7` SameValue
          CFI `VB.BR8` SameValue
          CFI `VB.BR9` SameValue
          CFI `VB.BR10` SameValue
          CFI `VB.BR11` SameValue
          CFI `VB.BR12` SameValue
          CFI `VB.BR13` SameValue
          CFI `VB.BR14` SameValue
          CFI `VB.BR15` SameValue
          CFI VB SameValue
          CFI B SameValue
          CFI A SameValue
          CFI PSW SameValue
          CFI DPL0 SameValue
          CFI DPH0 SameValue
          CFI R0 SameValue
          CFI R1 SameValue
          CFI R2 SameValue
          CFI R3 SameValue
          CFI R4 SameValue
          CFI R5 SameValue
          CFI R6 SameValue
          CFI R7 SameValue
          CFI V0 SameValue
          CFI V1 SameValue
          CFI V2 SameValue
          CFI V3 SameValue
          CFI V4 SameValue
          CFI V5 SameValue
          CFI V6 SameValue
          CFI V7 SameValue
          CFI PSPH Undefined
          CFI PSPL Undefined
          CFI XSPH Undefined
          CFI XSPL Undefined
          CFI ?RET Concat
          CFI ?BRET_EXT SameValue
          CFI ?RET_HIGH Frame(CFA_SP, 2)
          CFI ?RET_LOW Frame(CFA_SP, 1)
          CFI EndCommon cfiCommon1
        
APSDE_DataReq       SYMBOL "APSDE_DataReq"
`??APSDE_DataReq::?relay` SYMBOL "?relay", APSDE_DataReq
APSDE_DataReqMTU    SYMBOL "APSDE_DataReqMTU"
`??APSDE_DataReqMTU::?relay` SYMBOL "?relay", APSDE_DataReqMTU
NLME_GetShortAddr   SYMBOL "NLME_GetShortAddr"
`??NLME_GetShortAddr::?relay` SYMBOL "?relay", NLME_GetShortAddr
NLME_IsAddressBroadcast SYMBOL "NLME_IsAddressBroadcast"
`??NLME_IsAddressBroadcast::?relay` SYMBOL "?relay", NLME_IsAddressBroadcast
RTG_AddSrcRtgEntry_Guaranteed SYMBOL "RTG_AddSrcRtgEntry_Guaranteed"
`??RTG_AddSrcRtgEntry_Guaranteed::?relay` SYMBOL "?relay", RTG_AddSrcRtgEntry_Guaranteed
RTG_CheckRtStatus   SYMBOL "RTG_CheckRtStatus"
`??RTG_CheckRtStatus::?relay` SYMBOL "?relay", RTG_CheckRtStatus
aps_FindGroupForEndpoint SYMBOL "aps_FindGroupForEndpoint"
`??aps_FindGroupForEndpoint::?relay` SYMBOL "?relay", aps_FindGroupForEndpoint
osal_mem_alloc      SYMBOL "osal_mem_alloc"
`??osal_mem_alloc::?relay` SYMBOL "?relay", osal_mem_alloc
osal_mem_free       SYMBOL "osal_mem_free"
`??osal_mem_free::?relay` SYMBOL "?relay", osal_mem_free
osal_memcpy         SYMBOL "osal_memcpy"
`??osal_memcpy::?relay` SYMBOL "?relay", osal_memcpy
osal_msg_allocate   SYMBOL "osal_msg_allocate"
`??osal_msg_allocate::?relay` SYMBOL "?relay", osal_msg_allocate
osal_msg_send       SYMBOL "osal_msg_send"
`??osal_msg_send::?relay` SYMBOL "?relay", osal_msg_send
sAddrExtCpy         SYMBOL "sAddrExtCpy"
`??sAddrExtCpy::?relay` SYMBOL "?relay", sAddrExtCpy
AF_DataRequest      SYMBOL "AF_DataRequest"
`??AF_DataRequest::?relay` SYMBOL "?relay", AF_DataRequest
AF_DataRequestSrcRtg SYMBOL "AF_DataRequestSrcRtg"
`??AF_DataRequestSrcRtg::?relay` SYMBOL "?relay", AF_DataRequestSrcRtg
afAPSF_ConfigGet    SYMBOL "afAPSF_ConfigGet"
`??afAPSF_ConfigGet::?relay` SYMBOL "?relay", afAPSF_ConfigGet
afAPSF_ConfigSet    SYMBOL "afAPSF_ConfigSet"
`??afAPSF_ConfigSet::?relay` SYMBOL "?relay", afAPSF_ConfigSet
afCopyAddress       SYMBOL "afCopyAddress"
`??afCopyAddress::?relay` SYMBOL "?relay", afCopyAddress
afDataConfirm       SYMBOL "afDataConfirm"
`??afDataConfirm::?relay` SYMBOL "?relay", afDataConfirm
afDataReqMTU        SYMBOL "afDataReqMTU"
`??afDataReqMTU::?relay` SYMBOL "?relay", afDataReqMTU
afDelete            SYMBOL "afDelete"
`??afDelete::?relay` SYMBOL "?relay", afDelete
afEndPoints         SYMBOL "afEndPoints"
`??afEndPoints::?relay` SYMBOL "?relay", afEndPoints
afFindEndPointDesc  SYMBOL "afFindEndPointDesc"
`??afFindEndPointDesc::?relay` SYMBOL "?relay", afFindEndPointDesc
afFindSimpleDesc    SYMBOL "afFindSimpleDesc"
`??afFindSimpleDesc::?relay` SYMBOL "?relay", afFindSimpleDesc
afGetMatch          SYMBOL "afGetMatch"
`??afGetMatch::?relay` SYMBOL "?relay", afGetMatch
afIncomingData      SYMBOL "afIncomingData"
`??afIncomingData::?relay` SYMBOL "?relay", afIncomingData
afNumEndPoints      SYMBOL "afNumEndPoints"
`??afNumEndPoints::?relay` SYMBOL "?relay", afNumEndPoints
afReflectError      SYMBOL "afReflectError"
`??afReflectError::?relay` SYMBOL "?relay", afReflectError
afRegister          SYMBOL "afRegister"
`??afRegister::?relay` SYMBOL "?relay", afRegister
afRegisterExtended  SYMBOL "afRegisterExtended"
`??afRegisterExtended::?relay` SYMBOL "?relay", afRegisterExtended
afSetApplCB         SYMBOL "afSetApplCB"
`??afSetApplCB::?relay` SYMBOL "?relay", afSetApplCB
afSetMatch          SYMBOL "afSetMatch"
`??afSetMatch::?relay` SYMBOL "?relay", afSetMatch

        EXTERN `??APSDE_DataReq::?relay`
        FUNCTION `??APSDE_DataReq::?relay`,00H
        EXTERN `??APSDE_DataReqMTU::?relay`
        FUNCTION `??APSDE_DataReqMTU::?relay`,00H
        EXTERN `??NLME_GetShortAddr::?relay`
        FUNCTION `??NLME_GetShortAddr::?relay`,00H
        EXTERN `??NLME_IsAddressBroadcast::?relay`
        FUNCTION `??NLME_IsAddressBroadcast::?relay`,00H
        EXTERN `??RTG_AddSrcRtgEntry_Guaranteed::?relay`
        FUNCTION `??RTG_AddSrcRtgEntry_Guaranteed::?relay`,00H
        EXTERN `??RTG_CheckRtStatus::?relay`
        FUNCTION `??RTG_CheckRtStatus::?relay`,00H
        EXTERN `??aps_FindGroupForEndpoint::?relay`
        FUNCTION `??aps_FindGroupForEndpoint::?relay`,00H
        EXTERN `??osal_mem_alloc::?relay`
        FUNCTION `??osal_mem_alloc::?relay`,00H
        EXTERN `??osal_mem_free::?relay`
        FUNCTION `??osal_mem_free::?relay`,00H
        EXTERN `??osal_memcpy::?relay`
        FUNCTION `??osal_memcpy::?relay`,00H
        EXTERN `??osal_msg_allocate::?relay`
        FUNCTION `??osal_msg_allocate::?relay`,00H
        EXTERN `??osal_msg_send::?relay`
        FUNCTION `??osal_msg_send::?relay`,00H
        EXTERN `??sAddrExtCpy::?relay`
        FUNCTION `??sAddrExtCpy::?relay`,00H
        EXTERN APSDE_DataReq
        FUNCTION APSDE_DataReq,0202H
        ARGFRAME ISTACK, 0, STACK
        ARGFRAME PSTACK, 0, STACK
        ARGFRAME XSTACK, 46, STACK
        ARGFRAME IOVERLAY, 0, STATIC
        ARGFRAME DOVERLAY, 0, STATIC
        EXTERN APSDE_DataReqMTU
        FUNCTION APSDE_DataReqMTU,0202H
        ARGFRAME ISTACK, 0, STACK
        ARGFRAME PSTACK, 0, STACK
        ARGFRAME XSTACK, 9, STACK
        ARGFRAME IOVERLAY, 0, STATIC
        ARGFRAME DOVERLAY, 0, STATIC
        EXTERN NLME_GetShortAddr
        FUNCTION NLME_GetShortAddr,0202H
        ARGFRAME ISTACK, 0, STACK
        ARGFRAME PSTACK, 0, STACK
        ARGFRAME XSTACK, 46, STACK
        ARGFRAME IOVERLAY, 0, STATIC
        ARGFRAME DOVERLAY, 0, STATIC
        EXTERN NLME_IsAddressBroadcast
        FUNCTION NLME_IsAddressBroadcast,0202H
        ARGFRAME ISTACK, 0, STACK
        ARGFRAME PSTACK, 0, STACK
        ARGFRAME XSTACK, 46, STACK
        ARGFRAME IOVERLAY, 0, STATIC
        ARGFRAME DOVERLAY, 0, STATIC
        EXTERN RTG_AddSrcRtgEntry_Guaranteed
        FUNCTION RTG_AddSrcRtgEntry_Guaranteed,0202H
        ARGFRAME ISTACK, 0, STACK
        ARGFRAME PSTACK, 0, STACK
        ARGFRAME XSTACK, 12, STACK
        ARGFRAME IOVERLAY, 0, STATIC
        ARGFRAME DOVERLAY, 0, STATIC
        EXTERN RTG_CheckRtStatus
        FUNCTION RTG_CheckRtStatus,0202H
        ARGFRAME ISTACK, 0, STACK
        ARGFRAME PSTACK, 0, STACK
        ARGFRAME XSTACK, 46, STACK
        ARGFRAME IOVERLAY, 0, STATIC
        ARGFRAME DOVERLAY, 0, STATIC
        EXTERN aps_FindGroupForEndpoint
        FUNCTION aps_FindGroupForEndpoint,0202H
        ARGFRAME ISTACK, 0, STACK
        ARGFRAME PSTACK, 0, STACK
        ARGFRAME XSTACK, 25, STACK
        ARGFRAME IOVERLAY, 0, STATIC
        ARGFRAME DOVERLAY, 0, STATIC
        EXTERN apsfSendFragmented
        EXTERN osal_mem_alloc
        FUNCTION osal_mem_alloc,0202H
        ARGFRAME ISTACK, 0, STACK
        ARGFRAME PSTACK, 0, STACK
        ARGFRAME XSTACK, 12, STACK
        ARGFRAME IOVERLAY, 0, STATIC
        ARGFRAME DOVERLAY, 0, STATIC
        EXTERN osal_mem_free
        FUNCTION osal_mem_free,0202H
        ARGFRAME ISTACK, 0, STACK
        ARGFRAME PSTACK, 0, STACK
        ARGFRAME XSTACK, 46, STACK
        ARGFRAME IOVERLAY, 0, STATIC
        ARGFRAME DOVERLAY, 0, STATIC
        EXTERN osal_memcpy
        FUNCTION osal_memcpy,0202H
        ARGFRAME ISTACK, 0, STACK
        ARGFRAME PSTACK, 0, STACK
        ARGFRAME XSTACK, 20, STACK
        ARGFRAME IOVERLAY, 0, STATIC
        ARGFRAME DOVERLAY, 0, STATIC
        EXTERN osal_msg_allocate
        FUNCTION osal_msg_allocate,0202H
        ARGFRAME ISTACK, 0, STACK
        ARGFRAME PSTACK, 0, STACK
        ARGFRAME XSTACK, 17, STACK
        ARGFRAME IOVERLAY, 0, STATIC
        ARGFRAME DOVERLAY, 0, STATIC
        EXTERN osal_msg_send
        FUNCTION osal_msg_send,0202H
        ARGFRAME ISTACK, 0, STACK
        ARGFRAME PSTACK, 0, STACK
        ARGFRAME XSTACK, 17, STACK
        ARGFRAME IOVERLAY, 0, STATIC
        ARGFRAME DOVERLAY, 0, STATIC
        EXTERN sAddrExtCpy
        FUNCTION sAddrExtCpy,0202H
        ARGFRAME ISTACK, 0, STACK
        ARGFRAME PSTACK, 0, STACK
        ARGFRAME XSTACK, 46, STACK
        ARGFRAME IOVERLAY, 0, STATIC
        ARGFRAME DOVERLAY, 0, STATIC

// E:\资源(G：)\#个人项目\ZigbeeProject\Z-Stack Mesh 1.0.0\Components\stack\af\AF.c
//    1 /**************************************************************************************************
//    2   Filename:       AF.c
//    3   Revised:        $Date: 2014-06-30 16:29:17 -0700 (Mon, 30 Jun 2014) $
//    4   Revision:       $Revision: 39295 $
//    5 
//    6   Description:    Application Framework - Device Description helper functions
//    7 
//    8 
//    9   Copyright 2004-2014 Texas Instruments Incorporated. All rights reserved.
//   10 
//   11   IMPORTANT: Your use of this Software is limited to those specific rights
//   12   granted under the terms of a software license agreement between the user
//   13   who downloaded the software, his/her employer (which must be your employer)
//   14   and Texas Instruments Incorporated (the "License").  You may not use this
//   15   Software unless you agree to abide by the terms of the License. The License
//   16   limits your use, and you acknowledge, that the Software may not be modified,
//   17   copied or distributed unless embedded on a Texas Instruments microcontroller
//   18   or used solely and exclusively in conjunction with a Texas Instruments radio
//   19   frequency transceiver, which is integrated into your product.  Other than for
//   20   the foregoing purpose, you may not use, reproduce, copy, prepare derivative
//   21   works of, modify, distribute, perform, display or sell this Software and/or
//   22   its documentation for any purpose.
//   23 
//   24   YOU FURTHER ACKNOWLEDGE AND AGREE THAT THE SOFTWARE AND DOCUMENTATION ARE
//   25   PROVIDED "AS IS" WITHOUT WARRANTY OF ANY KIND, EITHER EXPRESS OR IMPLIED,
//   26   INCLUDING WITHOUT LIMITATION, ANY WARRANTY OF MERCHANTABILITY, TITLE,
//   27   NON-INFRINGEMENT AND FITNESS FOR A PARTICULAR PURPOSE. IN NO EVENT SHALL
//   28   TEXAS INSTRUMENTS OR ITS LICENSORS BE LIABLE OR OBLIGATED UNDER CONTRACT,
//   29   NEGLIGENCE, STRICT LIABILITY, CONTRIBUTION, BREACH OF WARRANTY, OR OTHER
//   30   LEGAL EQUITABLE THEORY ANY DIRECT OR INDIRECT DAMAGES OR EXPENSES
//   31   INCLUDING BUT NOT LIMITED TO ANY INCIDENTAL, SPECIAL, INDIRECT, PUNITIVE
//   32   OR CONSEQUENTIAL DAMAGES, LOST PROFITS OR LOST DATA, COST OF PROCUREMENT
//   33   OF SUBSTITUTE GOODS, TECHNOLOGY, SERVICES, OR ANY CLAIMS BY THIRD PARTIES
//   34   (INCLUDING BUT NOT LIMITED TO ANY DEFENSE THEREOF), OR OTHER SIMILAR COSTS.
//   35 
//   36   Should you have any questions regarding your right to use this Software,
//   37   contact Texas Instruments Incorporated at www.TI.com.
//   38 **************************************************************************************************/
//   39 
//   40 /*********************************************************************
//   41  * INCLUDES
//   42  */
//   43 
//   44 #include "OSAL.h"
//   45 #include "AF.h"
//   46 #include "nwk_globals.h"
//   47 #include "nwk_util.h"
//   48 #include "aps_groups.h"
//   49 #include "ZDProfile.h"
//   50 #include "aps_frag.h"
//   51 #include "rtg.h"
//   52 
//   53 #if defined ( MT_AF_CB_FUNC )
//   54   #include "MT_AF.h"
//   55 #endif
//   56 
//   57 #if defined ( INTER_PAN )
//   58   #include "stub_aps.h"
//   59 #endif
//   60 
//   61 /*********************************************************************
//   62  * MACROS
//   63  */
//   64 
//   65 /*********************************************************************
//   66  * @fn      afSend
//   67  *
//   68  * @brief   Helper macro for V1 API to invoke V2 API.
//   69  *
//   70  * input parameters
//   71  *
//   72  * @param  *dstAddr - Full ZB destination address: Nwk Addr + End Point.
//   73  * @param   srcEP - Origination (i.e. respond to or ack to) End Point.
//   74  * @param   cID - A valid cluster ID as specified by the Profile.
//   75  * @param   len - Number of bytes of data pointed to by next param.
//   76  * @param  *buf - A pointer to the data bytes to send.
//   77  * @param   options - Valid bit mask of AF Tx Options as defined in AF.h.
//   78  * @param  *transID - A pointer to a byte which can be modified and which will
//   79  *                    be used as the transaction sequence number of the msg.
//   80  *
//   81  * output parameters
//   82  *
//   83  * @param  *transID - Incremented by one if the return value is success.
//   84  *
//   85  * @return  afStatus_t - See previous definition of afStatus_... types.
//   86  */
//   87 #define afSend( dstAddr, srcEP, cID, len, buf, transID, options, radius ) \ 
//   88         AF_DataRequest( (dstAddr), afFindEndPointDesc( (srcEP) ), \ 
//   89                           (cID), (len), (buf), (transID), (options), (radius) )
//   90 
//   91 /*********************************************************************
//   92  * GLOBAL VARIABLES
//   93  */
//   94 

        RSEG XDATA_Z:XDATA:NOROOT(0)
        DATA16
//   95 epList_t *epList;
epList:
        DS 2
        REQUIRE __INIT_XDATA_Z
//   96 
//   97 /*********************************************************************
//   98  * LOCAL FUNCTIONS
//   99  */
//  100 
//  101 static void afBuildMSGIncoming( aps_FrameFormat_t *aff, endPointDesc_t *epDesc,
//  102                 zAddrType_t *SrcAddress, uint16 SrcPanId, NLDE_Signal_t *sig,
//  103                 uint8 nwkSeqNum, uint8 SecurityUse, uint32 timestamp, uint8 radius );
//  104 
//  105 static epList_t *afFindEndPointDescList( uint8 EndPoint );
//  106 
//  107 static pDescCB afGetDescCB( endPointDesc_t *epDesc );
//  108 
//  109 /*********************************************************************
//  110  * PUBLIC FUNCTIONS
//  111  */
//  112 
//  113 /*********************************************************************
//  114  * @fn      afInit
//  115  *
//  116  * @brief   Initialization function for the AF.
//  117  *
//  118  * @param   none
//  119  *
//  120  * @return  none
//  121 void afInit( void )
//  122 {
//  123 }
//  124  */
//  125 
//  126 /*********************************************************************
//  127  * @fn      afRegisterExtended
//  128  *
//  129  * @brief   Register an Application's EndPoint description.
//  130  *
//  131  * @param   epDesc - pointer to the Application's endpoint descriptor.
//  132  * @param   descFn - pointer to descriptor callback function
//  133  * @param   applFn - pointer to the Application callback function
//  134  *
//  135  * NOTE:  The memory that epDesc is pointing to must exist after this call.
//  136  *
//  137  * @return  Pointer to epList_t on success, NULL otherwise.
//  138  */

        RSEG BANKED_CODE:CODE:NOROOT(0)
//  139 epList_t *afRegisterExtended( endPointDesc_t *epDesc, pDescCB descFn, pApplCB applFn )
afRegisterExtended:
          CFI Block cfiBlock0 Using cfiCommon0
          CFI Function afRegisterExtended
        CODE
//  140 {
        FUNCALL afRegisterExtended, osal_mem_alloc
        LOCFRAME ISTACK, 0, STACK
        LOCFRAME PSTACK, 0, STACK
        LOCFRAME XSTACK, 12, STACK
        LOCFRAME IOVERLAY, 0, STATIC
        LOCFRAME DOVERLAY, 0, STATIC
        ARGFRAME ISTACK, 0, STACK
        ARGFRAME PSTACK, 0, STACK
        ARGFRAME XSTACK, 12, STACK
        ARGFRAME IOVERLAY, 0, STATIC
        ARGFRAME DOVERLAY, 0, STATIC
        REQUIRE ?V0
        REQUIRE ?V1
        REQUIRE ?V2
        REQUIRE ?V3
        MOV     A,#-0xc
        LCALL   ?BANKED_ENTER_XDATA
          CFI DPH0 load(1, XDATA, add(CFA_XSP16, literal(-1)))
          CFI DPL0 load(1, XDATA, add(CFA_XSP16, literal(-2)))
          CFI ?BRET_EXT load(1, XDATA, add(CFA_XSP16, literal(-3)))
          CFI ?RET_HIGH load(1, XDATA, add(CFA_XSP16, literal(-4)))
          CFI ?RET_LOW load(1, XDATA, add(CFA_XSP16, literal(-5)))
          CFI R7 load(1, XDATA, add(CFA_XSP16, literal(-6)))
          CFI V3 load(1, XDATA, add(CFA_XSP16, literal(-7)))
          CFI V2 load(1, XDATA, add(CFA_XSP16, literal(-8)))
          CFI V1 load(1, XDATA, add(CFA_XSP16, literal(-9)))
          CFI V0 load(1, XDATA, add(CFA_XSP16, literal(-10)))
          CFI VB load(1, XDATA, add(CFA_XSP16, literal(-11)))
          CFI R6 load(1, XDATA, add(CFA_XSP16, literal(-12)))
          CFI CFA_SP SP+0
          CFI CFA_XSP16 add(XSP16, 12)
        ; Saved register size: 12
        ; Auto size: 0
        MOV     ?V0,R2
        MOV     ?V1,R3
        MOV     A,R4
        MOV     R6,A
        MOV     A,R5
        MOV     R7,A
//  141   epList_t *ep = osal_mem_alloc(sizeof(epList_t));
        ; Setup parameters for call to function osal_mem_alloc
        MOV     R2,#0xb
        MOV     R3,#0x0
        LCALL   `??osal_mem_alloc::?relay`; Banked call to: osal_mem_alloc
//  142 
//  143   if (ep != NULL)
        MOV     A,R2
        ORL     A,R3
        JZ      ??CrossCallReturnLabel_72
//  144   {
//  145     ep->nextDesc = epList;
        MOV     DPTR,#epList
        LCALL   ?Subroutine15 & 0xFFFF
??CrossCallReturnLabel_14:
        LCALL   ??Subroutine44_0 & 0xFFFF
//  146     epList = ep;
??CrossCallReturnLabel_71:
        MOV     DPTR,#epList
        LCALL   ?Subroutine29 & 0xFFFF
//  147     ep->epDesc = epDesc;
??CrossCallReturnLabel_37:
        MOV     DPL,R2
        MOV     DPH,R3
        INC     DPTR
        INC     DPTR
        MOV     A,?V0
        MOVX    @DPTR,A
        INC     DPTR
        MOV     A,?V1
        LCALL   ?Subroutine42 & 0xFFFF
//  148     ep->pfnDescCB = descFn;
??CrossCallReturnLabel_64:
        MOV     A,R6
        MOVX    @DPTR,A
        INC     DPTR
        MOV     A,R7
        LCALL   ?Subroutine27 & 0xFFFF
//  149     ep->apsfCfg.frameDelay = APSF_DEFAULT_INTERFRAME_DELAY;
??CrossCallReturnLabel_33:
        INC     DPTR
        MOV     A,#0x32
        LCALL   ?Subroutine26 & 0xFFFF
//  150     ep->apsfCfg.windowSize = APSF_DEFAULT_WINDOW_SIZE;
??CrossCallReturnLabel_31:
        MOV     A,#0x1
        LCALL   ?Subroutine26 & 0xFFFF
//  151     ep->flags = eEP_AllowMatch;  // Default to allow Match Descriptor.
??CrossCallReturnLabel_32:
        INC     DPTR
        MOVX    @DPTR,A
//  152     ep->pfnApplCB = applFn;
        MOV     A,#0xc
        LCALL   ?XSTACK_DISP0_8
        LCALL   ?Subroutine15 & 0xFFFF
//  153   }
??CrossCallReturnLabel_15:
        INC     DPTR
        INC     DPTR
        INC     DPTR
        INC     DPTR
        INC     DPTR
        INC     DPTR
        INC     DPTR
        INC     DPTR
        INC     DPTR
        LCALL   ??Subroutine44_0 & 0xFFFF
//  154 
//  155   return ep;
??CrossCallReturnLabel_72:
        LJMP    ?Subroutine0 & 0xFFFF
//  156 }
          CFI EndBlock cfiBlock0

        RSEG BANKED_CODE:CODE:NOROOT(0)
?Subroutine26:
          CFI Block cfiCond1 Using cfiCommon0
          CFI Function afRegisterExtended
          CFI Conditional ??CrossCallReturnLabel_31
          CFI R6 load(1, XDATA, add(CFA_XSP16, literal(-12)))
          CFI VB load(1, XDATA, add(CFA_XSP16, literal(-11)))
          CFI V0 load(1, XDATA, add(CFA_XSP16, literal(-10)))
          CFI V1 load(1, XDATA, add(CFA_XSP16, literal(-9)))
          CFI V2 load(1, XDATA, add(CFA_XSP16, literal(-8)))
          CFI V3 load(1, XDATA, add(CFA_XSP16, literal(-7)))
          CFI R7 load(1, XDATA, add(CFA_XSP16, literal(-6)))
          CFI ?RET_LOW load(1, XDATA, add(CFA_XSP16, literal(-5)))
          CFI ?RET_HIGH load(1, XDATA, add(CFA_XSP16, literal(-4)))
          CFI ?BRET_EXT load(1, XDATA, add(CFA_XSP16, literal(-3)))
          CFI DPL0 load(1, XDATA, add(CFA_XSP16, literal(-2)))
          CFI DPH0 load(1, XDATA, add(CFA_XSP16, literal(-1)))
          CFI CFA_SP SP+-2
          CFI CFA_XSP16 add(XSP16, 12)
          CFI Block cfiCond2 Using cfiCommon0
          CFI (cfiCond2) Function afRegisterExtended
          CFI (cfiCond2) Conditional ??CrossCallReturnLabel_32
          CFI (cfiCond2) R6 load(1, XDATA, add(CFA_XSP16, literal(-12)))
          CFI (cfiCond2) VB load(1, XDATA, add(CFA_XSP16, literal(-11)))
          CFI (cfiCond2) V0 load(1, XDATA, add(CFA_XSP16, literal(-10)))
          CFI (cfiCond2) V1 load(1, XDATA, add(CFA_XSP16, literal(-9)))
          CFI (cfiCond2) V2 load(1, XDATA, add(CFA_XSP16, literal(-8)))
          CFI (cfiCond2) V3 load(1, XDATA, add(CFA_XSP16, literal(-7)))
          CFI (cfiCond2) R7 load(1, XDATA, add(CFA_XSP16, literal(-6)))
          CFI (cfiCond2) ?RET_LOW load(1, XDATA, add(CFA_XSP16, literal(-5)))
          CFI (cfiCond2) ?RET_HIGH load(1, XDATA, add(CFA_XSP16, literal(-4)))
          CFI (cfiCond2) ?BRET_EXT load(1, XDATA, add(CFA_XSP16, literal(-3)))
          CFI (cfiCond2) DPL0 load(1, XDATA, add(CFA_XSP16, literal(-2)))
          CFI (cfiCond2) DPH0 load(1, XDATA, add(CFA_XSP16, literal(-1)))
          CFI (cfiCond2) CFA_SP SP+-2
          CFI (cfiCond2) CFA_XSP16 add(XSP16, 12)
          CFI Block cfiPicker3 Using cfiCommon1
          CFI (cfiPicker3) NoFunction
          CFI (cfiPicker3) Picker
        LCALL   ?Subroutine35 & 0xFFFF
??CrossCallReturnLabel_54:
        INC     DPTR
        INC     DPTR
        RET
          CFI EndBlock cfiCond1
          CFI EndBlock cfiCond2
          CFI EndBlock cfiPicker3

        RSEG BANKED_CODE:CODE:NOROOT(0)
?Subroutine15:
          CFI Block cfiCond4 Using cfiCommon0
          CFI Function afRegisterExtended
          CFI Conditional ??CrossCallReturnLabel_14
          CFI R6 load(1, XDATA, add(CFA_XSP16, literal(-12)))
          CFI VB load(1, XDATA, add(CFA_XSP16, literal(-11)))
          CFI V0 load(1, XDATA, add(CFA_XSP16, literal(-10)))
          CFI V1 load(1, XDATA, add(CFA_XSP16, literal(-9)))
          CFI V2 load(1, XDATA, add(CFA_XSP16, literal(-8)))
          CFI V3 load(1, XDATA, add(CFA_XSP16, literal(-7)))
          CFI R7 load(1, XDATA, add(CFA_XSP16, literal(-6)))
          CFI ?RET_LOW load(1, XDATA, add(CFA_XSP16, literal(-5)))
          CFI ?RET_HIGH load(1, XDATA, add(CFA_XSP16, literal(-4)))
          CFI ?BRET_EXT load(1, XDATA, add(CFA_XSP16, literal(-3)))
          CFI DPL0 load(1, XDATA, add(CFA_XSP16, literal(-2)))
          CFI DPH0 load(1, XDATA, add(CFA_XSP16, literal(-1)))
          CFI CFA_SP SP+-2
          CFI CFA_XSP16 add(XSP16, 12)
          CFI Block cfiCond5 Using cfiCommon0
          CFI (cfiCond5) Function afRegisterExtended
          CFI (cfiCond5) Conditional ??CrossCallReturnLabel_15
          CFI (cfiCond5) R6 load(1, XDATA, add(CFA_XSP16, literal(-12)))
          CFI (cfiCond5) VB load(1, XDATA, add(CFA_XSP16, literal(-11)))
          CFI (cfiCond5) V0 load(1, XDATA, add(CFA_XSP16, literal(-10)))
          CFI (cfiCond5) V1 load(1, XDATA, add(CFA_XSP16, literal(-9)))
          CFI (cfiCond5) V2 load(1, XDATA, add(CFA_XSP16, literal(-8)))
          CFI (cfiCond5) V3 load(1, XDATA, add(CFA_XSP16, literal(-7)))
          CFI (cfiCond5) R7 load(1, XDATA, add(CFA_XSP16, literal(-6)))
          CFI (cfiCond5) ?RET_LOW load(1, XDATA, add(CFA_XSP16, literal(-5)))
          CFI (cfiCond5) ?RET_HIGH load(1, XDATA, add(CFA_XSP16, literal(-4)))
          CFI (cfiCond5) ?BRET_EXT load(1, XDATA, add(CFA_XSP16, literal(-3)))
          CFI (cfiCond5) DPL0 load(1, XDATA, add(CFA_XSP16, literal(-2)))
          CFI (cfiCond5) DPH0 load(1, XDATA, add(CFA_XSP16, literal(-1)))
          CFI (cfiCond5) CFA_SP SP+-2
          CFI (cfiCond5) CFA_XSP16 add(XSP16, 12)
          CFI Block cfiPicker6 Using cfiCommon1
          CFI (cfiPicker6) NoFunction
          CFI (cfiPicker6) Picker
        LCALL   ?Subroutine37 & 0xFFFF
??CrossCallReturnLabel_134:
        MOV     DPL,R2
        MOV     DPH,R3
        RET
          CFI EndBlock cfiCond4
          CFI EndBlock cfiCond5
          CFI EndBlock cfiPicker6
//  157 
//  158 /*********************************************************************
//  159  * @fn      afRegister
//  160  *
//  161  * @brief   Register an Application's EndPoint description.
//  162  *
//  163  * @param   epDesc - pointer to the Application's endpoint descriptor.
//  164  *
//  165  * NOTE:  The memory that epDesc is pointing to must exist after this call.
//  166  *
//  167  * @return  afStatus_SUCCESS - Registered
//  168  *          afStatus_MEM_FAIL - not enough memory to add descriptor
//  169  *          afStatus_INVALID_PARAMETER - duplicate endpoint
//  170  */

        RSEG BANKED_CODE:CODE:NOROOT(0)
//  171 afStatus_t afRegister( endPointDesc_t *epDesc )
afRegister:
          CFI Block cfiBlock7 Using cfiCommon0
          CFI Function afRegister
        CODE
//  172 {
        FUNCALL afRegister, afFindEndPointDescList
        LOCFRAME ISTACK, 0, STACK
        LOCFRAME PSTACK, 0, STACK
        LOCFRAME XSTACK, 10, STACK
        LOCFRAME IOVERLAY, 0, STATIC
        LOCFRAME DOVERLAY, 0, STATIC
        ARGFRAME ISTACK, 0, STACK
        ARGFRAME PSTACK, 0, STACK
        ARGFRAME XSTACK, 10, STACK
        ARGFRAME IOVERLAY, 0, STATIC
        ARGFRAME DOVERLAY, 0, STATIC
        FUNCALL afRegister, afRegisterExtended
        LOCFRAME ISTACK, 0, STACK
        LOCFRAME PSTACK, 0, STACK
        LOCFRAME XSTACK, 12, STACK
        LOCFRAME IOVERLAY, 0, STATIC
        LOCFRAME DOVERLAY, 0, STATIC
        ARGFRAME ISTACK, 0, STACK
        ARGFRAME PSTACK, 0, STACK
        ARGFRAME XSTACK, 12, STACK
        ARGFRAME IOVERLAY, 0, STATIC
        ARGFRAME DOVERLAY, 0, STATIC
        REQUIRE ?V0
        REQUIRE ?V1
        MOV     A,#-0xa
        LCALL   ?BANKED_ENTER_XDATA
          CFI DPH0 load(1, XDATA, add(CFA_XSP16, literal(-1)))
          CFI DPL0 load(1, XDATA, add(CFA_XSP16, literal(-2)))
          CFI ?BRET_EXT load(1, XDATA, add(CFA_XSP16, literal(-3)))
          CFI ?RET_HIGH load(1, XDATA, add(CFA_XSP16, literal(-4)))
          CFI ?RET_LOW load(1, XDATA, add(CFA_XSP16, literal(-5)))
          CFI R7 load(1, XDATA, add(CFA_XSP16, literal(-6)))
          CFI V1 load(1, XDATA, add(CFA_XSP16, literal(-7)))
          CFI V0 load(1, XDATA, add(CFA_XSP16, literal(-8)))
          CFI VB load(1, XDATA, add(CFA_XSP16, literal(-9)))
          CFI R6 load(1, XDATA, add(CFA_XSP16, literal(-10)))
          CFI CFA_SP SP+0
          CFI CFA_XSP16 add(XSP16, 10)
        ; Saved register size: 10
        ; Auto size: 0
        MOV     A,R2
        MOV     R6,A
        MOV     A,R3
        MOV     R7,A
//  173   if (afFindEndPointDescList(epDesc->endPoint))  // Look for duplicate endpoint.
        ; Setup parameters for call to function afFindEndPointDescList
        MOV     DPL,R6
        MOV     DPH,R7
        MOVX    A,@DPTR
        MOV     R1,A
        LCALL   `??afFindEndPointDescList::?relay`; Banked call to: afFindEndPointDescList
        MOV     ?V1,R3
        MOV     A,R2
        ORL     A,?V1
        JZ      ??afRegister_0
//  174   {
//  175     return afStatus_INVALID_PARAMETER;
        MOV     R1,#0x2
        SJMP    ??afRegister_1
//  176   }
//  177 
//  178   return ((NULL == afRegisterExtended(epDesc, NULL, NULL)) ? afStatus_MEM_FAIL : afStatus_SUCCESS);
??afRegister_0:
        ; Setup parameters for call to function afRegisterExtended
        CLR     A
        MOV     ?V0,A
        MOV     ?V1,A
        MOV     R0,#?V0
        LCALL   ?PUSH_XSTACK_I_TWO
          CFI CFA_XSP16 add(XSP16, 12)
        MOV     R4,#0x0
        MOV     R5,#0x0
        MOV     A,R6
        MOV     R2,A
        MOV     A,R7
        MOV     R3,A
        LCALL   `??afRegisterExtended::?relay`; Banked call to: afRegisterExtended
        MOV     A,#0x2
        LCALL   ?DEALLOC_XSTACK8
          CFI CFA_XSP16 add(XSP16, 10)
        MOV     ?V1,R3
        MOV     A,R2
        ORL     A,?V1
        JNZ     ??afRegister_2
        MOV     R1,#0x10
        SJMP    ??afRegister_1
??afRegister_2:
        MOV     R1,#0x0
??afRegister_1:
        LJMP    ?Subroutine1 & 0xFFFF
//  179 }
          CFI EndBlock cfiBlock7
//  180 
//  181 /*********************************************************************
//  182  * @fn      afDelete
//  183  *
//  184  * @brief   Delete an Application's EndPoint descriptor and frees the memory
//  185  *
//  186  * @param   EndPoint - Application Endpoint to delete
//  187  *
//  188  * @return  afStatus_SUCCESS - endpoint deleted
//  189  *          afStatus_INVALID_PARAMETER - endpoint not found
//  190  *          afStatus_FAILED - endpoint list empty
//  191  */

        RSEG BANKED_CODE:CODE:NOROOT(0)
//  192 afStatus_t afDelete( uint8 EndPoint )
afDelete:
          CFI Block cfiBlock8 Using cfiCommon0
          CFI Function afDelete
        CODE
//  193 {
        FUNCALL afDelete, osal_mem_free
        LOCFRAME ISTACK, 0, STACK
        LOCFRAME PSTACK, 0, STACK
        LOCFRAME XSTACK, 9, STACK
        LOCFRAME IOVERLAY, 0, STATIC
        LOCFRAME DOVERLAY, 0, STATIC
        ARGFRAME ISTACK, 0, STACK
        ARGFRAME PSTACK, 0, STACK
        ARGFRAME XSTACK, 9, STACK
        ARGFRAME IOVERLAY, 0, STATIC
        ARGFRAME DOVERLAY, 0, STATIC
        FUNCALL afDelete, osal_mem_free
        LOCFRAME ISTACK, 0, STACK
        LOCFRAME PSTACK, 0, STACK
        LOCFRAME XSTACK, 9, STACK
        LOCFRAME IOVERLAY, 0, STATIC
        LOCFRAME DOVERLAY, 0, STATIC
        ARGFRAME ISTACK, 0, STACK
        ARGFRAME PSTACK, 0, STACK
        ARGFRAME XSTACK, 9, STACK
        ARGFRAME IOVERLAY, 0, STATIC
        ARGFRAME DOVERLAY, 0, STATIC
        MOV     A,#-0x9
        LCALL   ?BANKED_ENTER_XDATA
          CFI DPH0 load(1, XDATA, add(CFA_XSP16, literal(-1)))
          CFI DPL0 load(1, XDATA, add(CFA_XSP16, literal(-2)))
          CFI ?BRET_EXT load(1, XDATA, add(CFA_XSP16, literal(-3)))
          CFI ?RET_HIGH load(1, XDATA, add(CFA_XSP16, literal(-4)))
          CFI ?RET_LOW load(1, XDATA, add(CFA_XSP16, literal(-5)))
          CFI R7 load(1, XDATA, add(CFA_XSP16, literal(-6)))
          CFI V0 load(1, XDATA, add(CFA_XSP16, literal(-7)))
          CFI VB load(1, XDATA, add(CFA_XSP16, literal(-8)))
          CFI R6 load(1, XDATA, add(CFA_XSP16, literal(-9)))
          CFI CFA_SP SP+0
          CFI CFA_XSP16 add(XSP16, 9)
        ; Saved register size: 9
        ; Auto size: 0
        MOV     A,R1
        MOV     R6,A
//  194   epList_t *epCurrent;
//  195   epList_t *epPrevious;
//  196 
//  197   if ( epList != NULL )
        MOV     DPTR,#epList
        LCALL   ??Subroutine45_0 & 0xFFFF
??CrossCallReturnLabel_85:
        JZ      ??afDelete_0
//  198   {
//  199     epPrevious = epCurrent = epList;
        MOV     DPTR,#epList
        LCALL   ??Subroutine51_0 & 0xFFFF
??CrossCallReturnLabel_102:
        MOV     R1,A
//  200 
//  201     // first element of the list matches
//  202     if ( epCurrent->epDesc->endPoint == EndPoint )
        LCALL   ?Subroutine14 & 0xFFFF
??CrossCallReturnLabel_12:
        JNZ     ??afDelete_1
//  203     {
//  204       epList = epCurrent->nextDesc;
        LCALL   ?Subroutine18 & 0xFFFF
//  205       osal_mem_free( epCurrent );
//  206 
//  207       return ( afStatus_SUCCESS );
//  208     }
??CrossCallReturnLabel_131:
        MOV     DPTR,#epList
        MOV     A,R0
        MOVX    @DPTR,A
        INC     DPTR
        MOV     A,R1
        SJMP    ??afDelete_2
//  209     else
//  210     {
//  211       // search the list
//  212       for ( epCurrent = epPrevious->nextDesc;
??afDelete_1:
        MOV     DPL,R0
        MOV     DPH,R1
        SJMP    ??afDelete_3
//  213             epCurrent != NULL;
//  214             epCurrent = epCurrent->nextDesc )
//  215       {
//  216         if ( epCurrent->epDesc->endPoint == EndPoint )
//  217         {
//  218           epPrevious->nextDesc = epCurrent->nextDesc;
//  219           osal_mem_free( epCurrent );
//  220 
//  221           // delete the entry and free the memory
//  222           return ( afStatus_SUCCESS );
//  223         }
//  224         epPrevious = epCurrent;
??afDelete_4:
        MOV     A,R2
        MOV     R0,A
        MOV     A,R3
        MOV     R1,A
        MOV     DPL,R2
        MOV     DPH,R3
??afDelete_3:
        LCALL   ??Subroutine48_0 & 0xFFFF
??CrossCallReturnLabel_98:
        JZ      ??afDelete_5
        LCALL   ?Subroutine14 & 0xFFFF
??CrossCallReturnLabel_13:
        JNZ     ??afDelete_4
        MOV     DPL,R2
        MOV     DPH,R3
        LCALL   ?Subroutine19 & 0xFFFF
??CrossCallReturnLabel_21:
        MOV     DPL,R0
        MOV     DPH,R1
        MOV     A,R4
        MOVX    @DPTR,A
        INC     DPTR
        MOV     A,R5
??afDelete_2:
        MOVX    @DPTR,A
        ; Setup parameters for call to function osal_mem_free
        LCALL   `??osal_mem_free::?relay`; Banked call to: osal_mem_free
        MOV     R1,#0x0
        SJMP    ??afDelete_6
//  225       }
//  226     }
//  227 
//  228     // no endpoint found
//  229     return ( afStatus_INVALID_PARAMETER );
??afDelete_5:
        MOV     R1,#0x2
        SJMP    ??afDelete_6
//  230   }
//  231   else
//  232   {
//  233     // epList is empty
//  234     return ( afStatus_FAILED );
??afDelete_0:
        MOV     R1,#0x1
//  235   }
??afDelete_6:
          CFI EndBlock cfiBlock8
        REQUIRE ?Subroutine2
        ; // Fall through to label ?Subroutine2
//  236 }

        RSEG BANKED_CODE:CODE:NOROOT(0)
?Subroutine2:
          CFI Block cfiBlock9 Using cfiCommon0
          CFI NoFunction
          CFI CFA_SP SP+0
          CFI CFA_XSP16 add(XSP16, 9)
          CFI VB load(1, XDATA, add(CFA_XSP16, literal(-8)))
          CFI DPL0 load(1, XDATA, add(CFA_XSP16, literal(-2)))
          CFI DPH0 load(1, XDATA, add(CFA_XSP16, literal(-1)))
          CFI R6 load(1, XDATA, add(CFA_XSP16, literal(-9)))
          CFI R7 load(1, XDATA, add(CFA_XSP16, literal(-6)))
          CFI V0 load(1, XDATA, add(CFA_XSP16, literal(-7)))
          CFI ?BRET_EXT load(1, XDATA, add(CFA_XSP16, literal(-3)))
          CFI ?RET_HIGH load(1, XDATA, add(CFA_XSP16, literal(-4)))
          CFI ?RET_LOW load(1, XDATA, add(CFA_XSP16, literal(-5)))
        MOV     R7,#0x1
        LJMP    ?BANKED_LEAVE_XDATA
          CFI EndBlock cfiBlock9

        RSEG BANKED_CODE:CODE:NOROOT(0)
?Subroutine14:
          CFI Block cfiCond10 Using cfiCommon0
          CFI Function afDelete
          CFI Conditional ??CrossCallReturnLabel_12
          CFI R6 load(1, XDATA, add(CFA_XSP16, literal(-9)))
          CFI VB load(1, XDATA, add(CFA_XSP16, literal(-8)))
          CFI V0 load(1, XDATA, add(CFA_XSP16, literal(-7)))
          CFI R7 load(1, XDATA, add(CFA_XSP16, literal(-6)))
          CFI ?RET_LOW load(1, XDATA, add(CFA_XSP16, literal(-5)))
          CFI ?RET_HIGH load(1, XDATA, add(CFA_XSP16, literal(-4)))
          CFI ?BRET_EXT load(1, XDATA, add(CFA_XSP16, literal(-3)))
          CFI DPL0 load(1, XDATA, add(CFA_XSP16, literal(-2)))
          CFI DPH0 load(1, XDATA, add(CFA_XSP16, literal(-1)))
          CFI CFA_SP SP+-2
          CFI CFA_XSP16 add(XSP16, 9)
          CFI Block cfiCond11 Using cfiCommon0
          CFI (cfiCond11) Function afDelete
          CFI (cfiCond11) Conditional ??CrossCallReturnLabel_13
          CFI (cfiCond11) R6 load(1, XDATA, add(CFA_XSP16, literal(-9)))
          CFI (cfiCond11) VB load(1, XDATA, add(CFA_XSP16, literal(-8)))
          CFI (cfiCond11) V0 load(1, XDATA, add(CFA_XSP16, literal(-7)))
          CFI (cfiCond11) R7 load(1, XDATA, add(CFA_XSP16, literal(-6)))
          CFI (cfiCond11) ?RET_LOW load(1, XDATA, add(CFA_XSP16, literal(-5)))
          CFI (cfiCond11) ?RET_HIGH load(1, XDATA, add(CFA_XSP16, literal(-4)))
          CFI (cfiCond11) ?BRET_EXT load(1, XDATA, add(CFA_XSP16, literal(-3)))
          CFI (cfiCond11) DPL0 load(1, XDATA, add(CFA_XSP16, literal(-2)))
          CFI (cfiCond11) DPH0 load(1, XDATA, add(CFA_XSP16, literal(-1)))
          CFI (cfiCond11) CFA_SP SP+-2
          CFI (cfiCond11) CFA_XSP16 add(XSP16, 9)
          CFI Block cfiPicker12 Using cfiCommon1
          CFI (cfiPicker12) NoFunction
          CFI (cfiPicker12) Picker
        MOV     DPL,R2
        MOV     DPH,R3
        INC     DPTR
        INC     DPTR
        MOVX    A,@DPTR
        MOV     R4,A
        INC     DPTR
        MOVX    A,@DPTR
        MOV     DPH,A
        MOV     DPL,R4
        MOVX    A,@DPTR
        XRL     A,R6
        RET
          CFI EndBlock cfiCond10
          CFI EndBlock cfiCond11
          CFI EndBlock cfiPicker12
//  237 
//  238 /*********************************************************************
//  239  * @fn          afDataConfirm
//  240  *
//  241  * @brief       This function will generate the Data Confirm back to
//  242  *              the application.
//  243  *
//  244  * @param       endPoint - confirm end point
//  245  * @param       transID - transaction ID from APSDE_DATA_REQUEST
//  246  * @param       status - status of APSDE_DATA_REQUEST
//  247  *
//  248  * @return      none
//  249  */

        RSEG BANKED_CODE:CODE:NOROOT(0)
//  250 void afDataConfirm( uint8 endPoint, uint8 transID, ZStatus_t status )
afDataConfirm:
          CFI Block cfiBlock13 Using cfiCommon0
          CFI Function afDataConfirm
        CODE
//  251 {
        FUNCALL afDataConfirm, afFindEndPointDesc
        LOCFRAME ISTACK, 0, STACK
        LOCFRAME PSTACK, 0, STACK
        LOCFRAME XSTACK, 14, STACK
        LOCFRAME IOVERLAY, 0, STATIC
        LOCFRAME DOVERLAY, 0, STATIC
        ARGFRAME ISTACK, 0, STACK
        ARGFRAME PSTACK, 0, STACK
        ARGFRAME XSTACK, 14, STACK
        ARGFRAME IOVERLAY, 0, STATIC
        ARGFRAME DOVERLAY, 0, STATIC
        FUNCALL afDataConfirm, osal_msg_allocate
        LOCFRAME ISTACK, 0, STACK
        LOCFRAME PSTACK, 0, STACK
        LOCFRAME XSTACK, 14, STACK
        LOCFRAME IOVERLAY, 0, STATIC
        LOCFRAME DOVERLAY, 0, STATIC
        ARGFRAME ISTACK, 0, STACK
        ARGFRAME PSTACK, 0, STACK
        ARGFRAME XSTACK, 14, STACK
        ARGFRAME IOVERLAY, 0, STATIC
        ARGFRAME DOVERLAY, 0, STATIC
        FUNCALL afDataConfirm, osal_msg_send
        LOCFRAME ISTACK, 0, STACK
        LOCFRAME PSTACK, 0, STACK
        LOCFRAME XSTACK, 14, STACK
        LOCFRAME IOVERLAY, 0, STATIC
        LOCFRAME DOVERLAY, 0, STATIC
        ARGFRAME ISTACK, 0, STACK
        ARGFRAME PSTACK, 0, STACK
        ARGFRAME XSTACK, 14, STACK
        ARGFRAME IOVERLAY, 0, STATIC
        ARGFRAME DOVERLAY, 0, STATIC
        REQUIRE ?V0
        REQUIRE ?V2
        REQUIRE ?V3
        REQUIRE ?V4
        REQUIRE ?V5
        MOV     A,#-0xe
        LCALL   ?BANKED_ENTER_XDATA
          CFI DPH0 load(1, XDATA, add(CFA_XSP16, literal(-1)))
          CFI DPL0 load(1, XDATA, add(CFA_XSP16, literal(-2)))
          CFI ?BRET_EXT load(1, XDATA, add(CFA_XSP16, literal(-3)))
          CFI ?RET_HIGH load(1, XDATA, add(CFA_XSP16, literal(-4)))
          CFI ?RET_LOW load(1, XDATA, add(CFA_XSP16, literal(-5)))
          CFI R7 load(1, XDATA, add(CFA_XSP16, literal(-6)))
          CFI V5 load(1, XDATA, add(CFA_XSP16, literal(-7)))
          CFI V4 load(1, XDATA, add(CFA_XSP16, literal(-8)))
          CFI V3 load(1, XDATA, add(CFA_XSP16, literal(-9)))
          CFI V2 load(1, XDATA, add(CFA_XSP16, literal(-10)))
          CFI V1 load(1, XDATA, add(CFA_XSP16, literal(-11)))
          CFI V0 load(1, XDATA, add(CFA_XSP16, literal(-12)))
          CFI VB load(1, XDATA, add(CFA_XSP16, literal(-13)))
          CFI R6 load(1, XDATA, add(CFA_XSP16, literal(-14)))
          CFI CFA_SP SP+0
          CFI CFA_XSP16 add(XSP16, 14)
        ; Saved register size: 14
        ; Auto size: 0
        MOV     A,R1
        MOV     R6,A
        MOV     A,R2
        MOV     R7,A
        MOV     ?V0,R3
//  252   endPointDesc_t *epDesc;
//  253   afDataConfirm_t *msgPtr;
//  254 
//  255   // Find the endpoint description
//  256   epDesc = afFindEndPointDesc( endPoint );
        ; Setup parameters for call to function afFindEndPointDesc
        LCALL   `??afFindEndPointDesc::?relay`; Banked call to: afFindEndPointDesc
        MOV     ?V4,R2
        MOV     ?V5,R3
//  257   if ( epDesc == NULL )
        MOV     A,R2
        ORL     A,?V5
        JZ      ??afDataConfirm_0
//  258     return;
//  259 
//  260   // Determine the incoming command type
//  261   msgPtr = (afDataConfirm_t *)osal_msg_allocate( sizeof(afDataConfirm_t) );
        ; Setup parameters for call to function osal_msg_allocate
        MOV     R2,#0x4
        MOV     R3,#0x0
        LCALL   `??osal_msg_allocate::?relay`; Banked call to: osal_msg_allocate
//  262   if ( msgPtr )
        MOV     A,R2
        ORL     A,R3
        JZ      ??afDataConfirm_0
//  263   {
//  264     // Build the Data Confirm message
//  265     msgPtr->hdr.event = AF_DATA_CONFIRM_CMD;
        MOV     DPL,R2
        MOV     DPH,R3
        MOV     A,#-0x3
        MOVX    @DPTR,A
//  266     msgPtr->hdr.status = status;
        INC     DPTR
        MOV     A,?V0
        LCALL   ?Subroutine28 & 0xFFFF
//  267     msgPtr->endpoint = endPoint;
//  268     msgPtr->transID = transID;
??CrossCallReturnLabel_35:
        MOV     A,R7
        MOV     DPL,R2
        MOV     DPH,R3
        INC     DPTR
        INC     DPTR
        INC     DPTR
        LCALL   ?Subroutine6 & 0xFFFF
//  269 
//  270 #if defined ( MT_AF_CB_FUNC )
//  271     /* If MT has subscribed for this callback, don't send as a message. */
//  272     if ( AFCB_CHECK(CB_ID_AF_DATA_CNF,*(epDesc->task_id)) )
//  273     {
//  274       /* Send callback if it's subscribed */
//  275       MT_AfDataConfirm ((void *)msgPtr);
//  276       /* Release the memory. */
//  277       osal_msg_deallocate( (void *)msgPtr );
//  278     }
//  279     else
//  280 #endif
//  281     {
//  282       /* send message through task message */
//  283       osal_msg_send( *(epDesc->task_id), (uint8 *)msgPtr );
//  284     }
//  285   }
??CrossCallReturnLabel_66:
        LCALL   `??osal_msg_send::?relay`; Banked call to: osal_msg_send
//  286 }
??afDataConfirm_0:
        MOV     R7,#0x6
        LJMP    ?BANKED_LEAVE_XDATA
          CFI EndBlock cfiBlock13

        RSEG BANKED_CODE:CODE:NOROOT(0)
?Subroutine6:
          CFI Block cfiCond14 Using cfiCommon0
          CFI Function afDataConfirm
          CFI Conditional ??CrossCallReturnLabel_66
          CFI R6 load(1, XDATA, add(CFA_XSP16, literal(-14)))
          CFI VB load(1, XDATA, add(CFA_XSP16, literal(-13)))
          CFI V0 load(1, XDATA, add(CFA_XSP16, literal(-12)))
          CFI V1 load(1, XDATA, add(CFA_XSP16, literal(-11)))
          CFI V2 load(1, XDATA, add(CFA_XSP16, literal(-10)))
          CFI V3 load(1, XDATA, add(CFA_XSP16, literal(-9)))
          CFI V4 load(1, XDATA, add(CFA_XSP16, literal(-8)))
          CFI V5 load(1, XDATA, add(CFA_XSP16, literal(-7)))
          CFI R7 load(1, XDATA, add(CFA_XSP16, literal(-6)))
          CFI ?RET_LOW load(1, XDATA, add(CFA_XSP16, literal(-5)))
          CFI ?RET_HIGH load(1, XDATA, add(CFA_XSP16, literal(-4)))
          CFI ?BRET_EXT load(1, XDATA, add(CFA_XSP16, literal(-3)))
          CFI DPL0 load(1, XDATA, add(CFA_XSP16, literal(-2)))
          CFI DPH0 load(1, XDATA, add(CFA_XSP16, literal(-1)))
          CFI CFA_SP SP+-2
          CFI CFA_XSP16 add(XSP16, 14)
          CFI Block cfiCond15 Using cfiCommon0
          CFI (cfiCond15) Function afReflectError
          CFI (cfiCond15) Conditional ??CrossCallReturnLabel_67
          CFI (cfiCond15) R6 load(1, XDATA, add(CFA_XSP16, literal(-16)))
          CFI (cfiCond15) VB load(1, XDATA, add(CFA_XSP16, literal(-15)))
          CFI (cfiCond15) V0 load(1, XDATA, add(CFA_XSP16, literal(-14)))
          CFI (cfiCond15) V1 load(1, XDATA, add(CFA_XSP16, literal(-13)))
          CFI (cfiCond15) V2 load(1, XDATA, add(CFA_XSP16, literal(-12)))
          CFI (cfiCond15) V3 load(1, XDATA, add(CFA_XSP16, literal(-11)))
          CFI (cfiCond15) V4 load(1, XDATA, add(CFA_XSP16, literal(-10)))
          CFI (cfiCond15) V5 load(1, XDATA, add(CFA_XSP16, literal(-9)))
          CFI (cfiCond15) V6 load(1, XDATA, add(CFA_XSP16, literal(-8)))
          CFI (cfiCond15) V7 load(1, XDATA, add(CFA_XSP16, literal(-7)))
          CFI (cfiCond15) R7 load(1, XDATA, add(CFA_XSP16, literal(-6)))
          CFI (cfiCond15) ?RET_LOW load(1, XDATA, add(CFA_XSP16, literal(-5)))
          CFI (cfiCond15) ?RET_HIGH load(1, XDATA, add(CFA_XSP16, literal(-4)))
          CFI (cfiCond15) ?BRET_EXT load(1, XDATA, add(CFA_XSP16, literal(-3)))
          CFI (cfiCond15) DPL0 load(1, XDATA, add(CFA_XSP16, literal(-2)))
          CFI (cfiCond15) DPH0 load(1, XDATA, add(CFA_XSP16, literal(-1)))
          CFI (cfiCond15) CFA_SP SP+-2
          CFI (cfiCond15) CFA_XSP16 add(XSP16, 16)
          CFI Block cfiPicker16 Using cfiCommon1
          CFI (cfiPicker16) NoFunction
          CFI (cfiPicker16) Picker
        MOVX    @DPTR,A
          CFI EndBlock cfiCond14
          CFI EndBlock cfiCond15
          CFI EndBlock cfiPicker16
        ; Setup parameters for call to function osal_msg_send
        ; Setup parameters for call to function osal_msg_send
        REQUIRE ??Subroutine43_0
        ; // Fall through to label ??Subroutine43_0

        RSEG BANKED_CODE:CODE:NOROOT(0)
??Subroutine43_0:
          CFI Block cfiCond17 Using cfiCommon0
          CFI Function afBuildMSGIncoming
          CFI Conditional ??CrossCallReturnLabel_68
          CFI R6 load(1, XDATA, add(CFA_XSP16, literal(-16)))
          CFI VB load(1, XDATA, add(CFA_XSP16, literal(-15)))
          CFI V0 load(1, XDATA, add(CFA_XSP16, literal(-14)))
          CFI V1 load(1, XDATA, add(CFA_XSP16, literal(-13)))
          CFI V2 load(1, XDATA, add(CFA_XSP16, literal(-12)))
          CFI V3 load(1, XDATA, add(CFA_XSP16, literal(-11)))
          CFI V4 load(1, XDATA, add(CFA_XSP16, literal(-10)))
          CFI V5 load(1, XDATA, add(CFA_XSP16, literal(-9)))
          CFI V6 load(1, XDATA, add(CFA_XSP16, literal(-8)))
          CFI V7 load(1, XDATA, add(CFA_XSP16, literal(-7)))
          CFI R7 load(1, XDATA, add(CFA_XSP16, literal(-6)))
          CFI ?RET_LOW load(1, XDATA, add(CFA_XSP16, literal(-5)))
          CFI ?RET_HIGH load(1, XDATA, add(CFA_XSP16, literal(-4)))
          CFI ?BRET_EXT load(1, XDATA, add(CFA_XSP16, literal(-3)))
          CFI DPL0 load(1, XDATA, add(CFA_XSP16, literal(-2)))
          CFI DPH0 load(1, XDATA, add(CFA_XSP16, literal(-1)))
          CFI CFA_SP SP+-2
          CFI CFA_XSP16 add(XSP16, 17)
          CFI Block cfiCond18 Using cfiCommon0
          CFI (cfiCond18) Function afDataConfirm
          CFI (cfiCond18) Conditional ??CrossCallReturnLabel_66
          CFI (cfiCond18) R6 load(1, XDATA, add(CFA_XSP16, literal(-14)))
          CFI (cfiCond18) VB load(1, XDATA, add(CFA_XSP16, literal(-13)))
          CFI (cfiCond18) V0 load(1, XDATA, add(CFA_XSP16, literal(-12)))
          CFI (cfiCond18) V1 load(1, XDATA, add(CFA_XSP16, literal(-11)))
          CFI (cfiCond18) V2 load(1, XDATA, add(CFA_XSP16, literal(-10)))
          CFI (cfiCond18) V3 load(1, XDATA, add(CFA_XSP16, literal(-9)))
          CFI (cfiCond18) V4 load(1, XDATA, add(CFA_XSP16, literal(-8)))
          CFI (cfiCond18) V5 load(1, XDATA, add(CFA_XSP16, literal(-7)))
          CFI (cfiCond18) R7 load(1, XDATA, add(CFA_XSP16, literal(-6)))
          CFI (cfiCond18) ?RET_LOW load(1, XDATA, add(CFA_XSP16, literal(-5)))
          CFI (cfiCond18) ?RET_HIGH load(1, XDATA, add(CFA_XSP16, literal(-4)))
          CFI (cfiCond18) ?BRET_EXT load(1, XDATA, add(CFA_XSP16, literal(-3)))
          CFI (cfiCond18) DPL0 load(1, XDATA, add(CFA_XSP16, literal(-2)))
          CFI (cfiCond18) DPH0 load(1, XDATA, add(CFA_XSP16, literal(-1)))
          CFI (cfiCond18) CFA_SP SP+-2
          CFI (cfiCond18) CFA_XSP16 add(XSP16, 14)
          CFI Block cfiCond19 Using cfiCommon0
          CFI (cfiCond19) Function afReflectError
          CFI (cfiCond19) Conditional ??CrossCallReturnLabel_67
          CFI (cfiCond19) R6 load(1, XDATA, add(CFA_XSP16, literal(-16)))
          CFI (cfiCond19) VB load(1, XDATA, add(CFA_XSP16, literal(-15)))
          CFI (cfiCond19) V0 load(1, XDATA, add(CFA_XSP16, literal(-14)))
          CFI (cfiCond19) V1 load(1, XDATA, add(CFA_XSP16, literal(-13)))
          CFI (cfiCond19) V2 load(1, XDATA, add(CFA_XSP16, literal(-12)))
          CFI (cfiCond19) V3 load(1, XDATA, add(CFA_XSP16, literal(-11)))
          CFI (cfiCond19) V4 load(1, XDATA, add(CFA_XSP16, literal(-10)))
          CFI (cfiCond19) V5 load(1, XDATA, add(CFA_XSP16, literal(-9)))
          CFI (cfiCond19) V6 load(1, XDATA, add(CFA_XSP16, literal(-8)))
          CFI (cfiCond19) V7 load(1, XDATA, add(CFA_XSP16, literal(-7)))
          CFI (cfiCond19) R7 load(1, XDATA, add(CFA_XSP16, literal(-6)))
          CFI (cfiCond19) ?RET_LOW load(1, XDATA, add(CFA_XSP16, literal(-5)))
          CFI (cfiCond19) ?RET_HIGH load(1, XDATA, add(CFA_XSP16, literal(-4)))
          CFI (cfiCond19) ?BRET_EXT load(1, XDATA, add(CFA_XSP16, literal(-3)))
          CFI (cfiCond19) DPL0 load(1, XDATA, add(CFA_XSP16, literal(-2)))
          CFI (cfiCond19) DPH0 load(1, XDATA, add(CFA_XSP16, literal(-1)))
          CFI (cfiCond19) CFA_SP SP+-2
          CFI (cfiCond19) CFA_XSP16 add(XSP16, 16)
          CFI Block cfiPicker20 Using cfiCommon1
          CFI (cfiPicker20) NoFunction
          CFI (cfiPicker20) Picker
        MOV     DPL,?V4
        MOV     DPH,?V5
        INC     DPTR
        LCALL   ?Subroutine39 & 0xFFFF
??CrossCallReturnLabel_70:
        MOV     R1,A
        RET
          CFI EndBlock cfiCond17
          CFI EndBlock cfiCond18
          CFI EndBlock cfiCond19
          CFI EndBlock cfiPicker20
//  287 
//  288 /*********************************************************************
//  289  * @fn          afReflectError
//  290  *
//  291  * @brief       This function will generate the Reflect Error message to
//  292  *              the application.
//  293  *
//  294  * @param       dstAddrMode - mode of dstAdd - 0 - normal short addr, 1 - group Address
//  295  * @param       dstAddr - intended destination
//  296  * @param       endPoint - confirm end point
//  297  * @param       transID - transaction ID from APSDE_DATA_REQUEST
//  298  * @param       status - status of APSDE_DATA_REQUEST
//  299  *
//  300  * @return      none
//  301  */

        RSEG BANKED_CODE:CODE:NOROOT(0)
//  302 void afReflectError( uint8 dstAddrMode, uint16 dstAddr, uint8 endPoint, uint8 transID, ZStatus_t status )
afReflectError:
          CFI Block cfiBlock21 Using cfiCommon0
          CFI Function afReflectError
        CODE
//  303 {
        FUNCALL afReflectError, afFindEndPointDesc
        LOCFRAME ISTACK, 0, STACK
        LOCFRAME PSTACK, 0, STACK
        LOCFRAME XSTACK, 16, STACK
        LOCFRAME IOVERLAY, 0, STATIC
        LOCFRAME DOVERLAY, 0, STATIC
        ARGFRAME ISTACK, 0, STACK
        ARGFRAME PSTACK, 0, STACK
        ARGFRAME XSTACK, 16, STACK
        ARGFRAME IOVERLAY, 0, STATIC
        ARGFRAME DOVERLAY, 0, STATIC
        FUNCALL afReflectError, osal_msg_allocate
        LOCFRAME ISTACK, 0, STACK
        LOCFRAME PSTACK, 0, STACK
        LOCFRAME XSTACK, 16, STACK
        LOCFRAME IOVERLAY, 0, STATIC
        LOCFRAME DOVERLAY, 0, STATIC
        ARGFRAME ISTACK, 0, STACK
        ARGFRAME PSTACK, 0, STACK
        ARGFRAME XSTACK, 16, STACK
        ARGFRAME IOVERLAY, 0, STATIC
        ARGFRAME DOVERLAY, 0, STATIC
        FUNCALL afReflectError, osal_msg_send
        LOCFRAME ISTACK, 0, STACK
        LOCFRAME PSTACK, 0, STACK
        LOCFRAME XSTACK, 16, STACK
        LOCFRAME IOVERLAY, 0, STATIC
        LOCFRAME DOVERLAY, 0, STATIC
        ARGFRAME ISTACK, 0, STACK
        ARGFRAME PSTACK, 0, STACK
        ARGFRAME XSTACK, 16, STACK
        ARGFRAME IOVERLAY, 0, STATIC
        ARGFRAME DOVERLAY, 0, STATIC
        REQUIRE ?V0
        REQUIRE ?V2
        REQUIRE ?V3
        REQUIRE ?V4
        REQUIRE ?V5
        REQUIRE ?V6
        REQUIRE ?V7
        MOV     A,#-0x10
        LCALL   ?BANKED_ENTER_XDATA
          CFI DPH0 load(1, XDATA, add(CFA_XSP16, literal(-1)))
          CFI DPL0 load(1, XDATA, add(CFA_XSP16, literal(-2)))
          CFI ?BRET_EXT load(1, XDATA, add(CFA_XSP16, literal(-3)))
          CFI ?RET_HIGH load(1, XDATA, add(CFA_XSP16, literal(-4)))
          CFI ?RET_LOW load(1, XDATA, add(CFA_XSP16, literal(-5)))
          CFI R7 load(1, XDATA, add(CFA_XSP16, literal(-6)))
          CFI V7 load(1, XDATA, add(CFA_XSP16, literal(-7)))
          CFI V6 load(1, XDATA, add(CFA_XSP16, literal(-8)))
          CFI V5 load(1, XDATA, add(CFA_XSP16, literal(-9)))
          CFI V4 load(1, XDATA, add(CFA_XSP16, literal(-10)))
          CFI V3 load(1, XDATA, add(CFA_XSP16, literal(-11)))
          CFI V2 load(1, XDATA, add(CFA_XSP16, literal(-12)))
          CFI V1 load(1, XDATA, add(CFA_XSP16, literal(-13)))
          CFI V0 load(1, XDATA, add(CFA_XSP16, literal(-14)))
          CFI VB load(1, XDATA, add(CFA_XSP16, literal(-15)))
          CFI R6 load(1, XDATA, add(CFA_XSP16, literal(-16)))
          CFI CFA_SP SP+0
          CFI CFA_XSP16 add(XSP16, 16)
        ; Saved register size: 16
        ; Auto size: 0
        MOV     A,R1
        MOV     R7,A
        MOV     ?V6,R2
        MOV     ?V7,R3
        MOV     A,R4
        MOV     R6,A
        MOV     ?V0,R5
//  304   endPointDesc_t *epDesc;
//  305   afReflectError_t *msgPtr;
//  306 
//  307   // Find the endpoint description
//  308   epDesc = afFindEndPointDesc( endPoint );
        ; Setup parameters for call to function afFindEndPointDesc
        MOV     R1,A
        LCALL   `??afFindEndPointDesc::?relay`; Banked call to: afFindEndPointDesc
        MOV     ?V4,R2
        MOV     ?V5,R3
//  309   if ( epDesc == NULL )
        MOV     A,R2
        ORL     A,?V5
        JZ      ??afReflectError_0
//  310     return;
//  311 
//  312   // Determine the incoming command type
//  313   msgPtr = (afReflectError_t *)osal_msg_allocate( sizeof(afReflectError_t) );
        ; Setup parameters for call to function osal_msg_allocate
        MOV     R2,#0x7
        MOV     R3,#0x0
        LCALL   `??osal_msg_allocate::?relay`; Banked call to: osal_msg_allocate
//  314   if ( msgPtr )
        MOV     A,R2
        ORL     A,R3
        JZ      ??afReflectError_0
//  315   {
//  316     // Build the Data Confirm message
//  317     msgPtr->hdr.event = AF_REFLECT_ERROR_CMD;
        MOV     DPL,R2
        MOV     DPH,R3
        MOV     A,#-0x2
        MOVX    @DPTR,A
//  318     msgPtr->hdr.status = status;
        MOV     A,#0x10
        LCALL   ?XSTACK_DISP0_8
        MOVX    A,@DPTR
        MOV     DPL,R2
        MOV     DPH,R3
        INC     DPTR
        LCALL   ?Subroutine28 & 0xFFFF
//  319     msgPtr->endpoint = endPoint;
//  320     msgPtr->transID = transID;
??CrossCallReturnLabel_36:
        MOV     DPL,R2
        MOV     DPH,R3
        INC     DPTR
        INC     DPTR
        INC     DPTR
        MOV     A,?V0
        MOVX    @DPTR,A
//  321     msgPtr->dstAddrMode = dstAddrMode;
        MOV     A,R7
        MOV     DPL,R2
        MOV     DPH,R3
        INC     DPTR
        INC     DPTR
        INC     DPTR
        INC     DPTR
        LCALL   ?Subroutine27 & 0xFFFF
//  322     msgPtr->dstAddr = dstAddr;
//  323 
//  324 #if defined ( MT_AF_CB_FUNC )
//  325     /* If MT has subscribed for this callback, don't send as a message. */
//  326     if ( AFCB_CHECK( CB_ID_AF_REFLECT_ERROR, *(epDesc->task_id) ) )
//  327     {
//  328       /* Send callback if it's subscribed */
//  329       MT_AfReflectError( (void *)msgPtr );
//  330       /* Release the memory. */
//  331       osal_msg_deallocate( (void *)msgPtr );
//  332     }
//  333     else
//  334 #endif
//  335     {
//  336       /* send message through task message */
//  337       osal_msg_send( *(epDesc->task_id), (uint8 *)msgPtr );
//  338     }
//  339   }
??CrossCallReturnLabel_34:
        MOV     A,?V6
        MOVX    @DPTR,A
        INC     DPTR
        MOV     A,?V7
        LCALL   ?Subroutine6 & 0xFFFF
??CrossCallReturnLabel_67:
        LCALL   `??osal_msg_send::?relay`; Banked call to: osal_msg_send
//  340 }
??afReflectError_0:
        LJMP    ??Subroutine46_0 & 0xFFFF
          CFI EndBlock cfiBlock21

        RSEG BANKED_CODE:CODE:NOROOT(0)
?Subroutine28:
          CFI Block cfiCond22 Using cfiCommon0
          CFI Function afDataConfirm
          CFI Conditional ??CrossCallReturnLabel_35
          CFI R6 load(1, XDATA, add(CFA_XSP16, literal(-14)))
          CFI VB load(1, XDATA, add(CFA_XSP16, literal(-13)))
          CFI V0 load(1, XDATA, add(CFA_XSP16, literal(-12)))
          CFI V1 load(1, XDATA, add(CFA_XSP16, literal(-11)))
          CFI V2 load(1, XDATA, add(CFA_XSP16, literal(-10)))
          CFI V3 load(1, XDATA, add(CFA_XSP16, literal(-9)))
          CFI V4 load(1, XDATA, add(CFA_XSP16, literal(-8)))
          CFI V5 load(1, XDATA, add(CFA_XSP16, literal(-7)))
          CFI R7 load(1, XDATA, add(CFA_XSP16, literal(-6)))
          CFI ?RET_LOW load(1, XDATA, add(CFA_XSP16, literal(-5)))
          CFI ?RET_HIGH load(1, XDATA, add(CFA_XSP16, literal(-4)))
          CFI ?BRET_EXT load(1, XDATA, add(CFA_XSP16, literal(-3)))
          CFI DPL0 load(1, XDATA, add(CFA_XSP16, literal(-2)))
          CFI DPH0 load(1, XDATA, add(CFA_XSP16, literal(-1)))
          CFI CFA_SP SP+-2
          CFI CFA_XSP16 add(XSP16, 14)
          CFI Block cfiCond23 Using cfiCommon0
          CFI (cfiCond23) Function afReflectError
          CFI (cfiCond23) Conditional ??CrossCallReturnLabel_36
          CFI (cfiCond23) R6 load(1, XDATA, add(CFA_XSP16, literal(-16)))
          CFI (cfiCond23) VB load(1, XDATA, add(CFA_XSP16, literal(-15)))
          CFI (cfiCond23) V0 load(1, XDATA, add(CFA_XSP16, literal(-14)))
          CFI (cfiCond23) V1 load(1, XDATA, add(CFA_XSP16, literal(-13)))
          CFI (cfiCond23) V2 load(1, XDATA, add(CFA_XSP16, literal(-12)))
          CFI (cfiCond23) V3 load(1, XDATA, add(CFA_XSP16, literal(-11)))
          CFI (cfiCond23) V4 load(1, XDATA, add(CFA_XSP16, literal(-10)))
          CFI (cfiCond23) V5 load(1, XDATA, add(CFA_XSP16, literal(-9)))
          CFI (cfiCond23) V6 load(1, XDATA, add(CFA_XSP16, literal(-8)))
          CFI (cfiCond23) V7 load(1, XDATA, add(CFA_XSP16, literal(-7)))
          CFI (cfiCond23) R7 load(1, XDATA, add(CFA_XSP16, literal(-6)))
          CFI (cfiCond23) ?RET_LOW load(1, XDATA, add(CFA_XSP16, literal(-5)))
          CFI (cfiCond23) ?RET_HIGH load(1, XDATA, add(CFA_XSP16, literal(-4)))
          CFI (cfiCond23) ?BRET_EXT load(1, XDATA, add(CFA_XSP16, literal(-3)))
          CFI (cfiCond23) DPL0 load(1, XDATA, add(CFA_XSP16, literal(-2)))
          CFI (cfiCond23) DPH0 load(1, XDATA, add(CFA_XSP16, literal(-1)))
          CFI (cfiCond23) CFA_SP SP+-2
          CFI (cfiCond23) CFA_XSP16 add(XSP16, 16)
          CFI Block cfiPicker24 Using cfiCommon1
          CFI (cfiPicker24) NoFunction
          CFI (cfiPicker24) Picker
        MOVX    @DPTR,A
        MOV     A,R6
        MOV     DPL,R2
        MOV     DPH,R3
        INC     DPTR
        INC     DPTR
        MOVX    @DPTR,A
        RET
          CFI EndBlock cfiCond22
          CFI EndBlock cfiCond23
          CFI EndBlock cfiPicker24

        RSEG BANKED_CODE:CODE:NOROOT(0)
?Subroutine27:
          CFI Block cfiCond25 Using cfiCommon0
          CFI Function afRegisterExtended
          CFI Conditional ??CrossCallReturnLabel_33
          CFI R6 load(1, XDATA, add(CFA_XSP16, literal(-12)))
          CFI VB load(1, XDATA, add(CFA_XSP16, literal(-11)))
          CFI V0 load(1, XDATA, add(CFA_XSP16, literal(-10)))
          CFI V1 load(1, XDATA, add(CFA_XSP16, literal(-9)))
          CFI V2 load(1, XDATA, add(CFA_XSP16, literal(-8)))
          CFI V3 load(1, XDATA, add(CFA_XSP16, literal(-7)))
          CFI R7 load(1, XDATA, add(CFA_XSP16, literal(-6)))
          CFI ?RET_LOW load(1, XDATA, add(CFA_XSP16, literal(-5)))
          CFI ?RET_HIGH load(1, XDATA, add(CFA_XSP16, literal(-4)))
          CFI ?BRET_EXT load(1, XDATA, add(CFA_XSP16, literal(-3)))
          CFI DPL0 load(1, XDATA, add(CFA_XSP16, literal(-2)))
          CFI DPH0 load(1, XDATA, add(CFA_XSP16, literal(-1)))
          CFI CFA_SP SP+-2
          CFI CFA_XSP16 add(XSP16, 12)
          CFI Block cfiCond26 Using cfiCommon0
          CFI (cfiCond26) Function afReflectError
          CFI (cfiCond26) Conditional ??CrossCallReturnLabel_34
          CFI (cfiCond26) R6 load(1, XDATA, add(CFA_XSP16, literal(-16)))
          CFI (cfiCond26) VB load(1, XDATA, add(CFA_XSP16, literal(-15)))
          CFI (cfiCond26) V0 load(1, XDATA, add(CFA_XSP16, literal(-14)))
          CFI (cfiCond26) V1 load(1, XDATA, add(CFA_XSP16, literal(-13)))
          CFI (cfiCond26) V2 load(1, XDATA, add(CFA_XSP16, literal(-12)))
          CFI (cfiCond26) V3 load(1, XDATA, add(CFA_XSP16, literal(-11)))
          CFI (cfiCond26) V4 load(1, XDATA, add(CFA_XSP16, literal(-10)))
          CFI (cfiCond26) V5 load(1, XDATA, add(CFA_XSP16, literal(-9)))
          CFI (cfiCond26) V6 load(1, XDATA, add(CFA_XSP16, literal(-8)))
          CFI (cfiCond26) V7 load(1, XDATA, add(CFA_XSP16, literal(-7)))
          CFI (cfiCond26) R7 load(1, XDATA, add(CFA_XSP16, literal(-6)))
          CFI (cfiCond26) ?RET_LOW load(1, XDATA, add(CFA_XSP16, literal(-5)))
          CFI (cfiCond26) ?RET_HIGH load(1, XDATA, add(CFA_XSP16, literal(-4)))
          CFI (cfiCond26) ?BRET_EXT load(1, XDATA, add(CFA_XSP16, literal(-3)))
          CFI (cfiCond26) DPL0 load(1, XDATA, add(CFA_XSP16, literal(-2)))
          CFI (cfiCond26) DPH0 load(1, XDATA, add(CFA_XSP16, literal(-1)))
          CFI (cfiCond26) CFA_SP SP+-2
          CFI (cfiCond26) CFA_XSP16 add(XSP16, 16)
          CFI Block cfiPicker27 Using cfiCommon1
          CFI (cfiPicker27) NoFunction
          CFI (cfiPicker27) Picker
        LCALL   ?Subroutine35 & 0xFFFF
??CrossCallReturnLabel_55:
        RET
          CFI EndBlock cfiCond25
          CFI EndBlock cfiCond26
          CFI EndBlock cfiPicker27

        RSEG BANKED_CODE:CODE:NOROOT(0)
?Subroutine35:
          CFI Block cfiCond28 Using cfiCommon0
          CFI Function afRegisterExtended
          CFI Conditional ??CrossCallReturnLabel_54, ??CrossCallReturnLabel_31
          CFI R6 load(1, XDATA, add(CFA_XSP16, literal(-12)))
          CFI VB load(1, XDATA, add(CFA_XSP16, literal(-11)))
          CFI V0 load(1, XDATA, add(CFA_XSP16, literal(-10)))
          CFI V1 load(1, XDATA, add(CFA_XSP16, literal(-9)))
          CFI V2 load(1, XDATA, add(CFA_XSP16, literal(-8)))
          CFI V3 load(1, XDATA, add(CFA_XSP16, literal(-7)))
          CFI R7 load(1, XDATA, add(CFA_XSP16, literal(-6)))
          CFI ?RET_LOW load(1, XDATA, add(CFA_XSP16, literal(-5)))
          CFI ?RET_HIGH load(1, XDATA, add(CFA_XSP16, literal(-4)))
          CFI ?BRET_EXT load(1, XDATA, add(CFA_XSP16, literal(-3)))
          CFI DPL0 load(1, XDATA, add(CFA_XSP16, literal(-2)))
          CFI DPH0 load(1, XDATA, add(CFA_XSP16, literal(-1)))
          CFI CFA_SP SP+-4
          CFI CFA_XSP16 add(XSP16, 12)
          CFI Block cfiCond29 Using cfiCommon0
          CFI (cfiCond29) Function afRegisterExtended
          CFI (cfiCond29) Conditional ??CrossCallReturnLabel_54, ??CrossCallReturnLabel_32
          CFI (cfiCond29) R6 load(1, XDATA, add(CFA_XSP16, literal(-12)))
          CFI (cfiCond29) VB load(1, XDATA, add(CFA_XSP16, literal(-11)))
          CFI (cfiCond29) V0 load(1, XDATA, add(CFA_XSP16, literal(-10)))
          CFI (cfiCond29) V1 load(1, XDATA, add(CFA_XSP16, literal(-9)))
          CFI (cfiCond29) V2 load(1, XDATA, add(CFA_XSP16, literal(-8)))
          CFI (cfiCond29) V3 load(1, XDATA, add(CFA_XSP16, literal(-7)))
          CFI (cfiCond29) R7 load(1, XDATA, add(CFA_XSP16, literal(-6)))
          CFI (cfiCond29) ?RET_LOW load(1, XDATA, add(CFA_XSP16, literal(-5)))
          CFI (cfiCond29) ?RET_HIGH load(1, XDATA, add(CFA_XSP16, literal(-4)))
          CFI (cfiCond29) ?BRET_EXT load(1, XDATA, add(CFA_XSP16, literal(-3)))
          CFI (cfiCond29) DPL0 load(1, XDATA, add(CFA_XSP16, literal(-2)))
          CFI (cfiCond29) DPH0 load(1, XDATA, add(CFA_XSP16, literal(-1)))
          CFI (cfiCond29) CFA_SP SP+-4
          CFI (cfiCond29) CFA_XSP16 add(XSP16, 12)
          CFI Block cfiCond30 Using cfiCommon0
          CFI (cfiCond30) Function afRegisterExtended
          CFI (cfiCond30) Conditional ??CrossCallReturnLabel_55, ??CrossCallReturnLabel_33
          CFI (cfiCond30) R6 load(1, XDATA, add(CFA_XSP16, literal(-12)))
          CFI (cfiCond30) VB load(1, XDATA, add(CFA_XSP16, literal(-11)))
          CFI (cfiCond30) V0 load(1, XDATA, add(CFA_XSP16, literal(-10)))
          CFI (cfiCond30) V1 load(1, XDATA, add(CFA_XSP16, literal(-9)))
          CFI (cfiCond30) V2 load(1, XDATA, add(CFA_XSP16, literal(-8)))
          CFI (cfiCond30) V3 load(1, XDATA, add(CFA_XSP16, literal(-7)))
          CFI (cfiCond30) R7 load(1, XDATA, add(CFA_XSP16, literal(-6)))
          CFI (cfiCond30) ?RET_LOW load(1, XDATA, add(CFA_XSP16, literal(-5)))
          CFI (cfiCond30) ?RET_HIGH load(1, XDATA, add(CFA_XSP16, literal(-4)))
          CFI (cfiCond30) ?BRET_EXT load(1, XDATA, add(CFA_XSP16, literal(-3)))
          CFI (cfiCond30) DPL0 load(1, XDATA, add(CFA_XSP16, literal(-2)))
          CFI (cfiCond30) DPH0 load(1, XDATA, add(CFA_XSP16, literal(-1)))
          CFI (cfiCond30) CFA_SP SP+-4
          CFI (cfiCond30) CFA_XSP16 add(XSP16, 12)
          CFI Block cfiCond31 Using cfiCommon0
          CFI (cfiCond31) Function afReflectError
          CFI (cfiCond31) Conditional ??CrossCallReturnLabel_55, ??CrossCallReturnLabel_34
          CFI (cfiCond31) R6 load(1, XDATA, add(CFA_XSP16, literal(-16)))
          CFI (cfiCond31) VB load(1, XDATA, add(CFA_XSP16, literal(-15)))
          CFI (cfiCond31) V0 load(1, XDATA, add(CFA_XSP16, literal(-14)))
          CFI (cfiCond31) V1 load(1, XDATA, add(CFA_XSP16, literal(-13)))
          CFI (cfiCond31) V2 load(1, XDATA, add(CFA_XSP16, literal(-12)))
          CFI (cfiCond31) V3 load(1, XDATA, add(CFA_XSP16, literal(-11)))
          CFI (cfiCond31) V4 load(1, XDATA, add(CFA_XSP16, literal(-10)))
          CFI (cfiCond31) V5 load(1, XDATA, add(CFA_XSP16, literal(-9)))
          CFI (cfiCond31) V6 load(1, XDATA, add(CFA_XSP16, literal(-8)))
          CFI (cfiCond31) V7 load(1, XDATA, add(CFA_XSP16, literal(-7)))
          CFI (cfiCond31) R7 load(1, XDATA, add(CFA_XSP16, literal(-6)))
          CFI (cfiCond31) ?RET_LOW load(1, XDATA, add(CFA_XSP16, literal(-5)))
          CFI (cfiCond31) ?RET_HIGH load(1, XDATA, add(CFA_XSP16, literal(-4)))
          CFI (cfiCond31) ?BRET_EXT load(1, XDATA, add(CFA_XSP16, literal(-3)))
          CFI (cfiCond31) DPL0 load(1, XDATA, add(CFA_XSP16, literal(-2)))
          CFI (cfiCond31) DPH0 load(1, XDATA, add(CFA_XSP16, literal(-1)))
          CFI (cfiCond31) CFA_SP SP+-4
          CFI (cfiCond31) CFA_XSP16 add(XSP16, 16)
          CFI Block cfiPicker32 Using cfiCommon1
          CFI (cfiPicker32) NoFunction
          CFI (cfiPicker32) Picker
        LCALL   ?Subroutine42 & 0xFFFF
??CrossCallReturnLabel_65:
        INC     DPTR
        RET
          CFI EndBlock cfiCond28
          CFI EndBlock cfiCond29
          CFI EndBlock cfiCond30
          CFI EndBlock cfiCond31
          CFI EndBlock cfiPicker32

        RSEG BANKED_CODE:CODE:NOROOT(0)
?Subroutine42:
          CFI Block cfiCond33 Using cfiCommon0
          CFI Function afRegisterExtended
          CFI Conditional ??CrossCallReturnLabel_64
          CFI R6 load(1, XDATA, add(CFA_XSP16, literal(-12)))
          CFI VB load(1, XDATA, add(CFA_XSP16, literal(-11)))
          CFI V0 load(1, XDATA, add(CFA_XSP16, literal(-10)))
          CFI V1 load(1, XDATA, add(CFA_XSP16, literal(-9)))
          CFI V2 load(1, XDATA, add(CFA_XSP16, literal(-8)))
          CFI V3 load(1, XDATA, add(CFA_XSP16, literal(-7)))
          CFI R7 load(1, XDATA, add(CFA_XSP16, literal(-6)))
          CFI ?RET_LOW load(1, XDATA, add(CFA_XSP16, literal(-5)))
          CFI ?RET_HIGH load(1, XDATA, add(CFA_XSP16, literal(-4)))
          CFI ?BRET_EXT load(1, XDATA, add(CFA_XSP16, literal(-3)))
          CFI DPL0 load(1, XDATA, add(CFA_XSP16, literal(-2)))
          CFI DPH0 load(1, XDATA, add(CFA_XSP16, literal(-1)))
          CFI CFA_SP SP+-2
          CFI CFA_XSP16 add(XSP16, 12)
          CFI Block cfiCond34 Using cfiCommon0
          CFI (cfiCond34) Function afRegisterExtended
          CFI (cfiCond34) Conditional ??CrossCallReturnLabel_65, ??CrossCallReturnLabel_54, ??CrossCallReturnLabel_31
          CFI (cfiCond34) R6 load(1, XDATA, add(CFA_XSP16, literal(-12)))
          CFI (cfiCond34) VB load(1, XDATA, add(CFA_XSP16, literal(-11)))
          CFI (cfiCond34) V0 load(1, XDATA, add(CFA_XSP16, literal(-10)))
          CFI (cfiCond34) V1 load(1, XDATA, add(CFA_XSP16, literal(-9)))
          CFI (cfiCond34) V2 load(1, XDATA, add(CFA_XSP16, literal(-8)))
          CFI (cfiCond34) V3 load(1, XDATA, add(CFA_XSP16, literal(-7)))
          CFI (cfiCond34) R7 load(1, XDATA, add(CFA_XSP16, literal(-6)))
          CFI (cfiCond34) ?RET_LOW load(1, XDATA, add(CFA_XSP16, literal(-5)))
          CFI (cfiCond34) ?RET_HIGH load(1, XDATA, add(CFA_XSP16, literal(-4)))
          CFI (cfiCond34) ?BRET_EXT load(1, XDATA, add(CFA_XSP16, literal(-3)))
          CFI (cfiCond34) DPL0 load(1, XDATA, add(CFA_XSP16, literal(-2)))
          CFI (cfiCond34) DPH0 load(1, XDATA, add(CFA_XSP16, literal(-1)))
          CFI (cfiCond34) CFA_SP SP+-6
          CFI (cfiCond34) CFA_XSP16 add(XSP16, 12)
          CFI Block cfiCond35 Using cfiCommon0
          CFI (cfiCond35) Function afRegisterExtended
          CFI (cfiCond35) Conditional ??CrossCallReturnLabel_65, ??CrossCallReturnLabel_54, ??CrossCallReturnLabel_32
          CFI (cfiCond35) R6 load(1, XDATA, add(CFA_XSP16, literal(-12)))
          CFI (cfiCond35) VB load(1, XDATA, add(CFA_XSP16, literal(-11)))
          CFI (cfiCond35) V0 load(1, XDATA, add(CFA_XSP16, literal(-10)))
          CFI (cfiCond35) V1 load(1, XDATA, add(CFA_XSP16, literal(-9)))
          CFI (cfiCond35) V2 load(1, XDATA, add(CFA_XSP16, literal(-8)))
          CFI (cfiCond35) V3 load(1, XDATA, add(CFA_XSP16, literal(-7)))
          CFI (cfiCond35) R7 load(1, XDATA, add(CFA_XSP16, literal(-6)))
          CFI (cfiCond35) ?RET_LOW load(1, XDATA, add(CFA_XSP16, literal(-5)))
          CFI (cfiCond35) ?RET_HIGH load(1, XDATA, add(CFA_XSP16, literal(-4)))
          CFI (cfiCond35) ?BRET_EXT load(1, XDATA, add(CFA_XSP16, literal(-3)))
          CFI (cfiCond35) DPL0 load(1, XDATA, add(CFA_XSP16, literal(-2)))
          CFI (cfiCond35) DPH0 load(1, XDATA, add(CFA_XSP16, literal(-1)))
          CFI (cfiCond35) CFA_SP SP+-6
          CFI (cfiCond35) CFA_XSP16 add(XSP16, 12)
          CFI Block cfiCond36 Using cfiCommon0
          CFI (cfiCond36) Function afRegisterExtended
          CFI (cfiCond36) Conditional ??CrossCallReturnLabel_65, ??CrossCallReturnLabel_55, ??CrossCallReturnLabel_33
          CFI (cfiCond36) R6 load(1, XDATA, add(CFA_XSP16, literal(-12)))
          CFI (cfiCond36) VB load(1, XDATA, add(CFA_XSP16, literal(-11)))
          CFI (cfiCond36) V0 load(1, XDATA, add(CFA_XSP16, literal(-10)))
          CFI (cfiCond36) V1 load(1, XDATA, add(CFA_XSP16, literal(-9)))
          CFI (cfiCond36) V2 load(1, XDATA, add(CFA_XSP16, literal(-8)))
          CFI (cfiCond36) V3 load(1, XDATA, add(CFA_XSP16, literal(-7)))
          CFI (cfiCond36) R7 load(1, XDATA, add(CFA_XSP16, literal(-6)))
          CFI (cfiCond36) ?RET_LOW load(1, XDATA, add(CFA_XSP16, literal(-5)))
          CFI (cfiCond36) ?RET_HIGH load(1, XDATA, add(CFA_XSP16, literal(-4)))
          CFI (cfiCond36) ?BRET_EXT load(1, XDATA, add(CFA_XSP16, literal(-3)))
          CFI (cfiCond36) DPL0 load(1, XDATA, add(CFA_XSP16, literal(-2)))
          CFI (cfiCond36) DPH0 load(1, XDATA, add(CFA_XSP16, literal(-1)))
          CFI (cfiCond36) CFA_SP SP+-6
          CFI (cfiCond36) CFA_XSP16 add(XSP16, 12)
          CFI Block cfiCond37 Using cfiCommon0
          CFI (cfiCond37) Function afReflectError
          CFI (cfiCond37) Conditional ??CrossCallReturnLabel_65, ??CrossCallReturnLabel_55, ??CrossCallReturnLabel_34
          CFI (cfiCond37) R6 load(1, XDATA, add(CFA_XSP16, literal(-16)))
          CFI (cfiCond37) VB load(1, XDATA, add(CFA_XSP16, literal(-15)))
          CFI (cfiCond37) V0 load(1, XDATA, add(CFA_XSP16, literal(-14)))
          CFI (cfiCond37) V1 load(1, XDATA, add(CFA_XSP16, literal(-13)))
          CFI (cfiCond37) V2 load(1, XDATA, add(CFA_XSP16, literal(-12)))
          CFI (cfiCond37) V3 load(1, XDATA, add(CFA_XSP16, literal(-11)))
          CFI (cfiCond37) V4 load(1, XDATA, add(CFA_XSP16, literal(-10)))
          CFI (cfiCond37) V5 load(1, XDATA, add(CFA_XSP16, literal(-9)))
          CFI (cfiCond37) V6 load(1, XDATA, add(CFA_XSP16, literal(-8)))
          CFI (cfiCond37) V7 load(1, XDATA, add(CFA_XSP16, literal(-7)))
          CFI (cfiCond37) R7 load(1, XDATA, add(CFA_XSP16, literal(-6)))
          CFI (cfiCond37) ?RET_LOW load(1, XDATA, add(CFA_XSP16, literal(-5)))
          CFI (cfiCond37) ?RET_HIGH load(1, XDATA, add(CFA_XSP16, literal(-4)))
          CFI (cfiCond37) ?BRET_EXT load(1, XDATA, add(CFA_XSP16, literal(-3)))
          CFI (cfiCond37) DPL0 load(1, XDATA, add(CFA_XSP16, literal(-2)))
          CFI (cfiCond37) DPH0 load(1, XDATA, add(CFA_XSP16, literal(-1)))
          CFI (cfiCond37) CFA_SP SP+-6
          CFI (cfiCond37) CFA_XSP16 add(XSP16, 16)
          CFI Block cfiPicker38 Using cfiCommon1
          CFI (cfiPicker38) NoFunction
          CFI (cfiPicker38) Picker
        MOVX    @DPTR,A
        MOV     DPL,R2
        MOV     DPH,R3
        INC     DPTR
        INC     DPTR
        INC     DPTR
        INC     DPTR
        RET
          CFI EndBlock cfiCond33
          CFI EndBlock cfiCond34
          CFI EndBlock cfiCond35
          CFI EndBlock cfiCond36
          CFI EndBlock cfiCond37
          CFI EndBlock cfiPicker38
//  341 
//  342 /*********************************************************************
//  343  * @fn          afIncomingData
//  344  *
//  345  * @brief       Transfer a data PDU (ASDU) from the APS sub-layer to the AF.
//  346  *
//  347  * @param       aff  - pointer to APS frame format
//  348  * @param       SrcAddress  - Source address
//  349  * @param       SrcPanId  - Source PAN ID
//  350  * @param       sig - incoming message's link quality
//  351  * @param       nwkSeqNum - incoming network sequence number (from nwk header frame)
//  352  * @param       SecurityUse - Security enable/disable
//  353  * @param       timestamp - the MAC Timer2 timestamp at Rx.
//  354  * @param       radius - incoming messages received radius
//  355  *
//  356  * @return      none
//  357  */

        RSEG BANKED_CODE:CODE:NOROOT(0)
//  358 void afIncomingData( aps_FrameFormat_t *aff, zAddrType_t *SrcAddress, uint16 SrcPanId,
afIncomingData:
          CFI Block cfiBlock39 Using cfiCommon0
          CFI Function afIncomingData
        CODE
//  359                      NLDE_Signal_t *sig, uint8 nwkSeqNum, uint8 SecurityUse,
//  360                      uint32 timestamp, uint8 radius )
//  361 {
        FUNCALL afIncomingData, aps_FindGroupForEndpoint
        LOCFRAME ISTACK, 0, STACK
        LOCFRAME PSTACK, 0, STACK
        LOCFRAME XSTACK, 25, STACK
        LOCFRAME IOVERLAY, 0, STATIC
        LOCFRAME DOVERLAY, 0, STATIC
        ARGFRAME ISTACK, 0, STACK
        ARGFRAME PSTACK, 0, STACK
        ARGFRAME XSTACK, 25, STACK
        ARGFRAME IOVERLAY, 0, STATIC
        ARGFRAME DOVERLAY, 0, STATIC
        FUNCALL afIncomingData, afFindEndPointDesc
        LOCFRAME ISTACK, 0, STACK
        LOCFRAME PSTACK, 0, STACK
        LOCFRAME XSTACK, 25, STACK
        LOCFRAME IOVERLAY, 0, STATIC
        LOCFRAME DOVERLAY, 0, STATIC
        ARGFRAME ISTACK, 0, STACK
        ARGFRAME PSTACK, 0, STACK
        ARGFRAME XSTACK, 25, STACK
        ARGFRAME IOVERLAY, 0, STATIC
        ARGFRAME DOVERLAY, 0, STATIC
        FUNCALL afIncomingData, afFindEndPointDesc
        LOCFRAME ISTACK, 0, STACK
        LOCFRAME PSTACK, 0, STACK
        LOCFRAME XSTACK, 25, STACK
        LOCFRAME IOVERLAY, 0, STATIC
        LOCFRAME DOVERLAY, 0, STATIC
        ARGFRAME ISTACK, 0, STACK
        ARGFRAME PSTACK, 0, STACK
        ARGFRAME XSTACK, 25, STACK
        ARGFRAME IOVERLAY, 0, STATIC
        ARGFRAME DOVERLAY, 0, STATIC
        FUNCALL afIncomingData, afFindEndPointDescList
        LOCFRAME ISTACK, 0, STACK
        LOCFRAME PSTACK, 0, STACK
        LOCFRAME XSTACK, 25, STACK
        LOCFRAME IOVERLAY, 0, STATIC
        LOCFRAME DOVERLAY, 0, STATIC
        ARGFRAME ISTACK, 0, STACK
        ARGFRAME PSTACK, 0, STACK
        ARGFRAME XSTACK, 25, STACK
        ARGFRAME IOVERLAY, 0, STATIC
        ARGFRAME DOVERLAY, 0, STATIC
        FUNCALL afIncomingData, afFindEndPointDescList
        LOCFRAME ISTACK, 0, STACK
        LOCFRAME PSTACK, 0, STACK
        LOCFRAME XSTACK, 25, STACK
        LOCFRAME IOVERLAY, 0, STATIC
        LOCFRAME DOVERLAY, 0, STATIC
        ARGFRAME ISTACK, 0, STACK
        ARGFRAME PSTACK, 0, STACK
        ARGFRAME XSTACK, 25, STACK
        ARGFRAME IOVERLAY, 0, STATIC
        ARGFRAME DOVERLAY, 0, STATIC
        FUNCALL afIncomingData, osal_mem_free
        LOCFRAME ISTACK, 0, STACK
        LOCFRAME PSTACK, 0, STACK
        LOCFRAME XSTACK, 25, STACK
        LOCFRAME IOVERLAY, 0, STATIC
        LOCFRAME DOVERLAY, 0, STATIC
        ARGFRAME ISTACK, 0, STACK
        ARGFRAME PSTACK, 0, STACK
        ARGFRAME XSTACK, 25, STACK
        ARGFRAME IOVERLAY, 0, STATIC
        ARGFRAME DOVERLAY, 0, STATIC
        FUNCALL afIncomingData, afBuildMSGIncoming
        LOCFRAME ISTACK, 0, STACK
        LOCFRAME PSTACK, 0, STACK
        LOCFRAME XSTACK, 37, STACK
        LOCFRAME IOVERLAY, 0, STATIC
        LOCFRAME DOVERLAY, 0, STATIC
        ARGFRAME ISTACK, 0, STACK
        ARGFRAME PSTACK, 0, STACK
        ARGFRAME XSTACK, 37, STACK
        ARGFRAME IOVERLAY, 0, STATIC
        ARGFRAME DOVERLAY, 0, STATIC
        FUNCALL afIncomingData, aps_FindGroupForEndpoint
        LOCFRAME ISTACK, 0, STACK
        LOCFRAME PSTACK, 0, STACK
        LOCFRAME XSTACK, 25, STACK
        LOCFRAME IOVERLAY, 0, STATIC
        LOCFRAME DOVERLAY, 0, STATIC
        ARGFRAME ISTACK, 0, STACK
        ARGFRAME PSTACK, 0, STACK
        ARGFRAME XSTACK, 25, STACK
        ARGFRAME IOVERLAY, 0, STATIC
        ARGFRAME DOVERLAY, 0, STATIC
        FUNCALL afIncomingData, afFindEndPointDesc
        LOCFRAME ISTACK, 0, STACK
        LOCFRAME PSTACK, 0, STACK
        LOCFRAME XSTACK, 25, STACK
        LOCFRAME IOVERLAY, 0, STATIC
        LOCFRAME DOVERLAY, 0, STATIC
        ARGFRAME ISTACK, 0, STACK
        ARGFRAME PSTACK, 0, STACK
        ARGFRAME XSTACK, 25, STACK
        ARGFRAME IOVERLAY, 0, STATIC
        ARGFRAME DOVERLAY, 0, STATIC
        REQUIRE ?V0
        REQUIRE ?V1
        REQUIRE ?V2
        REQUIRE ?V3
        REQUIRE ?V4
        REQUIRE ?V5
        REQUIRE ?V6
        REQUIRE ?V7
        MOV     A,#-0x10
        LCALL   ?BANKED_ENTER_XDATA
          CFI DPH0 load(1, XDATA, add(CFA_XSP16, literal(-1)))
          CFI DPL0 load(1, XDATA, add(CFA_XSP16, literal(-2)))
          CFI ?BRET_EXT load(1, XDATA, add(CFA_XSP16, literal(-3)))
          CFI ?RET_HIGH load(1, XDATA, add(CFA_XSP16, literal(-4)))
          CFI ?RET_LOW load(1, XDATA, add(CFA_XSP16, literal(-5)))
          CFI R7 load(1, XDATA, add(CFA_XSP16, literal(-6)))
          CFI V7 load(1, XDATA, add(CFA_XSP16, literal(-7)))
          CFI V6 load(1, XDATA, add(CFA_XSP16, literal(-8)))
          CFI V5 load(1, XDATA, add(CFA_XSP16, literal(-9)))
          CFI V4 load(1, XDATA, add(CFA_XSP16, literal(-10)))
          CFI V3 load(1, XDATA, add(CFA_XSP16, literal(-11)))
          CFI V2 load(1, XDATA, add(CFA_XSP16, literal(-12)))
          CFI V1 load(1, XDATA, add(CFA_XSP16, literal(-13)))
          CFI V0 load(1, XDATA, add(CFA_XSP16, literal(-14)))
          CFI VB load(1, XDATA, add(CFA_XSP16, literal(-15)))
          CFI R6 load(1, XDATA, add(CFA_XSP16, literal(-16)))
          CFI CFA_SP SP+0
          CFI CFA_XSP16 add(XSP16, 16)
        ; Saved register size: 16
        ; Auto size: 9
        MOV     A,#-0x9
        LCALL   ?ALLOC_XSTACK8
          CFI CFA_XSP16 add(XSP16, 25)
        MOV     A,#0x1
        LCALL   ?XSTACK_DISP0_8
        LCALL   ?Subroutine29 & 0xFFFF
??CrossCallReturnLabel_38:
        MOV     A,#0x7
        LCALL   ?XSTACK_DISP0_8
        MOV     A,R4
        MOVX    @DPTR,A
        INC     DPTR
        MOV     A,R5
        MOVX    @DPTR,A
        MOV     A,#0x6
        LCALL   ?XSTACK_DISP0_8
        MOV     A,R1
        MOVX    @DPTR,A
//  362   endPointDesc_t *epDesc = NULL;
//  363   epList_t *pList = epList;
        MOV     DPTR,#epList
        LCALL   ??Subroutine56_0 & 0xFFFF
??CrossCallReturnLabel_123:
        MOV     A,#0x3
        LCALL   ?XSTACK_DISP0_8
        LCALL   ??Subroutine44_0 & 0xFFFF
//  364 #if !defined ( APS_NO_GROUPS )
//  365   uint8 grpEp = APS_GROUPS_EP_NOT_FOUND;
??CrossCallReturnLabel_73:
        MOV     DPL,?XSP + 0
        MOV     DPH,?XSP + 1
        MOV     A,#-0x2
        MOVX    @DPTR,A
//  366 #endif
//  367 
//  368   if ( ((aff->FrmCtrl & APS_DELIVERYMODE_MASK) == APS_FC_DM_GROUP) )
        MOV     A,#0x1
        LCALL   ?XSTACK_DISP0_8
        LCALL   ?Subroutine11 & 0xFFFF
??CrossCallReturnLabel_6:
        JNZ     ??afIncomingData_0
//  369   {
//  370 #if !defined ( APS_NO_GROUPS )
//  371     // Find the first endpoint for this group
//  372     grpEp = aps_FindGroupForEndpoint( aff->GroupID, APS_GROUPS_FIND_FIRST );
        ; Setup parameters for call to function aps_FindGroupForEndpoint
        MOV     R1,#-0x2
        MOV     A,#0x1
        LCALL   ?XSTACK_DISP0_8
        LCALL   ?Subroutine8 & 0xFFFF
??CrossCallReturnLabel_111:
        LCALL   `??aps_FindGroupForEndpoint::?relay`; Banked call to: aps_FindGroupForEndpoint
        MOV     A,R1
        MOV     DPL,?XSP + 0
        MOV     DPH,?XSP + 1
        MOVX    @DPTR,A
//  373     if ( grpEp == APS_GROUPS_EP_NOT_FOUND )
        XRL     A,#0xfe
        JNZ     $+5
        LJMP    ??afIncomingData_1 & 0xFFFF
//  374       return;   // No endpoint found
//  375 
//  376     epDesc = afFindEndPointDesc( grpEp );
        ; Setup parameters for call to function afFindEndPointDesc
        LCALL   `??afFindEndPointDesc::?relay`; Banked call to: afFindEndPointDesc
        MOV     ?V0,R2
        MOV     ?V1,R3
        MOV     R6,?V0
        MOV     R7,?V1
//  377     if ( epDesc == NULL )
        MOV     A,R6
        ORL     A,R7
        JNZ     ??afIncomingData_2
//  378       return;   // Endpoint descriptor not found
        LJMP    ??afIncomingData_1 & 0xFFFF
//  379 
//  380     pList = afFindEndPointDescList( epDesc->endPoint );
//  381 #else
//  382     return; // Not supported
//  383 #endif
//  384   }
//  385   else if ( aff->DstEndPoint == AF_BROADCAST_ENDPOINT )
??afIncomingData_0:
        MOV     A,#0x1
        LCALL   ?XSTACK_DISP0_8
        LCALL   ?Subroutine20 & 0xFFFF
??CrossCallReturnLabel_25:
        JNZ     ??afIncomingData_3
//  386   {
//  387     // Set the list
//  388     if ( pList != NULL )
        MOV     A,#0x3
        LCALL   ?XSTACK_DISP0_8
        LCALL   ??Subroutine45_0 & 0xFFFF
??CrossCallReturnLabel_86:
        JNZ     $+5
        LJMP    ??afIncomingData_1 & 0xFFFF
//  389     {
//  390       epDesc = pList->epDesc;
        MOV     A,#0x3
        LCALL   ?XSTACK_DISP0_8
        LCALL   ?Subroutine12 & 0xFFFF
//  391     }
//  392   }
??CrossCallReturnLabel_8:
        MOV     A,#0x1e
        LCALL   ?XSTACK_DISP0_8
        MOV     R0,#?V0
        LCALL   ?L_MOV_X
        SJMP    ??CrossCallReturnLabel_9
//  393   else if ( (epDesc = afFindEndPointDesc( aff->DstEndPoint )) )
??afIncomingData_3:
        ; Setup parameters for call to function afFindEndPointDesc
        MOV     A,#0x1
        LCALL   ?XSTACK_DISP0_8
        LCALL   ??Subroutine47_0 & 0xFFFF
??CrossCallReturnLabel_93:
        INC     DPTR
        MOVX    A,@DPTR
        MOV     R1,A
        LCALL   `??afFindEndPointDesc::?relay`; Banked call to: afFindEndPointDesc
        MOV     ?V0,R2
        MOV     ?V1,R3
        MOV     R0,?V0
        MOV     R1,?V1
        MOV     A,R0
        MOV     R6,A
        MOV     A,R1
        MOV     R7,A
        MOV     A,R0
        ORL     A,R1
        JZ      ??CrossCallReturnLabel_8
//  394   {
//  395     pList = afFindEndPointDescList( epDesc->endPoint );
??afIncomingData_2:
        ; Setup parameters for call to function afFindEndPointDescList
        MOV     DPL,R6
        MOV     DPH,R7
        MOVX    A,@DPTR
        MOV     R1,A
        LCALL   `??afFindEndPointDescList::?relay`; Banked call to: afFindEndPointDescList
        MOV     A,#0x3
        LCALL   ?XSTACK_DISP0_8
        LCALL   ?Subroutine29 & 0xFFFF
//  396   }
??CrossCallReturnLabel_39:
        SJMP    ??CrossCallReturnLabel_8
//  397 
//  398   while ( epDesc )
//  399   {
//  400     uint16 epProfileID = 0xFFFE;  // Invalid Profile ID
//  401 
//  402     if ( pList->pfnDescCB )
//  403     {
//  404       uint16 *pID = (uint16 *)(pList->pfnDescCB(
//  405                                  AF_DESCRIPTOR_PROFILE_ID, epDesc->endPoint ));
//  406       if ( pID )
//  407       {
//  408         epProfileID = *pID;
//  409         osal_mem_free( pID );
//  410       }
//  411     }
//  412     else if ( epDesc->simpleDesc )
//  413     {
//  414       epProfileID = epDesc->simpleDesc->AppProfId;
//  415     }
//  416 
//  417     // First part of verification is to make sure that:
//  418     // the local Endpoint ProfileID matches the received ProfileID OR
//  419     // the message is specifically send to ZDO (this excludes the broadcast endpoint) OR
//  420     // if the Wildcard ProfileID is received the message should not be sent to ZDO endpoint
//  421     if ( (aff->ProfileID == epProfileID) ||
//  422          ((epDesc->endPoint == ZDO_EP) && (aff->ProfileID == ZDO_PROFILE_ID)) ||
//  423          ((epDesc->endPoint != ZDO_EP) && ( aff->ProfileID == ZDO_WILDCARD_PROFILE_ID )) )
//  424     {
//  425       // Save original endpoint
//  426       uint8 endpoint = aff->DstEndPoint;
//  427 
//  428       // overwrite with descriptor's endpoint
//  429       aff->DstEndPoint = epDesc->endPoint;
//  430 
//  431       afBuildMSGIncoming( aff, epDesc, SrcAddress, SrcPanId, sig,
//  432                          nwkSeqNum, SecurityUse, timestamp, radius );
//  433 
//  434       // Restore with original endpoint
//  435       aff->DstEndPoint = endpoint;
//  436     }
//  437 
//  438     if ( ((aff->FrmCtrl & APS_DELIVERYMODE_MASK) == APS_FC_DM_GROUP) )
//  439     {
//  440 #if !defined ( APS_NO_GROUPS )
//  441       // Find the next endpoint for this group
//  442       grpEp = aps_FindGroupForEndpoint( aff->GroupID, grpEp );
//  443       if ( grpEp == APS_GROUPS_EP_NOT_FOUND )
//  444         return;   // No endpoint found
//  445 
//  446       epDesc = afFindEndPointDesc( grpEp );
//  447       if ( epDesc == NULL )
//  448         return;   // Endpoint descriptor not found
//  449 
//  450       pList = afFindEndPointDescList( epDesc->endPoint );
//  451 #else
//  452       return;
//  453 #endif
//  454     }
//  455     else if ( aff->DstEndPoint == AF_BROADCAST_ENDPOINT )
//  456     {
//  457       pList = pList->nextDesc;
//  458       if ( pList )
//  459         epDesc = pList->epDesc;
??afIncomingData_4:
        LCALL   ?Subroutine12 & 0xFFFF
??CrossCallReturnLabel_9:
        MOV     A,R6
        ORL     A,R7
        JNZ     $+5
        LJMP    ??afIncomingData_1 & 0xFFFF
        SJMP    ??CrossCallReturnLabel_40
??afIncomingData_5:
        ; Setup parameters for call to function afFindEndPointDescList
        MOV     DPL,R6
        MOV     DPH,R7
        MOVX    A,@DPTR
        MOV     R1,A
        LCALL   `??afFindEndPointDescList::?relay`; Banked call to: afFindEndPointDescList
        MOV     A,#0x3
        LCALL   ?XSTACK_DISP0_8
        LCALL   ?Subroutine29 & 0xFFFF
??CrossCallReturnLabel_40:
        MOV     ?V6,#-0x2
        MOV     ?V7,#-0x1
        MOV     A,#0x3
        LCALL   ?XSTACK_DISP0_8
        MOVX    A,@DPTR
        MOV     R0,A
        LCALL   ??Subroutine47_0 & 0xFFFF
??CrossCallReturnLabel_94:
        LCALL   ?Subroutine5 & 0xFFFF
??CrossCallReturnLabel_90:
        MOV     DPL,R6
        MOV     DPH,R7
        JZ      ??afIncomingData_6
        ; Setup parameters for indirect call
        MOVX    A,@DPTR
        MOV     R2,A
        MOV     R1,#0x2
        MOV     A,#0x3
        LCALL   ?XSTACK_DISP0_8
        MOVX    A,@DPTR
        MOV     R0,A
        LCALL   ??Subroutine47_0 & 0xFFFF
??CrossCallReturnLabel_95:
        LCALL   ??Subroutine52_0 & 0xFFFF
??CrossCallReturnLabel_116:
        LCALL   ?CALL_IND
        MOV     A,R2
        ORL     A,R3
        JZ      ??CrossCallReturnLabel_1
        MOV     DPL,R2
        MOV     DPH,R3
        LCALL   ?Subroutine9 & 0xFFFF
??CrossCallReturnLabel_0:
        ; Setup parameters for call to function osal_mem_free
        LCALL   `??osal_mem_free::?relay`; Banked call to: osal_mem_free
        SJMP    ??CrossCallReturnLabel_1
??afIncomingData_6:
        LCALL   ?Subroutine5 & 0xFFFF
??CrossCallReturnLabel_91:
        JZ      ??CrossCallReturnLabel_1
        MOV     DPL,R6
        MOV     DPH,R7
        LCALL   ?Subroutine21 & 0xFFFF
??CrossCallReturnLabel_96:
        LCALL   ?Subroutine9 & 0xFFFF
??CrossCallReturnLabel_1:
        MOV     A,#0x1
        LCALL   ?XSTACK_DISP0_8
        LCALL   ?Subroutine10 & 0xFFFF
??CrossCallReturnLabel_4:
        XRL     A,?V6
        JNZ     ??afIncomingData_7
        INC     DPTR
        MOVX    A,@DPTR
        XRL     A,?V7
??afIncomingData_7:
        JZ      ??afIncomingData_8
        MOV     DPL,R6
        MOV     DPH,R7
        MOVX    A,@DPTR
        JNZ     ??afIncomingData_9
        MOV     A,#0x1
        LCALL   ?XSTACK_DISP0_8
        LCALL   ?Subroutine38 & 0xFFFF
??CrossCallReturnLabel_60:
        LCALL   ??Subroutine45_0 & 0xFFFF
??CrossCallReturnLabel_87:
        JZ      $+5
        LJMP    ??CrossCallReturnLabel_28 & 0xFFFF
        SJMP    ??afIncomingData_8
??afIncomingData_9:
        MOV     A,#0x1
        LCALL   ?XSTACK_DISP0_8
        LCALL   ?Subroutine10 & 0xFFFF
??CrossCallReturnLabel_5:
        CPL     A
        JNZ     ??afIncomingData_10
        INC     DPTR
        MOVX    A,@DPTR
        CPL     A
??afIncomingData_10:
        JZ      $+5
        LJMP    ??CrossCallReturnLabel_28 & 0xFFFF
??afIncomingData_8:
        MOV     A,#0x1
        LCALL   ?XSTACK_DISP0_8
        MOVX    A,@DPTR
        ADD     A,#0x2
        MOV     ?V6,A
        INC     DPTR
        MOVX    A,@DPTR
        ADDC    A,#0x0
        MOV     ?V7,A
        MOV     DPL,?V6
        MOV     DPH,A
        MOVX    A,@DPTR
        PUSH    A
          CFI CFA_SP SP+-1
        MOV     A,#0x5
        LCALL   ?XSTACK_DISP0_8
        POP     A
          CFI CFA_SP SP+0
        MOVX    @DPTR,A
        MOV     DPL,R6
        MOV     DPH,R7
        LCALL   ?Subroutine23 & 0xFFFF
??CrossCallReturnLabel_27:
        ; Setup parameters for call to function afBuildMSGIncoming
        MOV     A,#0x22
        LCALL   ?XSTACK_DISP0_8
        MOVX    A,@DPTR
        MOV     ?V4,A
        MOV     R0,#?V4
        LCALL   ?PUSH_XSTACK_I_ONE
          CFI CFA_XSP16 add(XSP16, 26)
        MOV     R0,#?V0
        LCALL   ?PUSH_XSTACK_I_FOUR
          CFI CFA_XSP16 add(XSP16, 30)
        MOV     A,#0x22
        LCALL   ?XSTACK_DISP0_8
        MOVX    A,@DPTR
        MOV     ?V4,A
        MOV     R0,#?V4
        LCALL   ?PUSH_XSTACK_I_ONE
          CFI CFA_XSP16 add(XSP16, 31)
        MOV     A,#0x21
        LCALL   ?XSTACK_DISP0_8
        LCALL   ?PUSH_XSTACK8_X_TWO
          CFI CFA_XSP16 add(XSP16, 33)
        MOV     A,#0x21
        LCALL   ?XSTACK_DISP0_8
        LCALL   ?PUSH_XSTACK8_X_TWO
          CFI CFA_XSP16 add(XSP16, 35)
        MOV     A,#0x11
        LCALL   ?XSTACK_DISP0_8
        LCALL   ?PUSH_XSTACK8_X_TWO
          CFI CFA_XSP16 add(XSP16, 37)
        MOV     A,#0x12
        LCALL   ?XSTACK_DISP0_8
        MOVX    A,@DPTR
        MOV     R1,A
        MOV     A,R6
        MOV     R4,A
        MOV     A,R7
        MOV     R5,A
        MOV     A,#0xd
        LCALL   ?XSTACK_DISP0_8
        LCALL   ??Subroutine51_0 & 0xFFFF
??CrossCallReturnLabel_103:
        LCALL   `??afBuildMSGIncoming::?relay`; Banked call to: afBuildMSGIncoming
        MOV     A,#0xc
        LCALL   ?DEALLOC_XSTACK8
          CFI CFA_XSP16 add(XSP16, 25)
        MOV     A,#0x5
        LCALL   ?XSTACK_DISP0_8
        LCALL   ?Subroutine23 & 0xFFFF
??CrossCallReturnLabel_28:
        MOV     A,#0x1
        LCALL   ?XSTACK_DISP0_8
        LCALL   ?Subroutine11 & 0xFFFF
??CrossCallReturnLabel_7:
        JNZ     ??afIncomingData_11
        ; Setup parameters for call to function aps_FindGroupForEndpoint
        MOV     DPL,?XSP + 0
        MOV     DPH,?XSP + 1
        MOVX    A,@DPTR
        MOV     R1,A
        MOV     A,#0x1
        LCALL   ?XSTACK_DISP0_8
        LCALL   ?Subroutine8 & 0xFFFF
??CrossCallReturnLabel_112:
        LCALL   `??aps_FindGroupForEndpoint::?relay`; Banked call to: aps_FindGroupForEndpoint
        MOV     A,R1
        MOV     DPL,?XSP + 0
        MOV     DPH,?XSP + 1
        MOVX    @DPTR,A
        XRL     A,#0xfe
        JZ      ??afIncomingData_1
        ; Setup parameters for call to function afFindEndPointDesc
        LCALL   `??afFindEndPointDesc::?relay`; Banked call to: afFindEndPointDesc
        MOV     ?V4,R2
        MOV     ?V5,R3
        MOV     R6,?V4
        MOV     R7,?V5
        MOV     A,R6
        ORL     A,R7
        JZ      $+5
        LJMP    ??afIncomingData_5 & 0xFFFF
        SJMP    ??afIncomingData_1
??afIncomingData_11:
        MOV     A,#0x1
        LCALL   ?XSTACK_DISP0_8
        LCALL   ?Subroutine20 & 0xFFFF
??CrossCallReturnLabel_26:
        JNZ     ??afIncomingData_1
        MOV     A,#0x3
        LCALL   ?XSTACK_DISP0_8
        LCALL   ??Subroutine54_0 & 0xFFFF
??CrossCallReturnLabel_113:
        LCALL   ??Subroutine56_0 & 0xFFFF
??CrossCallReturnLabel_124:
        MOV     A,#0x3
        LCALL   ?XSTACK_DISP0_8
        LCALL   ??Subroutine44_0 & 0xFFFF
??CrossCallReturnLabel_74:
        MOV     A,#0x3
        LCALL   ?XSTACK_DISP0_8
        MOVX    A,@DPTR
        MOV     R0,A
        ORL     A,R1
        JZ      $+5
        LJMP    ??afIncomingData_4 & 0xFFFF
//  460       else
//  461         epDesc = NULL;
//  462     }
//  463     else
//  464       epDesc = NULL;
//  465   }
//  466 }
??afIncomingData_1:
        MOV     A,#0x9
        LJMP    ?Subroutine3 & 0xFFFF
          CFI EndBlock cfiBlock39

        RSEG BANKED_CODE:CODE:NOROOT(0)
?Subroutine23:
          CFI Block cfiCond40 Using cfiCommon0
          CFI Function afIncomingData
          CFI Conditional ??CrossCallReturnLabel_27
          CFI R6 load(1, XDATA, add(CFA_XSP16, literal(-16)))
          CFI VB load(1, XDATA, add(CFA_XSP16, literal(-15)))
          CFI V0 load(1, XDATA, add(CFA_XSP16, literal(-14)))
          CFI V1 load(1, XDATA, add(CFA_XSP16, literal(-13)))
          CFI V2 load(1, XDATA, add(CFA_XSP16, literal(-12)))
          CFI V3 load(1, XDATA, add(CFA_XSP16, literal(-11)))
          CFI V4 load(1, XDATA, add(CFA_XSP16, literal(-10)))
          CFI V5 load(1, XDATA, add(CFA_XSP16, literal(-9)))
          CFI V6 load(1, XDATA, add(CFA_XSP16, literal(-8)))
          CFI V7 load(1, XDATA, add(CFA_XSP16, literal(-7)))
          CFI R7 load(1, XDATA, add(CFA_XSP16, literal(-6)))
          CFI ?RET_LOW load(1, XDATA, add(CFA_XSP16, literal(-5)))
          CFI ?RET_HIGH load(1, XDATA, add(CFA_XSP16, literal(-4)))
          CFI ?BRET_EXT load(1, XDATA, add(CFA_XSP16, literal(-3)))
          CFI DPL0 load(1, XDATA, add(CFA_XSP16, literal(-2)))
          CFI DPH0 load(1, XDATA, add(CFA_XSP16, literal(-1)))
          CFI CFA_SP SP+-2
          CFI CFA_XSP16 add(XSP16, 25)
          CFI Block cfiCond41 Using cfiCommon0
          CFI (cfiCond41) Function afIncomingData
          CFI (cfiCond41) Conditional ??CrossCallReturnLabel_28
          CFI (cfiCond41) R6 load(1, XDATA, add(CFA_XSP16, literal(-16)))
          CFI (cfiCond41) VB load(1, XDATA, add(CFA_XSP16, literal(-15)))
          CFI (cfiCond41) V0 load(1, XDATA, add(CFA_XSP16, literal(-14)))
          CFI (cfiCond41) V1 load(1, XDATA, add(CFA_XSP16, literal(-13)))
          CFI (cfiCond41) V2 load(1, XDATA, add(CFA_XSP16, literal(-12)))
          CFI (cfiCond41) V3 load(1, XDATA, add(CFA_XSP16, literal(-11)))
          CFI (cfiCond41) V4 load(1, XDATA, add(CFA_XSP16, literal(-10)))
          CFI (cfiCond41) V5 load(1, XDATA, add(CFA_XSP16, literal(-9)))
          CFI (cfiCond41) V6 load(1, XDATA, add(CFA_XSP16, literal(-8)))
          CFI (cfiCond41) V7 load(1, XDATA, add(CFA_XSP16, literal(-7)))
          CFI (cfiCond41) R7 load(1, XDATA, add(CFA_XSP16, literal(-6)))
          CFI (cfiCond41) ?RET_LOW load(1, XDATA, add(CFA_XSP16, literal(-5)))
          CFI (cfiCond41) ?RET_HIGH load(1, XDATA, add(CFA_XSP16, literal(-4)))
          CFI (cfiCond41) ?BRET_EXT load(1, XDATA, add(CFA_XSP16, literal(-3)))
          CFI (cfiCond41) DPL0 load(1, XDATA, add(CFA_XSP16, literal(-2)))
          CFI (cfiCond41) DPH0 load(1, XDATA, add(CFA_XSP16, literal(-1)))
          CFI (cfiCond41) CFA_SP SP+-2
          CFI (cfiCond41) CFA_XSP16 add(XSP16, 25)
          CFI Block cfiPicker42 Using cfiCommon1
          CFI (cfiPicker42) NoFunction
          CFI (cfiPicker42) Picker
        MOVX    A,@DPTR
        MOV     DPL,?V6
        MOV     DPH,?V7
        MOVX    @DPTR,A
        RET
          CFI EndBlock cfiCond40
          CFI EndBlock cfiCond41
          CFI EndBlock cfiPicker42

        RSEG BANKED_CODE:CODE:NOROOT(0)
?Subroutine20:
          CFI Block cfiCond43 Using cfiCommon0
          CFI Function afIncomingData
          CFI Conditional ??CrossCallReturnLabel_25
          CFI R6 load(1, XDATA, add(CFA_XSP16, literal(-16)))
          CFI VB load(1, XDATA, add(CFA_XSP16, literal(-15)))
          CFI V0 load(1, XDATA, add(CFA_XSP16, literal(-14)))
          CFI V1 load(1, XDATA, add(CFA_XSP16, literal(-13)))
          CFI V2 load(1, XDATA, add(CFA_XSP16, literal(-12)))
          CFI V3 load(1, XDATA, add(CFA_XSP16, literal(-11)))
          CFI V4 load(1, XDATA, add(CFA_XSP16, literal(-10)))
          CFI V5 load(1, XDATA, add(CFA_XSP16, literal(-9)))
          CFI V6 load(1, XDATA, add(CFA_XSP16, literal(-8)))
          CFI V7 load(1, XDATA, add(CFA_XSP16, literal(-7)))
          CFI R7 load(1, XDATA, add(CFA_XSP16, literal(-6)))
          CFI ?RET_LOW load(1, XDATA, add(CFA_XSP16, literal(-5)))
          CFI ?RET_HIGH load(1, XDATA, add(CFA_XSP16, literal(-4)))
          CFI ?BRET_EXT load(1, XDATA, add(CFA_XSP16, literal(-3)))
          CFI DPL0 load(1, XDATA, add(CFA_XSP16, literal(-2)))
          CFI DPH0 load(1, XDATA, add(CFA_XSP16, literal(-1)))
          CFI CFA_SP SP+-2
          CFI CFA_XSP16 add(XSP16, 25)
          CFI Block cfiCond44 Using cfiCommon0
          CFI (cfiCond44) Function afIncomingData
          CFI (cfiCond44) Conditional ??CrossCallReturnLabel_26
          CFI (cfiCond44) R6 load(1, XDATA, add(CFA_XSP16, literal(-16)))
          CFI (cfiCond44) VB load(1, XDATA, add(CFA_XSP16, literal(-15)))
          CFI (cfiCond44) V0 load(1, XDATA, add(CFA_XSP16, literal(-14)))
          CFI (cfiCond44) V1 load(1, XDATA, add(CFA_XSP16, literal(-13)))
          CFI (cfiCond44) V2 load(1, XDATA, add(CFA_XSP16, literal(-12)))
          CFI (cfiCond44) V3 load(1, XDATA, add(CFA_XSP16, literal(-11)))
          CFI (cfiCond44) V4 load(1, XDATA, add(CFA_XSP16, literal(-10)))
          CFI (cfiCond44) V5 load(1, XDATA, add(CFA_XSP16, literal(-9)))
          CFI (cfiCond44) V6 load(1, XDATA, add(CFA_XSP16, literal(-8)))
          CFI (cfiCond44) V7 load(1, XDATA, add(CFA_XSP16, literal(-7)))
          CFI (cfiCond44) R7 load(1, XDATA, add(CFA_XSP16, literal(-6)))
          CFI (cfiCond44) ?RET_LOW load(1, XDATA, add(CFA_XSP16, literal(-5)))
          CFI (cfiCond44) ?RET_HIGH load(1, XDATA, add(CFA_XSP16, literal(-4)))
          CFI (cfiCond44) ?BRET_EXT load(1, XDATA, add(CFA_XSP16, literal(-3)))
          CFI (cfiCond44) DPL0 load(1, XDATA, add(CFA_XSP16, literal(-2)))
          CFI (cfiCond44) DPH0 load(1, XDATA, add(CFA_XSP16, literal(-1)))
          CFI (cfiCond44) CFA_SP SP+-2
          CFI (cfiCond44) CFA_XSP16 add(XSP16, 25)
          CFI Block cfiPicker45 Using cfiCommon1
          CFI (cfiPicker45) NoFunction
          CFI (cfiPicker45) Picker
        LCALL   ?Subroutine40 & 0xFFFF
??CrossCallReturnLabel_63:
        CPL     A
        RET
          CFI EndBlock cfiCond43
          CFI EndBlock cfiCond44
          CFI EndBlock cfiPicker45

        RSEG BANKED_CODE:CODE:NOROOT(0)
?Subroutine12:
          CFI Block cfiCond46 Using cfiCommon0
          CFI Function afIncomingData
          CFI Conditional ??CrossCallReturnLabel_8
          CFI R6 load(1, XDATA, add(CFA_XSP16, literal(-16)))
          CFI VB load(1, XDATA, add(CFA_XSP16, literal(-15)))
          CFI V0 load(1, XDATA, add(CFA_XSP16, literal(-14)))
          CFI V1 load(1, XDATA, add(CFA_XSP16, literal(-13)))
          CFI V2 load(1, XDATA, add(CFA_XSP16, literal(-12)))
          CFI V3 load(1, XDATA, add(CFA_XSP16, literal(-11)))
          CFI V4 load(1, XDATA, add(CFA_XSP16, literal(-10)))
          CFI V5 load(1, XDATA, add(CFA_XSP16, literal(-9)))
          CFI V6 load(1, XDATA, add(CFA_XSP16, literal(-8)))
          CFI V7 load(1, XDATA, add(CFA_XSP16, literal(-7)))
          CFI R7 load(1, XDATA, add(CFA_XSP16, literal(-6)))
          CFI ?RET_LOW load(1, XDATA, add(CFA_XSP16, literal(-5)))
          CFI ?RET_HIGH load(1, XDATA, add(CFA_XSP16, literal(-4)))
          CFI ?BRET_EXT load(1, XDATA, add(CFA_XSP16, literal(-3)))
          CFI DPL0 load(1, XDATA, add(CFA_XSP16, literal(-2)))
          CFI DPH0 load(1, XDATA, add(CFA_XSP16, literal(-1)))
          CFI CFA_SP SP+-2
          CFI CFA_XSP16 add(XSP16, 25)
          CFI Block cfiCond47 Using cfiCommon0
          CFI (cfiCond47) Function afIncomingData
          CFI (cfiCond47) Conditional ??CrossCallReturnLabel_9
          CFI (cfiCond47) R6 load(1, XDATA, add(CFA_XSP16, literal(-16)))
          CFI (cfiCond47) VB load(1, XDATA, add(CFA_XSP16, literal(-15)))
          CFI (cfiCond47) V0 load(1, XDATA, add(CFA_XSP16, literal(-14)))
          CFI (cfiCond47) V1 load(1, XDATA, add(CFA_XSP16, literal(-13)))
          CFI (cfiCond47) V2 load(1, XDATA, add(CFA_XSP16, literal(-12)))
          CFI (cfiCond47) V3 load(1, XDATA, add(CFA_XSP16, literal(-11)))
          CFI (cfiCond47) V4 load(1, XDATA, add(CFA_XSP16, literal(-10)))
          CFI (cfiCond47) V5 load(1, XDATA, add(CFA_XSP16, literal(-9)))
          CFI (cfiCond47) V6 load(1, XDATA, add(CFA_XSP16, literal(-8)))
          CFI (cfiCond47) V7 load(1, XDATA, add(CFA_XSP16, literal(-7)))
          CFI (cfiCond47) R7 load(1, XDATA, add(CFA_XSP16, literal(-6)))
          CFI (cfiCond47) ?RET_LOW load(1, XDATA, add(CFA_XSP16, literal(-5)))
          CFI (cfiCond47) ?RET_HIGH load(1, XDATA, add(CFA_XSP16, literal(-4)))
          CFI (cfiCond47) ?BRET_EXT load(1, XDATA, add(CFA_XSP16, literal(-3)))
          CFI (cfiCond47) DPL0 load(1, XDATA, add(CFA_XSP16, literal(-2)))
          CFI (cfiCond47) DPH0 load(1, XDATA, add(CFA_XSP16, literal(-1)))
          CFI (cfiCond47) CFA_SP SP+-2
          CFI (cfiCond47) CFA_XSP16 add(XSP16, 25)
          CFI Block cfiPicker48 Using cfiCommon1
          CFI (cfiPicker48) NoFunction
          CFI (cfiPicker48) Picker
        LCALL   ?Subroutine40 & 0xFFFF
??CrossCallReturnLabel_62:
        MOV     R6,A
        INC     DPTR
        MOVX    A,@DPTR
        MOV     R7,A
        RET
          CFI EndBlock cfiCond46
          CFI EndBlock cfiCond47
          CFI EndBlock cfiPicker48

        RSEG BANKED_CODE:CODE:NOROOT(0)
?Subroutine40:
          CFI Block cfiCond49 Using cfiCommon0
          CFI Function afIncomingData
          CFI Conditional ??CrossCallReturnLabel_63, ??CrossCallReturnLabel_25
          CFI R6 load(1, XDATA, add(CFA_XSP16, literal(-16)))
          CFI VB load(1, XDATA, add(CFA_XSP16, literal(-15)))
          CFI V0 load(1, XDATA, add(CFA_XSP16, literal(-14)))
          CFI V1 load(1, XDATA, add(CFA_XSP16, literal(-13)))
          CFI V2 load(1, XDATA, add(CFA_XSP16, literal(-12)))
          CFI V3 load(1, XDATA, add(CFA_XSP16, literal(-11)))
          CFI V4 load(1, XDATA, add(CFA_XSP16, literal(-10)))
          CFI V5 load(1, XDATA, add(CFA_XSP16, literal(-9)))
          CFI V6 load(1, XDATA, add(CFA_XSP16, literal(-8)))
          CFI V7 load(1, XDATA, add(CFA_XSP16, literal(-7)))
          CFI R7 load(1, XDATA, add(CFA_XSP16, literal(-6)))
          CFI ?RET_LOW load(1, XDATA, add(CFA_XSP16, literal(-5)))
          CFI ?RET_HIGH load(1, XDATA, add(CFA_XSP16, literal(-4)))
          CFI ?BRET_EXT load(1, XDATA, add(CFA_XSP16, literal(-3)))
          CFI DPL0 load(1, XDATA, add(CFA_XSP16, literal(-2)))
          CFI DPH0 load(1, XDATA, add(CFA_XSP16, literal(-1)))
          CFI CFA_SP SP+-4
          CFI CFA_XSP16 add(XSP16, 25)
          CFI Block cfiCond50 Using cfiCommon0
          CFI (cfiCond50) Function afIncomingData
          CFI (cfiCond50) Conditional ??CrossCallReturnLabel_63, ??CrossCallReturnLabel_26
          CFI (cfiCond50) R6 load(1, XDATA, add(CFA_XSP16, literal(-16)))
          CFI (cfiCond50) VB load(1, XDATA, add(CFA_XSP16, literal(-15)))
          CFI (cfiCond50) V0 load(1, XDATA, add(CFA_XSP16, literal(-14)))
          CFI (cfiCond50) V1 load(1, XDATA, add(CFA_XSP16, literal(-13)))
          CFI (cfiCond50) V2 load(1, XDATA, add(CFA_XSP16, literal(-12)))
          CFI (cfiCond50) V3 load(1, XDATA, add(CFA_XSP16, literal(-11)))
          CFI (cfiCond50) V4 load(1, XDATA, add(CFA_XSP16, literal(-10)))
          CFI (cfiCond50) V5 load(1, XDATA, add(CFA_XSP16, literal(-9)))
          CFI (cfiCond50) V6 load(1, XDATA, add(CFA_XSP16, literal(-8)))
          CFI (cfiCond50) V7 load(1, XDATA, add(CFA_XSP16, literal(-7)))
          CFI (cfiCond50) R7 load(1, XDATA, add(CFA_XSP16, literal(-6)))
          CFI (cfiCond50) ?RET_LOW load(1, XDATA, add(CFA_XSP16, literal(-5)))
          CFI (cfiCond50) ?RET_HIGH load(1, XDATA, add(CFA_XSP16, literal(-4)))
          CFI (cfiCond50) ?BRET_EXT load(1, XDATA, add(CFA_XSP16, literal(-3)))
          CFI (cfiCond50) DPL0 load(1, XDATA, add(CFA_XSP16, literal(-2)))
          CFI (cfiCond50) DPH0 load(1, XDATA, add(CFA_XSP16, literal(-1)))
          CFI (cfiCond50) CFA_SP SP+-4
          CFI (cfiCond50) CFA_XSP16 add(XSP16, 25)
          CFI Block cfiCond51 Using cfiCommon0
          CFI (cfiCond51) Function afIncomingData
          CFI (cfiCond51) Conditional ??CrossCallReturnLabel_62, ??CrossCallReturnLabel_8
          CFI (cfiCond51) R6 load(1, XDATA, add(CFA_XSP16, literal(-16)))
          CFI (cfiCond51) VB load(1, XDATA, add(CFA_XSP16, literal(-15)))
          CFI (cfiCond51) V0 load(1, XDATA, add(CFA_XSP16, literal(-14)))
          CFI (cfiCond51) V1 load(1, XDATA, add(CFA_XSP16, literal(-13)))
          CFI (cfiCond51) V2 load(1, XDATA, add(CFA_XSP16, literal(-12)))
          CFI (cfiCond51) V3 load(1, XDATA, add(CFA_XSP16, literal(-11)))
          CFI (cfiCond51) V4 load(1, XDATA, add(CFA_XSP16, literal(-10)))
          CFI (cfiCond51) V5 load(1, XDATA, add(CFA_XSP16, literal(-9)))
          CFI (cfiCond51) V6 load(1, XDATA, add(CFA_XSP16, literal(-8)))
          CFI (cfiCond51) V7 load(1, XDATA, add(CFA_XSP16, literal(-7)))
          CFI (cfiCond51) R7 load(1, XDATA, add(CFA_XSP16, literal(-6)))
          CFI (cfiCond51) ?RET_LOW load(1, XDATA, add(CFA_XSP16, literal(-5)))
          CFI (cfiCond51) ?RET_HIGH load(1, XDATA, add(CFA_XSP16, literal(-4)))
          CFI (cfiCond51) ?BRET_EXT load(1, XDATA, add(CFA_XSP16, literal(-3)))
          CFI (cfiCond51) DPL0 load(1, XDATA, add(CFA_XSP16, literal(-2)))
          CFI (cfiCond51) DPH0 load(1, XDATA, add(CFA_XSP16, literal(-1)))
          CFI (cfiCond51) CFA_SP SP+-4
          CFI (cfiCond51) CFA_XSP16 add(XSP16, 25)
          CFI Block cfiCond52 Using cfiCommon0
          CFI (cfiCond52) Function afIncomingData
          CFI (cfiCond52) Conditional ??CrossCallReturnLabel_62, ??CrossCallReturnLabel_9
          CFI (cfiCond52) R6 load(1, XDATA, add(CFA_XSP16, literal(-16)))
          CFI (cfiCond52) VB load(1, XDATA, add(CFA_XSP16, literal(-15)))
          CFI (cfiCond52) V0 load(1, XDATA, add(CFA_XSP16, literal(-14)))
          CFI (cfiCond52) V1 load(1, XDATA, add(CFA_XSP16, literal(-13)))
          CFI (cfiCond52) V2 load(1, XDATA, add(CFA_XSP16, literal(-12)))
          CFI (cfiCond52) V3 load(1, XDATA, add(CFA_XSP16, literal(-11)))
          CFI (cfiCond52) V4 load(1, XDATA, add(CFA_XSP16, literal(-10)))
          CFI (cfiCond52) V5 load(1, XDATA, add(CFA_XSP16, literal(-9)))
          CFI (cfiCond52) V6 load(1, XDATA, add(CFA_XSP16, literal(-8)))
          CFI (cfiCond52) V7 load(1, XDATA, add(CFA_XSP16, literal(-7)))
          CFI (cfiCond52) R7 load(1, XDATA, add(CFA_XSP16, literal(-6)))
          CFI (cfiCond52) ?RET_LOW load(1, XDATA, add(CFA_XSP16, literal(-5)))
          CFI (cfiCond52) ?RET_HIGH load(1, XDATA, add(CFA_XSP16, literal(-4)))
          CFI (cfiCond52) ?BRET_EXT load(1, XDATA, add(CFA_XSP16, literal(-3)))
          CFI (cfiCond52) DPL0 load(1, XDATA, add(CFA_XSP16, literal(-2)))
          CFI (cfiCond52) DPH0 load(1, XDATA, add(CFA_XSP16, literal(-1)))
          CFI (cfiCond52) CFA_SP SP+-4
          CFI (cfiCond52) CFA_XSP16 add(XSP16, 25)
          CFI Block cfiPicker53 Using cfiCommon1
          CFI (cfiPicker53) NoFunction
          CFI (cfiPicker53) Picker
        INC     DPTR
        MOVX    A,@DPTR
        MOV     DPH,A
        MOV     DPL,R0
        INC     DPTR
        INC     DPTR
        MOVX    A,@DPTR
        RET
          CFI EndBlock cfiCond49
          CFI EndBlock cfiCond50
          CFI EndBlock cfiCond51
          CFI EndBlock cfiCond52
          CFI EndBlock cfiPicker53

        RSEG BANKED_CODE:CODE:NOROOT(0)
?Subroutine11:
          CFI Block cfiCond54 Using cfiCommon0
          CFI Function afIncomingData
          CFI Conditional ??CrossCallReturnLabel_6
          CFI R6 load(1, XDATA, add(CFA_XSP16, literal(-16)))
          CFI VB load(1, XDATA, add(CFA_XSP16, literal(-15)))
          CFI V0 load(1, XDATA, add(CFA_XSP16, literal(-14)))
          CFI V1 load(1, XDATA, add(CFA_XSP16, literal(-13)))
          CFI V2 load(1, XDATA, add(CFA_XSP16, literal(-12)))
          CFI V3 load(1, XDATA, add(CFA_XSP16, literal(-11)))
          CFI V4 load(1, XDATA, add(CFA_XSP16, literal(-10)))
          CFI V5 load(1, XDATA, add(CFA_XSP16, literal(-9)))
          CFI V6 load(1, XDATA, add(CFA_XSP16, literal(-8)))
          CFI V7 load(1, XDATA, add(CFA_XSP16, literal(-7)))
          CFI R7 load(1, XDATA, add(CFA_XSP16, literal(-6)))
          CFI ?RET_LOW load(1, XDATA, add(CFA_XSP16, literal(-5)))
          CFI ?RET_HIGH load(1, XDATA, add(CFA_XSP16, literal(-4)))
          CFI ?BRET_EXT load(1, XDATA, add(CFA_XSP16, literal(-3)))
          CFI DPL0 load(1, XDATA, add(CFA_XSP16, literal(-2)))
          CFI DPH0 load(1, XDATA, add(CFA_XSP16, literal(-1)))
          CFI CFA_SP SP+-2
          CFI CFA_XSP16 add(XSP16, 25)
          CFI Block cfiCond55 Using cfiCommon0
          CFI (cfiCond55) Function afIncomingData
          CFI (cfiCond55) Conditional ??CrossCallReturnLabel_7
          CFI (cfiCond55) R6 load(1, XDATA, add(CFA_XSP16, literal(-16)))
          CFI (cfiCond55) VB load(1, XDATA, add(CFA_XSP16, literal(-15)))
          CFI (cfiCond55) V0 load(1, XDATA, add(CFA_XSP16, literal(-14)))
          CFI (cfiCond55) V1 load(1, XDATA, add(CFA_XSP16, literal(-13)))
          CFI (cfiCond55) V2 load(1, XDATA, add(CFA_XSP16, literal(-12)))
          CFI (cfiCond55) V3 load(1, XDATA, add(CFA_XSP16, literal(-11)))
          CFI (cfiCond55) V4 load(1, XDATA, add(CFA_XSP16, literal(-10)))
          CFI (cfiCond55) V5 load(1, XDATA, add(CFA_XSP16, literal(-9)))
          CFI (cfiCond55) V6 load(1, XDATA, add(CFA_XSP16, literal(-8)))
          CFI (cfiCond55) V7 load(1, XDATA, add(CFA_XSP16, literal(-7)))
          CFI (cfiCond55) R7 load(1, XDATA, add(CFA_XSP16, literal(-6)))
          CFI (cfiCond55) ?RET_LOW load(1, XDATA, add(CFA_XSP16, literal(-5)))
          CFI (cfiCond55) ?RET_HIGH load(1, XDATA, add(CFA_XSP16, literal(-4)))
          CFI (cfiCond55) ?BRET_EXT load(1, XDATA, add(CFA_XSP16, literal(-3)))
          CFI (cfiCond55) DPL0 load(1, XDATA, add(CFA_XSP16, literal(-2)))
          CFI (cfiCond55) DPH0 load(1, XDATA, add(CFA_XSP16, literal(-1)))
          CFI (cfiCond55) CFA_SP SP+-2
          CFI (cfiCond55) CFA_XSP16 add(XSP16, 25)
          CFI Block cfiPicker56 Using cfiCommon1
          CFI (cfiPicker56) NoFunction
          CFI (cfiPicker56) Picker
        LCALL   ?Subroutine39 & 0xFFFF
??CrossCallReturnLabel_69:
        ANL     A,#0xc
        XRL     A,#0xc
        RET
          CFI EndBlock cfiCond54
          CFI EndBlock cfiCond55
          CFI EndBlock cfiPicker56

        RSEG BANKED_CODE:CODE:NOROOT(0)
?Subroutine39:
          CFI Block cfiCond57 Using cfiCommon0
          CFI Function afDataConfirm
          CFI Conditional ??CrossCallReturnLabel_70, ??CrossCallReturnLabel_66
          CFI R6 load(1, XDATA, add(CFA_XSP16, literal(-14)))
          CFI VB load(1, XDATA, add(CFA_XSP16, literal(-13)))
          CFI V0 load(1, XDATA, add(CFA_XSP16, literal(-12)))
          CFI V1 load(1, XDATA, add(CFA_XSP16, literal(-11)))
          CFI V2 load(1, XDATA, add(CFA_XSP16, literal(-10)))
          CFI V3 load(1, XDATA, add(CFA_XSP16, literal(-9)))
          CFI V4 load(1, XDATA, add(CFA_XSP16, literal(-8)))
          CFI V5 load(1, XDATA, add(CFA_XSP16, literal(-7)))
          CFI R7 load(1, XDATA, add(CFA_XSP16, literal(-6)))
          CFI ?RET_LOW load(1, XDATA, add(CFA_XSP16, literal(-5)))
          CFI ?RET_HIGH load(1, XDATA, add(CFA_XSP16, literal(-4)))
          CFI ?BRET_EXT load(1, XDATA, add(CFA_XSP16, literal(-3)))
          CFI DPL0 load(1, XDATA, add(CFA_XSP16, literal(-2)))
          CFI DPH0 load(1, XDATA, add(CFA_XSP16, literal(-1)))
          CFI CFA_SP SP+-4
          CFI CFA_XSP16 add(XSP16, 14)
          CFI Block cfiCond58 Using cfiCommon0
          CFI (cfiCond58) Function afReflectError
          CFI (cfiCond58) Conditional ??CrossCallReturnLabel_70, ??CrossCallReturnLabel_67
          CFI (cfiCond58) R6 load(1, XDATA, add(CFA_XSP16, literal(-16)))
          CFI (cfiCond58) VB load(1, XDATA, add(CFA_XSP16, literal(-15)))
          CFI (cfiCond58) V0 load(1, XDATA, add(CFA_XSP16, literal(-14)))
          CFI (cfiCond58) V1 load(1, XDATA, add(CFA_XSP16, literal(-13)))
          CFI (cfiCond58) V2 load(1, XDATA, add(CFA_XSP16, literal(-12)))
          CFI (cfiCond58) V3 load(1, XDATA, add(CFA_XSP16, literal(-11)))
          CFI (cfiCond58) V4 load(1, XDATA, add(CFA_XSP16, literal(-10)))
          CFI (cfiCond58) V5 load(1, XDATA, add(CFA_XSP16, literal(-9)))
          CFI (cfiCond58) V6 load(1, XDATA, add(CFA_XSP16, literal(-8)))
          CFI (cfiCond58) V7 load(1, XDATA, add(CFA_XSP16, literal(-7)))
          CFI (cfiCond58) R7 load(1, XDATA, add(CFA_XSP16, literal(-6)))
          CFI (cfiCond58) ?RET_LOW load(1, XDATA, add(CFA_XSP16, literal(-5)))
          CFI (cfiCond58) ?RET_HIGH load(1, XDATA, add(CFA_XSP16, literal(-4)))
          CFI (cfiCond58) ?BRET_EXT load(1, XDATA, add(CFA_XSP16, literal(-3)))
          CFI (cfiCond58) DPL0 load(1, XDATA, add(CFA_XSP16, literal(-2)))
          CFI (cfiCond58) DPH0 load(1, XDATA, add(CFA_XSP16, literal(-1)))
          CFI (cfiCond58) CFA_SP SP+-4
          CFI (cfiCond58) CFA_XSP16 add(XSP16, 16)
          CFI Block cfiCond59 Using cfiCommon0
          CFI (cfiCond59) Function afBuildMSGIncoming
          CFI (cfiCond59) Conditional ??CrossCallReturnLabel_70, ??CrossCallReturnLabel_68
          CFI (cfiCond59) R6 load(1, XDATA, add(CFA_XSP16, literal(-16)))
          CFI (cfiCond59) VB load(1, XDATA, add(CFA_XSP16, literal(-15)))
          CFI (cfiCond59) V0 load(1, XDATA, add(CFA_XSP16, literal(-14)))
          CFI (cfiCond59) V1 load(1, XDATA, add(CFA_XSP16, literal(-13)))
          CFI (cfiCond59) V2 load(1, XDATA, add(CFA_XSP16, literal(-12)))
          CFI (cfiCond59) V3 load(1, XDATA, add(CFA_XSP16, literal(-11)))
          CFI (cfiCond59) V4 load(1, XDATA, add(CFA_XSP16, literal(-10)))
          CFI (cfiCond59) V5 load(1, XDATA, add(CFA_XSP16, literal(-9)))
          CFI (cfiCond59) V6 load(1, XDATA, add(CFA_XSP16, literal(-8)))
          CFI (cfiCond59) V7 load(1, XDATA, add(CFA_XSP16, literal(-7)))
          CFI (cfiCond59) R7 load(1, XDATA, add(CFA_XSP16, literal(-6)))
          CFI (cfiCond59) ?RET_LOW load(1, XDATA, add(CFA_XSP16, literal(-5)))
          CFI (cfiCond59) ?RET_HIGH load(1, XDATA, add(CFA_XSP16, literal(-4)))
          CFI (cfiCond59) ?BRET_EXT load(1, XDATA, add(CFA_XSP16, literal(-3)))
          CFI (cfiCond59) DPL0 load(1, XDATA, add(CFA_XSP16, literal(-2)))
          CFI (cfiCond59) DPH0 load(1, XDATA, add(CFA_XSP16, literal(-1)))
          CFI (cfiCond59) CFA_SP SP+-4
          CFI (cfiCond59) CFA_XSP16 add(XSP16, 17)
          CFI Block cfiCond60 Using cfiCommon0
          CFI (cfiCond60) Function afIncomingData
          CFI (cfiCond60) Conditional ??CrossCallReturnLabel_69, ??CrossCallReturnLabel_6
          CFI (cfiCond60) R6 load(1, XDATA, add(CFA_XSP16, literal(-16)))
          CFI (cfiCond60) VB load(1, XDATA, add(CFA_XSP16, literal(-15)))
          CFI (cfiCond60) V0 load(1, XDATA, add(CFA_XSP16, literal(-14)))
          CFI (cfiCond60) V1 load(1, XDATA, add(CFA_XSP16, literal(-13)))
          CFI (cfiCond60) V2 load(1, XDATA, add(CFA_XSP16, literal(-12)))
          CFI (cfiCond60) V3 load(1, XDATA, add(CFA_XSP16, literal(-11)))
          CFI (cfiCond60) V4 load(1, XDATA, add(CFA_XSP16, literal(-10)))
          CFI (cfiCond60) V5 load(1, XDATA, add(CFA_XSP16, literal(-9)))
          CFI (cfiCond60) V6 load(1, XDATA, add(CFA_XSP16, literal(-8)))
          CFI (cfiCond60) V7 load(1, XDATA, add(CFA_XSP16, literal(-7)))
          CFI (cfiCond60) R7 load(1, XDATA, add(CFA_XSP16, literal(-6)))
          CFI (cfiCond60) ?RET_LOW load(1, XDATA, add(CFA_XSP16, literal(-5)))
          CFI (cfiCond60) ?RET_HIGH load(1, XDATA, add(CFA_XSP16, literal(-4)))
          CFI (cfiCond60) ?BRET_EXT load(1, XDATA, add(CFA_XSP16, literal(-3)))
          CFI (cfiCond60) DPL0 load(1, XDATA, add(CFA_XSP16, literal(-2)))
          CFI (cfiCond60) DPH0 load(1, XDATA, add(CFA_XSP16, literal(-1)))
          CFI (cfiCond60) CFA_SP SP+-4
          CFI (cfiCond60) CFA_XSP16 add(XSP16, 25)
          CFI Block cfiCond61 Using cfiCommon0
          CFI (cfiCond61) Function afIncomingData
          CFI (cfiCond61) Conditional ??CrossCallReturnLabel_69, ??CrossCallReturnLabel_7
          CFI (cfiCond61) R6 load(1, XDATA, add(CFA_XSP16, literal(-16)))
          CFI (cfiCond61) VB load(1, XDATA, add(CFA_XSP16, literal(-15)))
          CFI (cfiCond61) V0 load(1, XDATA, add(CFA_XSP16, literal(-14)))
          CFI (cfiCond61) V1 load(1, XDATA, add(CFA_XSP16, literal(-13)))
          CFI (cfiCond61) V2 load(1, XDATA, add(CFA_XSP16, literal(-12)))
          CFI (cfiCond61) V3 load(1, XDATA, add(CFA_XSP16, literal(-11)))
          CFI (cfiCond61) V4 load(1, XDATA, add(CFA_XSP16, literal(-10)))
          CFI (cfiCond61) V5 load(1, XDATA, add(CFA_XSP16, literal(-9)))
          CFI (cfiCond61) V6 load(1, XDATA, add(CFA_XSP16, literal(-8)))
          CFI (cfiCond61) V7 load(1, XDATA, add(CFA_XSP16, literal(-7)))
          CFI (cfiCond61) R7 load(1, XDATA, add(CFA_XSP16, literal(-6)))
          CFI (cfiCond61) ?RET_LOW load(1, XDATA, add(CFA_XSP16, literal(-5)))
          CFI (cfiCond61) ?RET_HIGH load(1, XDATA, add(CFA_XSP16, literal(-4)))
          CFI (cfiCond61) ?BRET_EXT load(1, XDATA, add(CFA_XSP16, literal(-3)))
          CFI (cfiCond61) DPL0 load(1, XDATA, add(CFA_XSP16, literal(-2)))
          CFI (cfiCond61) DPH0 load(1, XDATA, add(CFA_XSP16, literal(-1)))
          CFI (cfiCond61) CFA_SP SP+-4
          CFI (cfiCond61) CFA_XSP16 add(XSP16, 25)
          CFI Block cfiPicker62 Using cfiCommon1
          CFI (cfiPicker62) NoFunction
          CFI (cfiPicker62) Picker
        MOVX    A,@DPTR
        MOV     R0,A
        INC     DPTR
        MOVX    A,@DPTR
        MOV     DPH,A
        MOV     DPL,R0
        MOVX    A,@DPTR
        RET
          CFI EndBlock cfiCond57
          CFI EndBlock cfiCond58
          CFI EndBlock cfiCond59
          CFI EndBlock cfiCond60
          CFI EndBlock cfiCond61
          CFI EndBlock cfiPicker62

        RSEG BANKED_CODE:CODE:NOROOT(0)
?Subroutine10:
          CFI Block cfiCond63 Using cfiCommon0
          CFI Function afIncomingData
          CFI Conditional ??CrossCallReturnLabel_4
          CFI R6 load(1, XDATA, add(CFA_XSP16, literal(-16)))
          CFI VB load(1, XDATA, add(CFA_XSP16, literal(-15)))
          CFI V0 load(1, XDATA, add(CFA_XSP16, literal(-14)))
          CFI V1 load(1, XDATA, add(CFA_XSP16, literal(-13)))
          CFI V2 load(1, XDATA, add(CFA_XSP16, literal(-12)))
          CFI V3 load(1, XDATA, add(CFA_XSP16, literal(-11)))
          CFI V4 load(1, XDATA, add(CFA_XSP16, literal(-10)))
          CFI V5 load(1, XDATA, add(CFA_XSP16, literal(-9)))
          CFI V6 load(1, XDATA, add(CFA_XSP16, literal(-8)))
          CFI V7 load(1, XDATA, add(CFA_XSP16, literal(-7)))
          CFI R7 load(1, XDATA, add(CFA_XSP16, literal(-6)))
          CFI ?RET_LOW load(1, XDATA, add(CFA_XSP16, literal(-5)))
          CFI ?RET_HIGH load(1, XDATA, add(CFA_XSP16, literal(-4)))
          CFI ?BRET_EXT load(1, XDATA, add(CFA_XSP16, literal(-3)))
          CFI DPL0 load(1, XDATA, add(CFA_XSP16, literal(-2)))
          CFI DPH0 load(1, XDATA, add(CFA_XSP16, literal(-1)))
          CFI CFA_SP SP+-2
          CFI CFA_XSP16 add(XSP16, 25)
          CFI Block cfiCond64 Using cfiCommon0
          CFI (cfiCond64) Function afIncomingData
          CFI (cfiCond64) Conditional ??CrossCallReturnLabel_5
          CFI (cfiCond64) R6 load(1, XDATA, add(CFA_XSP16, literal(-16)))
          CFI (cfiCond64) VB load(1, XDATA, add(CFA_XSP16, literal(-15)))
          CFI (cfiCond64) V0 load(1, XDATA, add(CFA_XSP16, literal(-14)))
          CFI (cfiCond64) V1 load(1, XDATA, add(CFA_XSP16, literal(-13)))
          CFI (cfiCond64) V2 load(1, XDATA, add(CFA_XSP16, literal(-12)))
          CFI (cfiCond64) V3 load(1, XDATA, add(CFA_XSP16, literal(-11)))
          CFI (cfiCond64) V4 load(1, XDATA, add(CFA_XSP16, literal(-10)))
          CFI (cfiCond64) V5 load(1, XDATA, add(CFA_XSP16, literal(-9)))
          CFI (cfiCond64) V6 load(1, XDATA, add(CFA_XSP16, literal(-8)))
          CFI (cfiCond64) V7 load(1, XDATA, add(CFA_XSP16, literal(-7)))
          CFI (cfiCond64) R7 load(1, XDATA, add(CFA_XSP16, literal(-6)))
          CFI (cfiCond64) ?RET_LOW load(1, XDATA, add(CFA_XSP16, literal(-5)))
          CFI (cfiCond64) ?RET_HIGH load(1, XDATA, add(CFA_XSP16, literal(-4)))
          CFI (cfiCond64) ?BRET_EXT load(1, XDATA, add(CFA_XSP16, literal(-3)))
          CFI (cfiCond64) DPL0 load(1, XDATA, add(CFA_XSP16, literal(-2)))
          CFI (cfiCond64) DPH0 load(1, XDATA, add(CFA_XSP16, literal(-1)))
          CFI (cfiCond64) CFA_SP SP+-2
          CFI (cfiCond64) CFA_XSP16 add(XSP16, 25)
          CFI Block cfiPicker65 Using cfiCommon1
          CFI (cfiPicker65) NoFunction
          CFI (cfiPicker65) Picker
        LCALL   ?Subroutine38 & 0xFFFF
??CrossCallReturnLabel_61:
        MOVX    A,@DPTR
        RET
          CFI EndBlock cfiCond63
          CFI EndBlock cfiCond64
          CFI EndBlock cfiPicker65

        RSEG BANKED_CODE:CODE:NOROOT(0)
?Subroutine38:
          CFI Block cfiCond66 Using cfiCommon0
          CFI Function afIncomingData
          CFI Conditional ??CrossCallReturnLabel_60
          CFI R6 load(1, XDATA, add(CFA_XSP16, literal(-16)))
          CFI VB load(1, XDATA, add(CFA_XSP16, literal(-15)))
          CFI V0 load(1, XDATA, add(CFA_XSP16, literal(-14)))
          CFI V1 load(1, XDATA, add(CFA_XSP16, literal(-13)))
          CFI V2 load(1, XDATA, add(CFA_XSP16, literal(-12)))
          CFI V3 load(1, XDATA, add(CFA_XSP16, literal(-11)))
          CFI V4 load(1, XDATA, add(CFA_XSP16, literal(-10)))
          CFI V5 load(1, XDATA, add(CFA_XSP16, literal(-9)))
          CFI V6 load(1, XDATA, add(CFA_XSP16, literal(-8)))
          CFI V7 load(1, XDATA, add(CFA_XSP16, literal(-7)))
          CFI R7 load(1, XDATA, add(CFA_XSP16, literal(-6)))
          CFI ?RET_LOW load(1, XDATA, add(CFA_XSP16, literal(-5)))
          CFI ?RET_HIGH load(1, XDATA, add(CFA_XSP16, literal(-4)))
          CFI ?BRET_EXT load(1, XDATA, add(CFA_XSP16, literal(-3)))
          CFI DPL0 load(1, XDATA, add(CFA_XSP16, literal(-2)))
          CFI DPH0 load(1, XDATA, add(CFA_XSP16, literal(-1)))
          CFI CFA_SP SP+-2
          CFI CFA_XSP16 add(XSP16, 25)
          CFI Block cfiCond67 Using cfiCommon0
          CFI (cfiCond67) Function afIncomingData
          CFI (cfiCond67) Conditional ??CrossCallReturnLabel_61, ??CrossCallReturnLabel_4
          CFI (cfiCond67) R6 load(1, XDATA, add(CFA_XSP16, literal(-16)))
          CFI (cfiCond67) VB load(1, XDATA, add(CFA_XSP16, literal(-15)))
          CFI (cfiCond67) V0 load(1, XDATA, add(CFA_XSP16, literal(-14)))
          CFI (cfiCond67) V1 load(1, XDATA, add(CFA_XSP16, literal(-13)))
          CFI (cfiCond67) V2 load(1, XDATA, add(CFA_XSP16, literal(-12)))
          CFI (cfiCond67) V3 load(1, XDATA, add(CFA_XSP16, literal(-11)))
          CFI (cfiCond67) V4 load(1, XDATA, add(CFA_XSP16, literal(-10)))
          CFI (cfiCond67) V5 load(1, XDATA, add(CFA_XSP16, literal(-9)))
          CFI (cfiCond67) V6 load(1, XDATA, add(CFA_XSP16, literal(-8)))
          CFI (cfiCond67) V7 load(1, XDATA, add(CFA_XSP16, literal(-7)))
          CFI (cfiCond67) R7 load(1, XDATA, add(CFA_XSP16, literal(-6)))
          CFI (cfiCond67) ?RET_LOW load(1, XDATA, add(CFA_XSP16, literal(-5)))
          CFI (cfiCond67) ?RET_HIGH load(1, XDATA, add(CFA_XSP16, literal(-4)))
          CFI (cfiCond67) ?BRET_EXT load(1, XDATA, add(CFA_XSP16, literal(-3)))
          CFI (cfiCond67) DPL0 load(1, XDATA, add(CFA_XSP16, literal(-2)))
          CFI (cfiCond67) DPH0 load(1, XDATA, add(CFA_XSP16, literal(-1)))
          CFI (cfiCond67) CFA_SP SP+-4
          CFI (cfiCond67) CFA_XSP16 add(XSP16, 25)
          CFI Block cfiCond68 Using cfiCommon0
          CFI (cfiCond68) Function afIncomingData
          CFI (cfiCond68) Conditional ??CrossCallReturnLabel_61, ??CrossCallReturnLabel_5
          CFI (cfiCond68) R6 load(1, XDATA, add(CFA_XSP16, literal(-16)))
          CFI (cfiCond68) VB load(1, XDATA, add(CFA_XSP16, literal(-15)))
          CFI (cfiCond68) V0 load(1, XDATA, add(CFA_XSP16, literal(-14)))
          CFI (cfiCond68) V1 load(1, XDATA, add(CFA_XSP16, literal(-13)))
          CFI (cfiCond68) V2 load(1, XDATA, add(CFA_XSP16, literal(-12)))
          CFI (cfiCond68) V3 load(1, XDATA, add(CFA_XSP16, literal(-11)))
          CFI (cfiCond68) V4 load(1, XDATA, add(CFA_XSP16, literal(-10)))
          CFI (cfiCond68) V5 load(1, XDATA, add(CFA_XSP16, literal(-9)))
          CFI (cfiCond68) V6 load(1, XDATA, add(CFA_XSP16, literal(-8)))
          CFI (cfiCond68) V7 load(1, XDATA, add(CFA_XSP16, literal(-7)))
          CFI (cfiCond68) R7 load(1, XDATA, add(CFA_XSP16, literal(-6)))
          CFI (cfiCond68) ?RET_LOW load(1, XDATA, add(CFA_XSP16, literal(-5)))
          CFI (cfiCond68) ?RET_HIGH load(1, XDATA, add(CFA_XSP16, literal(-4)))
          CFI (cfiCond68) ?BRET_EXT load(1, XDATA, add(CFA_XSP16, literal(-3)))
          CFI (cfiCond68) DPL0 load(1, XDATA, add(CFA_XSP16, literal(-2)))
          CFI (cfiCond68) DPH0 load(1, XDATA, add(CFA_XSP16, literal(-1)))
          CFI (cfiCond68) CFA_SP SP+-4
          CFI (cfiCond68) CFA_XSP16 add(XSP16, 25)
          CFI Block cfiPicker69 Using cfiCommon1
          CFI (cfiPicker69) NoFunction
          CFI (cfiPicker69) Picker
        MOVX    A,@DPTR
        MOV     R0,A
        INC     DPTR
        MOVX    A,@DPTR
        XCH     A,R0
        ADD     A,#0x8
        MOV     DPL,A
        CLR     A
        ADDC    A,R0
        MOV     DPH,A
        RET
          CFI EndBlock cfiCond66
          CFI EndBlock cfiCond67
          CFI EndBlock cfiCond68
          CFI EndBlock cfiPicker69
//  467 
//  468 /*********************************************************************
//  469  * @fn          afBuildMSGIncoming
//  470  *
//  471  * @brief       Build the message for the app
//  472  *
//  473  * @param
//  474  *
//  475  * @return      pointer to next in data buffer
//  476  */

        RSEG BANKED_CODE:CODE:NOROOT(0)
//  477 static void afBuildMSGIncoming( aps_FrameFormat_t *aff, endPointDesc_t *epDesc,
afBuildMSGIncoming:
          CFI Block cfiBlock70 Using cfiCommon0
          CFI Function afBuildMSGIncoming
        CODE
//  478                  zAddrType_t *SrcAddress, uint16 SrcPanId, NLDE_Signal_t *sig,
//  479                  uint8 nwkSeqNum, uint8 SecurityUse, uint32 timestamp, uint8 radius )
//  480 {
        FUNCALL afBuildMSGIncoming, osal_msg_allocate
        LOCFRAME ISTACK, 0, STACK
        LOCFRAME PSTACK, 0, STACK
        LOCFRAME XSTACK, 17, STACK
        LOCFRAME IOVERLAY, 0, STATIC
        LOCFRAME DOVERLAY, 0, STATIC
        ARGFRAME ISTACK, 0, STACK
        ARGFRAME PSTACK, 0, STACK
        ARGFRAME XSTACK, 17, STACK
        ARGFRAME IOVERLAY, 0, STATIC
        ARGFRAME DOVERLAY, 0, STATIC
        FUNCALL afBuildMSGIncoming, afCopyAddress
        LOCFRAME ISTACK, 0, STACK
        LOCFRAME PSTACK, 0, STACK
        LOCFRAME XSTACK, 17, STACK
        LOCFRAME IOVERLAY, 0, STATIC
        LOCFRAME DOVERLAY, 0, STATIC
        ARGFRAME ISTACK, 0, STACK
        ARGFRAME PSTACK, 0, STACK
        ARGFRAME XSTACK, 17, STACK
        ARGFRAME IOVERLAY, 0, STATIC
        ARGFRAME DOVERLAY, 0, STATIC
        FUNCALL afBuildMSGIncoming, osal_memcpy
        LOCFRAME ISTACK, 0, STACK
        LOCFRAME PSTACK, 0, STACK
        LOCFRAME XSTACK, 20, STACK
        LOCFRAME IOVERLAY, 0, STATIC
        LOCFRAME DOVERLAY, 0, STATIC
        ARGFRAME ISTACK, 0, STACK
        ARGFRAME PSTACK, 0, STACK
        ARGFRAME XSTACK, 20, STACK
        ARGFRAME IOVERLAY, 0, STATIC
        ARGFRAME DOVERLAY, 0, STATIC
        FUNCALL afBuildMSGIncoming, osal_msg_send
        LOCFRAME ISTACK, 0, STACK
        LOCFRAME PSTACK, 0, STACK
        LOCFRAME XSTACK, 17, STACK
        LOCFRAME IOVERLAY, 0, STATIC
        LOCFRAME DOVERLAY, 0, STATIC
        ARGFRAME ISTACK, 0, STACK
        ARGFRAME PSTACK, 0, STACK
        ARGFRAME XSTACK, 17, STACK
        ARGFRAME IOVERLAY, 0, STATIC
        ARGFRAME DOVERLAY, 0, STATIC
        REQUIRE ?V0
        REQUIRE ?V1
        REQUIRE ?V2
        REQUIRE ?V3
        REQUIRE ?V4
        REQUIRE ?V5
        REQUIRE ?V6
        REQUIRE ?V7
        MOV     A,#-0x10
        LCALL   ?BANKED_ENTER_XDATA
          CFI DPH0 load(1, XDATA, add(CFA_XSP16, literal(-1)))
          CFI DPL0 load(1, XDATA, add(CFA_XSP16, literal(-2)))
          CFI ?BRET_EXT load(1, XDATA, add(CFA_XSP16, literal(-3)))
          CFI ?RET_HIGH load(1, XDATA, add(CFA_XSP16, literal(-4)))
          CFI ?RET_LOW load(1, XDATA, add(CFA_XSP16, literal(-5)))
          CFI R7 load(1, XDATA, add(CFA_XSP16, literal(-6)))
          CFI V7 load(1, XDATA, add(CFA_XSP16, literal(-7)))
          CFI V6 load(1, XDATA, add(CFA_XSP16, literal(-8)))
          CFI V5 load(1, XDATA, add(CFA_XSP16, literal(-9)))
          CFI V4 load(1, XDATA, add(CFA_XSP16, literal(-10)))
          CFI V3 load(1, XDATA, add(CFA_XSP16, literal(-11)))
          CFI V2 load(1, XDATA, add(CFA_XSP16, literal(-12)))
          CFI V1 load(1, XDATA, add(CFA_XSP16, literal(-13)))
          CFI V0 load(1, XDATA, add(CFA_XSP16, literal(-14)))
          CFI VB load(1, XDATA, add(CFA_XSP16, literal(-15)))
          CFI R6 load(1, XDATA, add(CFA_XSP16, literal(-16)))
          CFI CFA_SP SP+0
          CFI CFA_XSP16 add(XSP16, 16)
        ; Saved register size: 16
        ; Auto size: 1
        MOV     A,#-0x1
        LCALL   ?ALLOC_XSTACK8
          CFI CFA_XSP16 add(XSP16, 17)
        MOV     A,R1
        MOV     DPL,?XSP + 0
        MOV     DPH,?XSP + 1
        MOVX    @DPTR,A
        MOV     ?V0,R2
        MOV     ?V1,R3
        MOV     ?V4,R4
        MOV     ?V5,R5
//  481   afIncomingMSGPacket_t *MSGpkt;
//  482   const uint8 len = sizeof( afIncomingMSGPacket_t ) + aff->asduLength;
//  483   uint8 *asdu = aff->asdu;
        MOV     A,R2
        ADD     A,#0xe
        MOV     DPL,A
        CLR     A
        ADDC    A,?V1
        MOV     DPH,A
        LCALL   ?Subroutine9 & 0xFFFF
//  484   MSGpkt = (afIncomingMSGPacket_t *)osal_msg_allocate( len );
??CrossCallReturnLabel_2:
        ; Setup parameters for call to function osal_msg_allocate
        MOV     A,R2
        LCALL   ?Subroutine32 & 0xFFFF
??CrossCallReturnLabel_47:
        ADD     A,#0x27
        MOV     R2,A
        MOV     R3,#0x0
        LCALL   `??osal_msg_allocate::?relay`; Banked call to: osal_msg_allocate
        MOV     ?V2,R2
        MOV     ?V3,R3
        MOV     R6,?V2
        MOV     R7,?V3
//  485 
//  486   if ( MSGpkt == NULL )
        MOV     A,R6
        ORL     A,R7
        JNZ     $+5
        LJMP    ??afBuildMSGIncoming_0 & 0xFFFF
//  487   {
//  488     return;
//  489   }
//  490 
//  491   MSGpkt->hdr.event = AF_INCOMING_MSG_CMD;
        MOV     DPL,R6
        MOV     DPH,R7
        MOV     A,#0x1a
        LCALL   ?Subroutine34 & 0xFFFF
//  492   MSGpkt->groupId = aff->GroupID;
??CrossCallReturnLabel_51:
        LCALL   ?Subroutine13 & 0xFFFF
??CrossCallReturnLabel_10:
        LCALL   ?Subroutine24 & 0xFFFF
//  493   MSGpkt->clusterId = aff->ClusterID;
??CrossCallReturnLabel_29:
        LCALL   ?Subroutine13 & 0xFFFF
??CrossCallReturnLabel_11:
        INC     DPTR
        INC     DPTR
        LCALL   ??Subroutine44_0 & 0xFFFF
//  494   afCopyAddress( &MSGpkt->srcAddr, SrcAddress );
??CrossCallReturnLabel_75:
        ; Setup parameters for call to function afCopyAddress
        MOV     A,#0x11
        LCALL   ?XSTACK_DISP0_8
        LCALL   ?Subroutine19 & 0xFFFF
??CrossCallReturnLabel_22:
        MOV     A,R6
        ADD     A,#0x6
        MOV     R2,A
        CLR     A
        ADDC    A,R7
        MOV     R3,A
        LCALL   `??afCopyAddress::?relay`; Banked call to: afCopyAddress
//  495   MSGpkt->srcAddr.endPoint = aff->SrcEndPoint;
        MOV     DPL,?V0
        MOV     DPH,?V1
        INC     DPTR
        INC     DPTR
        INC     DPTR
        MOVX    A,@DPTR
        PUSH    A
          CFI CFA_SP SP+-1
        MOV     A,R6
        ADD     A,#0xf
        MOV     DPL,A
        CLR     A
        ADDC    A,R7
        MOV     DPH,A
        POP     A
          CFI CFA_SP SP+0
        MOVX    @DPTR,A
//  496   MSGpkt->endPoint = epDesc->endPoint;
        MOV     DPL,?V4
        MOV     DPH,?V5
        MOVX    A,@DPTR
        PUSH    A
          CFI CFA_SP SP+-1
        MOV     A,R6
        ADD     A,#0x14
        MOV     DPL,A
        CLR     A
        ADDC    A,R7
        MOV     DPH,A
        POP     A
          CFI CFA_SP SP+0
        MOVX    @DPTR,A
//  497   MSGpkt->wasBroadcast = aff->wasBroadcast;
        MOV     A,?V0
        ADD     A,#0xc
        MOV     DPL,A
        CLR     A
        ADDC    A,?V1
        MOV     DPH,A
        MOVX    A,@DPTR
        PUSH    A
          CFI CFA_SP SP+-1
        MOV     A,R6
        ADD     A,#0x15
        MOV     DPL,A
        CLR     A
        ADDC    A,R7
        MOV     DPH,A
        POP     A
          CFI CFA_SP SP+0
        MOVX    @DPTR,A
        MOV     A,#0x15
        LCALL   ?XSTACK_DISP0_8
        LCALL   ?Subroutine16 & 0xFFFF
//  498   MSGpkt->LinkQuality = sig->LinkQuality;
??CrossCallReturnLabel_16:
        MOVX    A,@DPTR
        PUSH    A
          CFI CFA_SP SP+-1
        MOV     A,R6
        ADD     A,#0x16
        MOV     DPL,A
        CLR     A
        ADDC    A,R7
        MOV     DPH,A
        POP     A
          CFI CFA_SP SP+0
        LCALL   ?Subroutine36 & 0xFFFF
//  499   MSGpkt->correlation = sig->correlation;
??CrossCallReturnLabel_56:
        INC     DPTR
        MOVX    A,@DPTR
        PUSH    A
          CFI CFA_SP SP+-1
        MOV     A,R6
        ADD     A,#0x17
        MOV     DPL,A
        CLR     A
        ADDC    A,R7
        MOV     DPH,A
        POP     A
          CFI CFA_SP SP+0
        LCALL   ?Subroutine36 & 0xFFFF
//  500   MSGpkt->rssi = sig->rssi;
??CrossCallReturnLabel_57:
        INC     DPTR
        INC     DPTR
        MOVX    A,@DPTR
        PUSH    A
          CFI CFA_SP SP+-1
        MOV     A,R6
        ADD     A,#0x18
        MOV     DPL,A
        CLR     A
        ADDC    A,R7
        MOV     DPH,A
        POP     A
          CFI CFA_SP SP+0
        MOVX    @DPTR,A
//  501   MSGpkt->SecurityUse = SecurityUse;
        MOV     A,#0x17
        LCALL   ?XSTACK_DISP0_8
        MOVX    A,@DPTR
        PUSH    A
          CFI CFA_SP SP+-1
        MOV     A,R6
        ADD     A,#0x19
        MOV     DPL,A
        CLR     A
        ADDC    A,R7
        MOV     DPH,A
        POP     A
          CFI CFA_SP SP+0
        MOVX    @DPTR,A
//  502   MSGpkt->timestamp = timestamp;
        MOV     A,#0x18
        LCALL   ?XSTACK_DISP0_8
        LCALL   ?XLOAD_R0123
        MOV     A,R6
        ADD     A,#0x1a
        MOV     DPL,A
        CLR     A
        ADDC    A,R7
        MOV     DPH,A
        LCALL   ?XSTORE_R0123
//  503   MSGpkt->nwkSeqNum = nwkSeqNum;
        MOV     DPL,?XSP + 0
        MOV     DPH,?XSP + 1
        MOVX    A,@DPTR
        PUSH    A
          CFI CFA_SP SP+-1
        MOV     A,R6
        ADD     A,#0x1e
        MOV     DPL,A
        CLR     A
        ADDC    A,R7
        MOV     DPH,A
        POP     A
          CFI CFA_SP SP+0
        MOVX    @DPTR,A
//  504   MSGpkt->macSrcAddr = aff->macSrcAddr;
        MOV     A,?V0
        ADD     A,#0x15
        MOV     DPL,A
        CLR     A
        ADDC    A,?V1
        MOV     DPH,A
        LCALL   ?Subroutine17 & 0xFFFF
??CrossCallReturnLabel_18:
        ADD     A,#0x24
        MOV     DPL,A
        CLR     A
        ADDC    A,R7
        MOV     DPH,A
        LCALL   ?Subroutine24 & 0xFFFF
//  505   MSGpkt->macDestAddr = aff->macDestAddr;
??CrossCallReturnLabel_30:
        INC     DPTR
        INC     DPTR
        INC     DPTR
        INC     DPTR
        INC     DPTR
        INC     DPTR
        INC     DPTR
        INC     DPTR
        LCALL   ?Subroutine17 & 0xFFFF
??CrossCallReturnLabel_19:
        ADD     A,#0x12
        LCALL   ?Subroutine25 & 0xFFFF
//  506   MSGpkt->srcAddr.panId = SrcPanId;
??CrossCallReturnLabel_81:
        MOV     A,#0x13
        LCALL   ?XSTACK_DISP0_8
        LCALL   ?Subroutine17 & 0xFFFF
??CrossCallReturnLabel_20:
        ADD     A,#0x10
        LCALL   ?Subroutine25 & 0xFFFF
//  507   MSGpkt->cmd.TransSeqNumber = 0;
??CrossCallReturnLabel_82:
        MOV     A,R6
        ADD     A,#0x1f
        MOV     DPL,A
        CLR     A
        ADDC    A,R7
        MOV     DPH,A
        CLR     A
        MOVX    @DPTR,A
//  508   MSGpkt->cmd.DataLength = aff->asduLength;
        MOV     A,R6
        ADD     A,#0x20
        MOV     R0,A
        CLR     A
        ADDC    A,R7
        MOV     R1,A
        MOV     A,?V0
        LCALL   ?Subroutine32 & 0xFFFF
??CrossCallReturnLabel_48:
        MOV     DPL,R0
        MOV     DPH,R1
        MOVX    @DPTR,A
        INC     DPTR
        CLR     A
        MOVX    @DPTR,A
//  509   MSGpkt->radius = radius;
        MOV     A,#0x1c
        LCALL   ?XSTACK_DISP0_8
        MOVX    A,@DPTR
        PUSH    A
          CFI CFA_SP SP+-1
        MOV     A,R6
        ADD     A,#0x26
        MOV     DPL,A
        CLR     A
        ADDC    A,R7
        MOV     DPH,A
        POP     A
          CFI CFA_SP SP+0
        LCALL   ?Subroutine36 & 0xFFFF
//  510 
//  511   if ( MSGpkt->cmd.DataLength )
??CrossCallReturnLabel_58:
        LCALL   ??Subroutine45_0 & 0xFFFF
??CrossCallReturnLabel_88:
        JZ      ??afBuildMSGIncoming_1
//  512   {
//  513     MSGpkt->cmd.Data = (uint8 *)(MSGpkt + 1);
        MOV     A,R6
        ADD     A,#0x27
        MOV     R2,A
        CLR     A
        ADDC    A,R7
        MOV     R3,A
        LCALL   ?Subroutine33 & 0xFFFF
??CrossCallReturnLabel_49:
        LCALL   ?Subroutine29 & 0xFFFF
//  514     osal_memcpy( MSGpkt->cmd.Data, asdu, MSGpkt->cmd.DataLength );
??CrossCallReturnLabel_41:
        ; Setup parameters for call to function osal_memcpy
        MOV     ?V0,?V6
        MOV     ?V1,?V7
        MOV     ?V2,#0x0
        MOV     R0,#?V0
        LCALL   ?PUSH_XSTACK_I_THREE
          CFI CFA_XSP16 add(XSP16, 20)
        MOV     A,R6
        ADD     A,#0x20
        MOV     DPL,A
        CLR     A
        ADDC    A,R7
        MOV     DPH,A
        LCALL   ?Subroutine19 & 0xFFFF
//  515   }
??CrossCallReturnLabel_23:
        LCALL   `??osal_memcpy::?relay`; Banked call to: osal_memcpy
        MOV     A,#0x3
        LCALL   ?DEALLOC_XSTACK8
          CFI CFA_XSP16 add(XSP16, 17)
        SJMP    ??afBuildMSGIncoming_2
//  516   else
//  517   {
//  518     MSGpkt->cmd.Data = NULL;
??afBuildMSGIncoming_1:
        LCALL   ?Subroutine33 & 0xFFFF
//  519   }
??CrossCallReturnLabel_50:
        CLR     A
        MOVX    @DPTR,A
        INC     DPTR
        MOVX    @DPTR,A
//  520 
//  521 #if defined ( MT_AF_CB_FUNC )
//  522   // If ZDO or SAPI have registered for this endpoint, dont intercept it here
//  523   if (AFCB_CHECK(CB_ID_AF_DATA_IND, *(epDesc->task_id)))
//  524   {
//  525     MT_AfIncomingMsg( (void *)MSGpkt );
//  526     // Release the memory.
//  527     osal_msg_deallocate( (void *)MSGpkt );
//  528   }
//  529   else
//  530 #endif
//  531   {
//  532     // Send message through task message.
//  533     osal_msg_send( *(epDesc->task_id), (uint8 *)MSGpkt );
??afBuildMSGIncoming_2:
        ; Setup parameters for call to function osal_msg_send
        MOV     A,R6
        MOV     R2,A
        MOV     A,R7
        MOV     R3,A
        LCALL   ??Subroutine43_0 & 0xFFFF
//  534   }
??CrossCallReturnLabel_68:
        LCALL   `??osal_msg_send::?relay`; Banked call to: osal_msg_send
//  535 }
??afBuildMSGIncoming_0:
        MOV     A,#0x1
        LJMP    ?Subroutine3 & 0xFFFF
          CFI EndBlock cfiBlock70

        RSEG BANKED_CODE:CODE:NOROOT(0)
?Subroutine33:
          CFI Block cfiCond71 Using cfiCommon0
          CFI Function afBuildMSGIncoming
          CFI Conditional ??CrossCallReturnLabel_49
          CFI R6 load(1, XDATA, add(CFA_XSP16, literal(-16)))
          CFI VB load(1, XDATA, add(CFA_XSP16, literal(-15)))
          CFI V0 load(1, XDATA, add(CFA_XSP16, literal(-14)))
          CFI V1 load(1, XDATA, add(CFA_XSP16, literal(-13)))
          CFI V2 load(1, XDATA, add(CFA_XSP16, literal(-12)))
          CFI V3 load(1, XDATA, add(CFA_XSP16, literal(-11)))
          CFI V4 load(1, XDATA, add(CFA_XSP16, literal(-10)))
          CFI V5 load(1, XDATA, add(CFA_XSP16, literal(-9)))
          CFI V6 load(1, XDATA, add(CFA_XSP16, literal(-8)))
          CFI V7 load(1, XDATA, add(CFA_XSP16, literal(-7)))
          CFI R7 load(1, XDATA, add(CFA_XSP16, literal(-6)))
          CFI ?RET_LOW load(1, XDATA, add(CFA_XSP16, literal(-5)))
          CFI ?RET_HIGH load(1, XDATA, add(CFA_XSP16, literal(-4)))
          CFI ?BRET_EXT load(1, XDATA, add(CFA_XSP16, literal(-3)))
          CFI DPL0 load(1, XDATA, add(CFA_XSP16, literal(-2)))
          CFI DPH0 load(1, XDATA, add(CFA_XSP16, literal(-1)))
          CFI CFA_SP SP+-2
          CFI CFA_XSP16 add(XSP16, 17)
          CFI Block cfiCond72 Using cfiCommon0
          CFI (cfiCond72) Function afBuildMSGIncoming
          CFI (cfiCond72) Conditional ??CrossCallReturnLabel_50
          CFI (cfiCond72) R6 load(1, XDATA, add(CFA_XSP16, literal(-16)))
          CFI (cfiCond72) VB load(1, XDATA, add(CFA_XSP16, literal(-15)))
          CFI (cfiCond72) V0 load(1, XDATA, add(CFA_XSP16, literal(-14)))
          CFI (cfiCond72) V1 load(1, XDATA, add(CFA_XSP16, literal(-13)))
          CFI (cfiCond72) V2 load(1, XDATA, add(CFA_XSP16, literal(-12)))
          CFI (cfiCond72) V3 load(1, XDATA, add(CFA_XSP16, literal(-11)))
          CFI (cfiCond72) V4 load(1, XDATA, add(CFA_XSP16, literal(-10)))
          CFI (cfiCond72) V5 load(1, XDATA, add(CFA_XSP16, literal(-9)))
          CFI (cfiCond72) V6 load(1, XDATA, add(CFA_XSP16, literal(-8)))
          CFI (cfiCond72) V7 load(1, XDATA, add(CFA_XSP16, literal(-7)))
          CFI (cfiCond72) R7 load(1, XDATA, add(CFA_XSP16, literal(-6)))
          CFI (cfiCond72) ?RET_LOW load(1, XDATA, add(CFA_XSP16, literal(-5)))
          CFI (cfiCond72) ?RET_HIGH load(1, XDATA, add(CFA_XSP16, literal(-4)))
          CFI (cfiCond72) ?BRET_EXT load(1, XDATA, add(CFA_XSP16, literal(-3)))
          CFI (cfiCond72) DPL0 load(1, XDATA, add(CFA_XSP16, literal(-2)))
          CFI (cfiCond72) DPH0 load(1, XDATA, add(CFA_XSP16, literal(-1)))
          CFI (cfiCond72) CFA_SP SP+-2
          CFI (cfiCond72) CFA_XSP16 add(XSP16, 17)
          CFI Block cfiPicker73 Using cfiCommon1
          CFI (cfiPicker73) NoFunction
          CFI (cfiPicker73) Picker
        MOV     A,R6
        ADD     A,#0x22
        MOV     DPL,A
        CLR     A
        ADDC    A,R7
        MOV     DPH,A
        RET
          CFI EndBlock cfiCond71
          CFI EndBlock cfiCond72
          CFI EndBlock cfiPicker73

        RSEG BANKED_CODE:CODE:NOROOT(0)
?Subroutine32:
          CFI Block cfiCond74 Using cfiCommon0
          CFI Function afBuildMSGIncoming
          CFI Conditional ??CrossCallReturnLabel_47
          CFI R6 load(1, XDATA, add(CFA_XSP16, literal(-16)))
          CFI VB load(1, XDATA, add(CFA_XSP16, literal(-15)))
          CFI V0 load(1, XDATA, add(CFA_XSP16, literal(-14)))
          CFI V1 load(1, XDATA, add(CFA_XSP16, literal(-13)))
          CFI V2 load(1, XDATA, add(CFA_XSP16, literal(-12)))
          CFI V3 load(1, XDATA, add(CFA_XSP16, literal(-11)))
          CFI V4 load(1, XDATA, add(CFA_XSP16, literal(-10)))
          CFI V5 load(1, XDATA, add(CFA_XSP16, literal(-9)))
          CFI V6 load(1, XDATA, add(CFA_XSP16, literal(-8)))
          CFI V7 load(1, XDATA, add(CFA_XSP16, literal(-7)))
          CFI R7 load(1, XDATA, add(CFA_XSP16, literal(-6)))
          CFI ?RET_LOW load(1, XDATA, add(CFA_XSP16, literal(-5)))
          CFI ?RET_HIGH load(1, XDATA, add(CFA_XSP16, literal(-4)))
          CFI ?BRET_EXT load(1, XDATA, add(CFA_XSP16, literal(-3)))
          CFI DPL0 load(1, XDATA, add(CFA_XSP16, literal(-2)))
          CFI DPH0 load(1, XDATA, add(CFA_XSP16, literal(-1)))
          CFI CFA_SP SP+-2
          CFI CFA_XSP16 add(XSP16, 17)
          CFI Block cfiCond75 Using cfiCommon0
          CFI (cfiCond75) Function afBuildMSGIncoming
          CFI (cfiCond75) Conditional ??CrossCallReturnLabel_48
          CFI (cfiCond75) R6 load(1, XDATA, add(CFA_XSP16, literal(-16)))
          CFI (cfiCond75) VB load(1, XDATA, add(CFA_XSP16, literal(-15)))
          CFI (cfiCond75) V0 load(1, XDATA, add(CFA_XSP16, literal(-14)))
          CFI (cfiCond75) V1 load(1, XDATA, add(CFA_XSP16, literal(-13)))
          CFI (cfiCond75) V2 load(1, XDATA, add(CFA_XSP16, literal(-12)))
          CFI (cfiCond75) V3 load(1, XDATA, add(CFA_XSP16, literal(-11)))
          CFI (cfiCond75) V4 load(1, XDATA, add(CFA_XSP16, literal(-10)))
          CFI (cfiCond75) V5 load(1, XDATA, add(CFA_XSP16, literal(-9)))
          CFI (cfiCond75) V6 load(1, XDATA, add(CFA_XSP16, literal(-8)))
          CFI (cfiCond75) V7 load(1, XDATA, add(CFA_XSP16, literal(-7)))
          CFI (cfiCond75) R7 load(1, XDATA, add(CFA_XSP16, literal(-6)))
          CFI (cfiCond75) ?RET_LOW load(1, XDATA, add(CFA_XSP16, literal(-5)))
          CFI (cfiCond75) ?RET_HIGH load(1, XDATA, add(CFA_XSP16, literal(-4)))
          CFI (cfiCond75) ?BRET_EXT load(1, XDATA, add(CFA_XSP16, literal(-3)))
          CFI (cfiCond75) DPL0 load(1, XDATA, add(CFA_XSP16, literal(-2)))
          CFI (cfiCond75) DPH0 load(1, XDATA, add(CFA_XSP16, literal(-1)))
          CFI (cfiCond75) CFA_SP SP+-2
          CFI (cfiCond75) CFA_XSP16 add(XSP16, 17)
          CFI Block cfiPicker76 Using cfiCommon1
          CFI (cfiPicker76) NoFunction
          CFI (cfiPicker76) Picker
        ADD     A,#0x10
        MOV     DPL,A
        CLR     A
        ADDC    A,?V1
        MOV     DPH,A
        MOVX    A,@DPTR
        RET
          CFI EndBlock cfiCond74
          CFI EndBlock cfiCond75
          CFI EndBlock cfiPicker76

        RSEG BANKED_CODE:CODE:NOROOT(0)
?Subroutine29:
          CFI Block cfiCond77 Using cfiCommon0
          CFI Function afRegisterExtended
          CFI Conditional ??CrossCallReturnLabel_37
          CFI R6 load(1, XDATA, add(CFA_XSP16, literal(-12)))
          CFI VB load(1, XDATA, add(CFA_XSP16, literal(-11)))
          CFI V0 load(1, XDATA, add(CFA_XSP16, literal(-10)))
          CFI V1 load(1, XDATA, add(CFA_XSP16, literal(-9)))
          CFI V2 load(1, XDATA, add(CFA_XSP16, literal(-8)))
          CFI V3 load(1, XDATA, add(CFA_XSP16, literal(-7)))
          CFI R7 load(1, XDATA, add(CFA_XSP16, literal(-6)))
          CFI ?RET_LOW load(1, XDATA, add(CFA_XSP16, literal(-5)))
          CFI ?RET_HIGH load(1, XDATA, add(CFA_XSP16, literal(-4)))
          CFI ?BRET_EXT load(1, XDATA, add(CFA_XSP16, literal(-3)))
          CFI DPL0 load(1, XDATA, add(CFA_XSP16, literal(-2)))
          CFI DPH0 load(1, XDATA, add(CFA_XSP16, literal(-1)))
          CFI CFA_SP SP+-2
          CFI CFA_XSP16 add(XSP16, 12)
          CFI Block cfiCond78 Using cfiCommon0
          CFI (cfiCond78) Function afIncomingData
          CFI (cfiCond78) Conditional ??CrossCallReturnLabel_38
          CFI (cfiCond78) R6 load(1, XDATA, add(CFA_XSP16, literal(-16)))
          CFI (cfiCond78) VB load(1, XDATA, add(CFA_XSP16, literal(-15)))
          CFI (cfiCond78) V0 load(1, XDATA, add(CFA_XSP16, literal(-14)))
          CFI (cfiCond78) V1 load(1, XDATA, add(CFA_XSP16, literal(-13)))
          CFI (cfiCond78) V2 load(1, XDATA, add(CFA_XSP16, literal(-12)))
          CFI (cfiCond78) V3 load(1, XDATA, add(CFA_XSP16, literal(-11)))
          CFI (cfiCond78) V4 load(1, XDATA, add(CFA_XSP16, literal(-10)))
          CFI (cfiCond78) V5 load(1, XDATA, add(CFA_XSP16, literal(-9)))
          CFI (cfiCond78) V6 load(1, XDATA, add(CFA_XSP16, literal(-8)))
          CFI (cfiCond78) V7 load(1, XDATA, add(CFA_XSP16, literal(-7)))
          CFI (cfiCond78) R7 load(1, XDATA, add(CFA_XSP16, literal(-6)))
          CFI (cfiCond78) ?RET_LOW load(1, XDATA, add(CFA_XSP16, literal(-5)))
          CFI (cfiCond78) ?RET_HIGH load(1, XDATA, add(CFA_XSP16, literal(-4)))
          CFI (cfiCond78) ?BRET_EXT load(1, XDATA, add(CFA_XSP16, literal(-3)))
          CFI (cfiCond78) DPL0 load(1, XDATA, add(CFA_XSP16, literal(-2)))
          CFI (cfiCond78) DPH0 load(1, XDATA, add(CFA_XSP16, literal(-1)))
          CFI (cfiCond78) CFA_SP SP+-2
          CFI (cfiCond78) CFA_XSP16 add(XSP16, 25)
          CFI Block cfiCond79 Using cfiCommon0
          CFI (cfiCond79) Function afIncomingData
          CFI (cfiCond79) Conditional ??CrossCallReturnLabel_39
          CFI (cfiCond79) R6 load(1, XDATA, add(CFA_XSP16, literal(-16)))
          CFI (cfiCond79) VB load(1, XDATA, add(CFA_XSP16, literal(-15)))
          CFI (cfiCond79) V0 load(1, XDATA, add(CFA_XSP16, literal(-14)))
          CFI (cfiCond79) V1 load(1, XDATA, add(CFA_XSP16, literal(-13)))
          CFI (cfiCond79) V2 load(1, XDATA, add(CFA_XSP16, literal(-12)))
          CFI (cfiCond79) V3 load(1, XDATA, add(CFA_XSP16, literal(-11)))
          CFI (cfiCond79) V4 load(1, XDATA, add(CFA_XSP16, literal(-10)))
          CFI (cfiCond79) V5 load(1, XDATA, add(CFA_XSP16, literal(-9)))
          CFI (cfiCond79) V6 load(1, XDATA, add(CFA_XSP16, literal(-8)))
          CFI (cfiCond79) V7 load(1, XDATA, add(CFA_XSP16, literal(-7)))
          CFI (cfiCond79) R7 load(1, XDATA, add(CFA_XSP16, literal(-6)))
          CFI (cfiCond79) ?RET_LOW load(1, XDATA, add(CFA_XSP16, literal(-5)))
          CFI (cfiCond79) ?RET_HIGH load(1, XDATA, add(CFA_XSP16, literal(-4)))
          CFI (cfiCond79) ?BRET_EXT load(1, XDATA, add(CFA_XSP16, literal(-3)))
          CFI (cfiCond79) DPL0 load(1, XDATA, add(CFA_XSP16, literal(-2)))
          CFI (cfiCond79) DPH0 load(1, XDATA, add(CFA_XSP16, literal(-1)))
          CFI (cfiCond79) CFA_SP SP+-2
          CFI (cfiCond79) CFA_XSP16 add(XSP16, 25)
          CFI Block cfiCond80 Using cfiCommon0
          CFI (cfiCond80) Function afIncomingData
          CFI (cfiCond80) Conditional ??CrossCallReturnLabel_40
          CFI (cfiCond80) R6 load(1, XDATA, add(CFA_XSP16, literal(-16)))
          CFI (cfiCond80) VB load(1, XDATA, add(CFA_XSP16, literal(-15)))
          CFI (cfiCond80) V0 load(1, XDATA, add(CFA_XSP16, literal(-14)))
          CFI (cfiCond80) V1 load(1, XDATA, add(CFA_XSP16, literal(-13)))
          CFI (cfiCond80) V2 load(1, XDATA, add(CFA_XSP16, literal(-12)))
          CFI (cfiCond80) V3 load(1, XDATA, add(CFA_XSP16, literal(-11)))
          CFI (cfiCond80) V4 load(1, XDATA, add(CFA_XSP16, literal(-10)))
          CFI (cfiCond80) V5 load(1, XDATA, add(CFA_XSP16, literal(-9)))
          CFI (cfiCond80) V6 load(1, XDATA, add(CFA_XSP16, literal(-8)))
          CFI (cfiCond80) V7 load(1, XDATA, add(CFA_XSP16, literal(-7)))
          CFI (cfiCond80) R7 load(1, XDATA, add(CFA_XSP16, literal(-6)))
          CFI (cfiCond80) ?RET_LOW load(1, XDATA, add(CFA_XSP16, literal(-5)))
          CFI (cfiCond80) ?RET_HIGH load(1, XDATA, add(CFA_XSP16, literal(-4)))
          CFI (cfiCond80) ?BRET_EXT load(1, XDATA, add(CFA_XSP16, literal(-3)))
          CFI (cfiCond80) DPL0 load(1, XDATA, add(CFA_XSP16, literal(-2)))
          CFI (cfiCond80) DPH0 load(1, XDATA, add(CFA_XSP16, literal(-1)))
          CFI (cfiCond80) CFA_SP SP+-2
          CFI (cfiCond80) CFA_XSP16 add(XSP16, 25)
          CFI Block cfiCond81 Using cfiCommon0
          CFI (cfiCond81) Function afBuildMSGIncoming
          CFI (cfiCond81) Conditional ??CrossCallReturnLabel_41
          CFI (cfiCond81) R6 load(1, XDATA, add(CFA_XSP16, literal(-16)))
          CFI (cfiCond81) VB load(1, XDATA, add(CFA_XSP16, literal(-15)))
          CFI (cfiCond81) V0 load(1, XDATA, add(CFA_XSP16, literal(-14)))
          CFI (cfiCond81) V1 load(1, XDATA, add(CFA_XSP16, literal(-13)))
          CFI (cfiCond81) V2 load(1, XDATA, add(CFA_XSP16, literal(-12)))
          CFI (cfiCond81) V3 load(1, XDATA, add(CFA_XSP16, literal(-11)))
          CFI (cfiCond81) V4 load(1, XDATA, add(CFA_XSP16, literal(-10)))
          CFI (cfiCond81) V5 load(1, XDATA, add(CFA_XSP16, literal(-9)))
          CFI (cfiCond81) V6 load(1, XDATA, add(CFA_XSP16, literal(-8)))
          CFI (cfiCond81) V7 load(1, XDATA, add(CFA_XSP16, literal(-7)))
          CFI (cfiCond81) R7 load(1, XDATA, add(CFA_XSP16, literal(-6)))
          CFI (cfiCond81) ?RET_LOW load(1, XDATA, add(CFA_XSP16, literal(-5)))
          CFI (cfiCond81) ?RET_HIGH load(1, XDATA, add(CFA_XSP16, literal(-4)))
          CFI (cfiCond81) ?BRET_EXT load(1, XDATA, add(CFA_XSP16, literal(-3)))
          CFI (cfiCond81) DPL0 load(1, XDATA, add(CFA_XSP16, literal(-2)))
          CFI (cfiCond81) DPH0 load(1, XDATA, add(CFA_XSP16, literal(-1)))
          CFI (cfiCond81) CFA_SP SP+-2
          CFI (cfiCond81) CFA_XSP16 add(XSP16, 17)
          CFI Block cfiCond82 Using cfiCommon0
          CFI (cfiCond82) Function afFindSimpleDesc
          CFI (cfiCond82) Conditional ??CrossCallReturnLabel_42
          CFI (cfiCond82) R6 load(1, XDATA, add(CFA_XSP16, literal(-12)))
          CFI (cfiCond82) VB load(1, XDATA, add(CFA_XSP16, literal(-11)))
          CFI (cfiCond82) V0 load(1, XDATA, add(CFA_XSP16, literal(-10)))
          CFI (cfiCond82) V1 load(1, XDATA, add(CFA_XSP16, literal(-9)))
          CFI (cfiCond82) V2 load(1, XDATA, add(CFA_XSP16, literal(-8)))
          CFI (cfiCond82) V3 load(1, XDATA, add(CFA_XSP16, literal(-7)))
          CFI (cfiCond82) R7 load(1, XDATA, add(CFA_XSP16, literal(-6)))
          CFI (cfiCond82) ?RET_LOW load(1, XDATA, add(CFA_XSP16, literal(-5)))
          CFI (cfiCond82) ?RET_HIGH load(1, XDATA, add(CFA_XSP16, literal(-4)))
          CFI (cfiCond82) ?BRET_EXT load(1, XDATA, add(CFA_XSP16, literal(-3)))
          CFI (cfiCond82) DPL0 load(1, XDATA, add(CFA_XSP16, literal(-2)))
          CFI (cfiCond82) DPH0 load(1, XDATA, add(CFA_XSP16, literal(-1)))
          CFI (cfiCond82) CFA_SP SP+-2
          CFI (cfiCond82) CFA_XSP16 add(XSP16, 12)
          CFI Block cfiPicker83 Using cfiCommon1
          CFI (cfiPicker83) NoFunction
          CFI (cfiPicker83) Picker
        MOV     A,R2
        MOVX    @DPTR,A
        INC     DPTR
        MOV     A,R3
        MOVX    @DPTR,A
        RET
          CFI EndBlock cfiCond77
          CFI EndBlock cfiCond78
          CFI EndBlock cfiCond79
          CFI EndBlock cfiCond80
          CFI EndBlock cfiCond81
          CFI EndBlock cfiCond82
          CFI EndBlock cfiPicker83

        RSEG BANKED_CODE:CODE:NOROOT(0)
?Subroutine25:
          CFI Block cfiCond84 Using cfiCommon0
          CFI Function afBuildMSGIncoming
          CFI Conditional ??CrossCallReturnLabel_81
          CFI R6 load(1, XDATA, add(CFA_XSP16, literal(-16)))
          CFI VB load(1, XDATA, add(CFA_XSP16, literal(-15)))
          CFI V0 load(1, XDATA, add(CFA_XSP16, literal(-14)))
          CFI V1 load(1, XDATA, add(CFA_XSP16, literal(-13)))
          CFI V2 load(1, XDATA, add(CFA_XSP16, literal(-12)))
          CFI V3 load(1, XDATA, add(CFA_XSP16, literal(-11)))
          CFI V4 load(1, XDATA, add(CFA_XSP16, literal(-10)))
          CFI V5 load(1, XDATA, add(CFA_XSP16, literal(-9)))
          CFI V6 load(1, XDATA, add(CFA_XSP16, literal(-8)))
          CFI V7 load(1, XDATA, add(CFA_XSP16, literal(-7)))
          CFI R7 load(1, XDATA, add(CFA_XSP16, literal(-6)))
          CFI ?RET_LOW load(1, XDATA, add(CFA_XSP16, literal(-5)))
          CFI ?RET_HIGH load(1, XDATA, add(CFA_XSP16, literal(-4)))
          CFI ?BRET_EXT load(1, XDATA, add(CFA_XSP16, literal(-3)))
          CFI DPL0 load(1, XDATA, add(CFA_XSP16, literal(-2)))
          CFI DPH0 load(1, XDATA, add(CFA_XSP16, literal(-1)))
          CFI CFA_SP SP+-2
          CFI CFA_XSP16 add(XSP16, 17)
          CFI Block cfiCond85 Using cfiCommon0
          CFI (cfiCond85) Function afBuildMSGIncoming
          CFI (cfiCond85) Conditional ??CrossCallReturnLabel_82
          CFI (cfiCond85) R6 load(1, XDATA, add(CFA_XSP16, literal(-16)))
          CFI (cfiCond85) VB load(1, XDATA, add(CFA_XSP16, literal(-15)))
          CFI (cfiCond85) V0 load(1, XDATA, add(CFA_XSP16, literal(-14)))
          CFI (cfiCond85) V1 load(1, XDATA, add(CFA_XSP16, literal(-13)))
          CFI (cfiCond85) V2 load(1, XDATA, add(CFA_XSP16, literal(-12)))
          CFI (cfiCond85) V3 load(1, XDATA, add(CFA_XSP16, literal(-11)))
          CFI (cfiCond85) V4 load(1, XDATA, add(CFA_XSP16, literal(-10)))
          CFI (cfiCond85) V5 load(1, XDATA, add(CFA_XSP16, literal(-9)))
          CFI (cfiCond85) V6 load(1, XDATA, add(CFA_XSP16, literal(-8)))
          CFI (cfiCond85) V7 load(1, XDATA, add(CFA_XSP16, literal(-7)))
          CFI (cfiCond85) R7 load(1, XDATA, add(CFA_XSP16, literal(-6)))
          CFI (cfiCond85) ?RET_LOW load(1, XDATA, add(CFA_XSP16, literal(-5)))
          CFI (cfiCond85) ?RET_HIGH load(1, XDATA, add(CFA_XSP16, literal(-4)))
          CFI (cfiCond85) ?BRET_EXT load(1, XDATA, add(CFA_XSP16, literal(-3)))
          CFI (cfiCond85) DPL0 load(1, XDATA, add(CFA_XSP16, literal(-2)))
          CFI (cfiCond85) DPH0 load(1, XDATA, add(CFA_XSP16, literal(-1)))
          CFI (cfiCond85) CFA_SP SP+-2
          CFI (cfiCond85) CFA_XSP16 add(XSP16, 17)
          CFI Block cfiPicker86 Using cfiCommon1
          CFI (cfiPicker86) NoFunction
          CFI (cfiPicker86) Picker
        MOV     DPL,A
        CLR     A
        ADDC    A,R7
        MOV     DPH,A
          CFI EndBlock cfiCond84
          CFI EndBlock cfiCond85
          CFI EndBlock cfiPicker86
        REQUIRE ??Subroutine44_0
        ; // Fall through to label ??Subroutine44_0

        RSEG BANKED_CODE:CODE:NOROOT(0)
??Subroutine44_0:
          CFI Block cfiCond87 Using cfiCommon0
          CFI Function afRegisterExtended
          CFI Conditional ??CrossCallReturnLabel_71
          CFI R6 load(1, XDATA, add(CFA_XSP16, literal(-12)))
          CFI VB load(1, XDATA, add(CFA_XSP16, literal(-11)))
          CFI V0 load(1, XDATA, add(CFA_XSP16, literal(-10)))
          CFI V1 load(1, XDATA, add(CFA_XSP16, literal(-9)))
          CFI V2 load(1, XDATA, add(CFA_XSP16, literal(-8)))
          CFI V3 load(1, XDATA, add(CFA_XSP16, literal(-7)))
          CFI R7 load(1, XDATA, add(CFA_XSP16, literal(-6)))
          CFI ?RET_LOW load(1, XDATA, add(CFA_XSP16, literal(-5)))
          CFI ?RET_HIGH load(1, XDATA, add(CFA_XSP16, literal(-4)))
          CFI ?BRET_EXT load(1, XDATA, add(CFA_XSP16, literal(-3)))
          CFI DPL0 load(1, XDATA, add(CFA_XSP16, literal(-2)))
          CFI DPH0 load(1, XDATA, add(CFA_XSP16, literal(-1)))
          CFI CFA_SP SP+-2
          CFI CFA_XSP16 add(XSP16, 12)
          CFI Block cfiCond88 Using cfiCommon0
          CFI (cfiCond88) Function afRegisterExtended
          CFI (cfiCond88) Conditional ??CrossCallReturnLabel_72
          CFI (cfiCond88) R6 load(1, XDATA, add(CFA_XSP16, literal(-12)))
          CFI (cfiCond88) VB load(1, XDATA, add(CFA_XSP16, literal(-11)))
          CFI (cfiCond88) V0 load(1, XDATA, add(CFA_XSP16, literal(-10)))
          CFI (cfiCond88) V1 load(1, XDATA, add(CFA_XSP16, literal(-9)))
          CFI (cfiCond88) V2 load(1, XDATA, add(CFA_XSP16, literal(-8)))
          CFI (cfiCond88) V3 load(1, XDATA, add(CFA_XSP16, literal(-7)))
          CFI (cfiCond88) R7 load(1, XDATA, add(CFA_XSP16, literal(-6)))
          CFI (cfiCond88) ?RET_LOW load(1, XDATA, add(CFA_XSP16, literal(-5)))
          CFI (cfiCond88) ?RET_HIGH load(1, XDATA, add(CFA_XSP16, literal(-4)))
          CFI (cfiCond88) ?BRET_EXT load(1, XDATA, add(CFA_XSP16, literal(-3)))
          CFI (cfiCond88) DPL0 load(1, XDATA, add(CFA_XSP16, literal(-2)))
          CFI (cfiCond88) DPH0 load(1, XDATA, add(CFA_XSP16, literal(-1)))
          CFI (cfiCond88) CFA_SP SP+-2
          CFI (cfiCond88) CFA_XSP16 add(XSP16, 12)
          CFI Block cfiCond89 Using cfiCommon0
          CFI (cfiCond89) Function afIncomingData
          CFI (cfiCond89) Conditional ??CrossCallReturnLabel_73
          CFI (cfiCond89) R6 load(1, XDATA, add(CFA_XSP16, literal(-16)))
          CFI (cfiCond89) VB load(1, XDATA, add(CFA_XSP16, literal(-15)))
          CFI (cfiCond89) V0 load(1, XDATA, add(CFA_XSP16, literal(-14)))
          CFI (cfiCond89) V1 load(1, XDATA, add(CFA_XSP16, literal(-13)))
          CFI (cfiCond89) V2 load(1, XDATA, add(CFA_XSP16, literal(-12)))
          CFI (cfiCond89) V3 load(1, XDATA, add(CFA_XSP16, literal(-11)))
          CFI (cfiCond89) V4 load(1, XDATA, add(CFA_XSP16, literal(-10)))
          CFI (cfiCond89) V5 load(1, XDATA, add(CFA_XSP16, literal(-9)))
          CFI (cfiCond89) V6 load(1, XDATA, add(CFA_XSP16, literal(-8)))
          CFI (cfiCond89) V7 load(1, XDATA, add(CFA_XSP16, literal(-7)))
          CFI (cfiCond89) R7 load(1, XDATA, add(CFA_XSP16, literal(-6)))
          CFI (cfiCond89) ?RET_LOW load(1, XDATA, add(CFA_XSP16, literal(-5)))
          CFI (cfiCond89) ?RET_HIGH load(1, XDATA, add(CFA_XSP16, literal(-4)))
          CFI (cfiCond89) ?BRET_EXT load(1, XDATA, add(CFA_XSP16, literal(-3)))
          CFI (cfiCond89) DPL0 load(1, XDATA, add(CFA_XSP16, literal(-2)))
          CFI (cfiCond89) DPH0 load(1, XDATA, add(CFA_XSP16, literal(-1)))
          CFI (cfiCond89) CFA_SP SP+-2
          CFI (cfiCond89) CFA_XSP16 add(XSP16, 25)
          CFI Block cfiCond90 Using cfiCommon0
          CFI (cfiCond90) Function afIncomingData
          CFI (cfiCond90) Conditional ??CrossCallReturnLabel_74
          CFI (cfiCond90) R6 load(1, XDATA, add(CFA_XSP16, literal(-16)))
          CFI (cfiCond90) VB load(1, XDATA, add(CFA_XSP16, literal(-15)))
          CFI (cfiCond90) V0 load(1, XDATA, add(CFA_XSP16, literal(-14)))
          CFI (cfiCond90) V1 load(1, XDATA, add(CFA_XSP16, literal(-13)))
          CFI (cfiCond90) V2 load(1, XDATA, add(CFA_XSP16, literal(-12)))
          CFI (cfiCond90) V3 load(1, XDATA, add(CFA_XSP16, literal(-11)))
          CFI (cfiCond90) V4 load(1, XDATA, add(CFA_XSP16, literal(-10)))
          CFI (cfiCond90) V5 load(1, XDATA, add(CFA_XSP16, literal(-9)))
          CFI (cfiCond90) V6 load(1, XDATA, add(CFA_XSP16, literal(-8)))
          CFI (cfiCond90) V7 load(1, XDATA, add(CFA_XSP16, literal(-7)))
          CFI (cfiCond90) R7 load(1, XDATA, add(CFA_XSP16, literal(-6)))
          CFI (cfiCond90) ?RET_LOW load(1, XDATA, add(CFA_XSP16, literal(-5)))
          CFI (cfiCond90) ?RET_HIGH load(1, XDATA, add(CFA_XSP16, literal(-4)))
          CFI (cfiCond90) ?BRET_EXT load(1, XDATA, add(CFA_XSP16, literal(-3)))
          CFI (cfiCond90) DPL0 load(1, XDATA, add(CFA_XSP16, literal(-2)))
          CFI (cfiCond90) DPH0 load(1, XDATA, add(CFA_XSP16, literal(-1)))
          CFI (cfiCond90) CFA_SP SP+-2
          CFI (cfiCond90) CFA_XSP16 add(XSP16, 25)
          CFI Block cfiCond91 Using cfiCommon0
          CFI (cfiCond91) Function afBuildMSGIncoming
          CFI (cfiCond91) Conditional ??CrossCallReturnLabel_75
          CFI (cfiCond91) R6 load(1, XDATA, add(CFA_XSP16, literal(-16)))
          CFI (cfiCond91) VB load(1, XDATA, add(CFA_XSP16, literal(-15)))
          CFI (cfiCond91) V0 load(1, XDATA, add(CFA_XSP16, literal(-14)))
          CFI (cfiCond91) V1 load(1, XDATA, add(CFA_XSP16, literal(-13)))
          CFI (cfiCond91) V2 load(1, XDATA, add(CFA_XSP16, literal(-12)))
          CFI (cfiCond91) V3 load(1, XDATA, add(CFA_XSP16, literal(-11)))
          CFI (cfiCond91) V4 load(1, XDATA, add(CFA_XSP16, literal(-10)))
          CFI (cfiCond91) V5 load(1, XDATA, add(CFA_XSP16, literal(-9)))
          CFI (cfiCond91) V6 load(1, XDATA, add(CFA_XSP16, literal(-8)))
          CFI (cfiCond91) V7 load(1, XDATA, add(CFA_XSP16, literal(-7)))
          CFI (cfiCond91) R7 load(1, XDATA, add(CFA_XSP16, literal(-6)))
          CFI (cfiCond91) ?RET_LOW load(1, XDATA, add(CFA_XSP16, literal(-5)))
          CFI (cfiCond91) ?RET_HIGH load(1, XDATA, add(CFA_XSP16, literal(-4)))
          CFI (cfiCond91) ?BRET_EXT load(1, XDATA, add(CFA_XSP16, literal(-3)))
          CFI (cfiCond91) DPL0 load(1, XDATA, add(CFA_XSP16, literal(-2)))
          CFI (cfiCond91) DPH0 load(1, XDATA, add(CFA_XSP16, literal(-1)))
          CFI (cfiCond91) CFA_SP SP+-2
          CFI (cfiCond91) CFA_XSP16 add(XSP16, 17)
          CFI Block cfiCond92 Using cfiCommon0
          CFI (cfiCond92) Function AF_DataRequest
          CFI (cfiCond92) Conditional ??CrossCallReturnLabel_76
          CFI (cfiCond92) R6 load(1, XDATA, add(CFA_XSP16, literal(-16)))
          CFI (cfiCond92) VB load(1, XDATA, add(CFA_XSP16, literal(-15)))
          CFI (cfiCond92) V0 load(1, XDATA, add(CFA_XSP16, literal(-14)))
          CFI (cfiCond92) V1 load(1, XDATA, add(CFA_XSP16, literal(-13)))
          CFI (cfiCond92) V2 load(1, XDATA, add(CFA_XSP16, literal(-12)))
          CFI (cfiCond92) V3 load(1, XDATA, add(CFA_XSP16, literal(-11)))
          CFI (cfiCond92) V4 load(1, XDATA, add(CFA_XSP16, literal(-10)))
          CFI (cfiCond92) V5 load(1, XDATA, add(CFA_XSP16, literal(-9)))
          CFI (cfiCond92) V6 load(1, XDATA, add(CFA_XSP16, literal(-8)))
          CFI (cfiCond92) V7 load(1, XDATA, add(CFA_XSP16, literal(-7)))
          CFI (cfiCond92) R7 load(1, XDATA, add(CFA_XSP16, literal(-6)))
          CFI (cfiCond92) ?RET_LOW load(1, XDATA, add(CFA_XSP16, literal(-5)))
          CFI (cfiCond92) ?RET_HIGH load(1, XDATA, add(CFA_XSP16, literal(-4)))
          CFI (cfiCond92) ?BRET_EXT load(1, XDATA, add(CFA_XSP16, literal(-3)))
          CFI (cfiCond92) DPL0 load(1, XDATA, add(CFA_XSP16, literal(-2)))
          CFI (cfiCond92) DPH0 load(1, XDATA, add(CFA_XSP16, literal(-1)))
          CFI (cfiCond92) CFA_SP SP+-2
          CFI (cfiCond92) CFA_XSP16 add(XSP16, 46)
          CFI Block cfiCond93 Using cfiCommon0
          CFI (cfiCond93) Function AF_DataRequest
          CFI (cfiCond93) Conditional ??CrossCallReturnLabel_77
          CFI (cfiCond93) R6 load(1, XDATA, add(CFA_XSP16, literal(-16)))
          CFI (cfiCond93) VB load(1, XDATA, add(CFA_XSP16, literal(-15)))
          CFI (cfiCond93) V0 load(1, XDATA, add(CFA_XSP16, literal(-14)))
          CFI (cfiCond93) V1 load(1, XDATA, add(CFA_XSP16, literal(-13)))
          CFI (cfiCond93) V2 load(1, XDATA, add(CFA_XSP16, literal(-12)))
          CFI (cfiCond93) V3 load(1, XDATA, add(CFA_XSP16, literal(-11)))
          CFI (cfiCond93) V4 load(1, XDATA, add(CFA_XSP16, literal(-10)))
          CFI (cfiCond93) V5 load(1, XDATA, add(CFA_XSP16, literal(-9)))
          CFI (cfiCond93) V6 load(1, XDATA, add(CFA_XSP16, literal(-8)))
          CFI (cfiCond93) V7 load(1, XDATA, add(CFA_XSP16, literal(-7)))
          CFI (cfiCond93) R7 load(1, XDATA, add(CFA_XSP16, literal(-6)))
          CFI (cfiCond93) ?RET_LOW load(1, XDATA, add(CFA_XSP16, literal(-5)))
          CFI (cfiCond93) ?RET_HIGH load(1, XDATA, add(CFA_XSP16, literal(-4)))
          CFI (cfiCond93) ?BRET_EXT load(1, XDATA, add(CFA_XSP16, literal(-3)))
          CFI (cfiCond93) DPL0 load(1, XDATA, add(CFA_XSP16, literal(-2)))
          CFI (cfiCond93) DPH0 load(1, XDATA, add(CFA_XSP16, literal(-1)))
          CFI (cfiCond93) CFA_SP SP+-2
          CFI (cfiCond93) CFA_XSP16 add(XSP16, 46)
          CFI Block cfiCond94 Using cfiCommon0
          CFI (cfiCond94) Function AF_DataRequest
          CFI (cfiCond94) Conditional ??CrossCallReturnLabel_78
          CFI (cfiCond94) R6 load(1, XDATA, add(CFA_XSP16, literal(-16)))
          CFI (cfiCond94) VB load(1, XDATA, add(CFA_XSP16, literal(-15)))
          CFI (cfiCond94) V0 load(1, XDATA, add(CFA_XSP16, literal(-14)))
          CFI (cfiCond94) V1 load(1, XDATA, add(CFA_XSP16, literal(-13)))
          CFI (cfiCond94) V2 load(1, XDATA, add(CFA_XSP16, literal(-12)))
          CFI (cfiCond94) V3 load(1, XDATA, add(CFA_XSP16, literal(-11)))
          CFI (cfiCond94) V4 load(1, XDATA, add(CFA_XSP16, literal(-10)))
          CFI (cfiCond94) V5 load(1, XDATA, add(CFA_XSP16, literal(-9)))
          CFI (cfiCond94) V6 load(1, XDATA, add(CFA_XSP16, literal(-8)))
          CFI (cfiCond94) V7 load(1, XDATA, add(CFA_XSP16, literal(-7)))
          CFI (cfiCond94) R7 load(1, XDATA, add(CFA_XSP16, literal(-6)))
          CFI (cfiCond94) ?RET_LOW load(1, XDATA, add(CFA_XSP16, literal(-5)))
          CFI (cfiCond94) ?RET_HIGH load(1, XDATA, add(CFA_XSP16, literal(-4)))
          CFI (cfiCond94) ?BRET_EXT load(1, XDATA, add(CFA_XSP16, literal(-3)))
          CFI (cfiCond94) DPL0 load(1, XDATA, add(CFA_XSP16, literal(-2)))
          CFI (cfiCond94) DPH0 load(1, XDATA, add(CFA_XSP16, literal(-1)))
          CFI (cfiCond94) CFA_SP SP+-2
          CFI (cfiCond94) CFA_XSP16 add(XSP16, 46)
          CFI Block cfiCond95 Using cfiCommon0
          CFI (cfiCond95) Function AF_DataRequest
          CFI (cfiCond95) Conditional ??CrossCallReturnLabel_79
          CFI (cfiCond95) R6 load(1, XDATA, add(CFA_XSP16, literal(-16)))
          CFI (cfiCond95) VB load(1, XDATA, add(CFA_XSP16, literal(-15)))
          CFI (cfiCond95) V0 load(1, XDATA, add(CFA_XSP16, literal(-14)))
          CFI (cfiCond95) V1 load(1, XDATA, add(CFA_XSP16, literal(-13)))
          CFI (cfiCond95) V2 load(1, XDATA, add(CFA_XSP16, literal(-12)))
          CFI (cfiCond95) V3 load(1, XDATA, add(CFA_XSP16, literal(-11)))
          CFI (cfiCond95) V4 load(1, XDATA, add(CFA_XSP16, literal(-10)))
          CFI (cfiCond95) V5 load(1, XDATA, add(CFA_XSP16, literal(-9)))
          CFI (cfiCond95) V6 load(1, XDATA, add(CFA_XSP16, literal(-8)))
          CFI (cfiCond95) V7 load(1, XDATA, add(CFA_XSP16, literal(-7)))
          CFI (cfiCond95) R7 load(1, XDATA, add(CFA_XSP16, literal(-6)))
          CFI (cfiCond95) ?RET_LOW load(1, XDATA, add(CFA_XSP16, literal(-5)))
          CFI (cfiCond95) ?RET_HIGH load(1, XDATA, add(CFA_XSP16, literal(-4)))
          CFI (cfiCond95) ?BRET_EXT load(1, XDATA, add(CFA_XSP16, literal(-3)))
          CFI (cfiCond95) DPL0 load(1, XDATA, add(CFA_XSP16, literal(-2)))
          CFI (cfiCond95) DPH0 load(1, XDATA, add(CFA_XSP16, literal(-1)))
          CFI (cfiCond95) CFA_SP SP+-2
          CFI (cfiCond95) CFA_XSP16 add(XSP16, 46)
          CFI Block cfiCond96 Using cfiCommon0
          CFI (cfiCond96) Function afCopyAddress
          CFI (cfiCond96) Conditional ??CrossCallReturnLabel_80
          CFI (cfiCond96) R6 load(1, XDATA, add(CFA_XSP16, literal(-9)))
          CFI (cfiCond96) VB load(1, XDATA, add(CFA_XSP16, literal(-8)))
          CFI (cfiCond96) V0 load(1, XDATA, add(CFA_XSP16, literal(-7)))
          CFI (cfiCond96) R7 load(1, XDATA, add(CFA_XSP16, literal(-6)))
          CFI (cfiCond96) ?RET_LOW load(1, XDATA, add(CFA_XSP16, literal(-5)))
          CFI (cfiCond96) ?RET_HIGH load(1, XDATA, add(CFA_XSP16, literal(-4)))
          CFI (cfiCond96) ?BRET_EXT load(1, XDATA, add(CFA_XSP16, literal(-3)))
          CFI (cfiCond96) DPL0 load(1, XDATA, add(CFA_XSP16, literal(-2)))
          CFI (cfiCond96) DPH0 load(1, XDATA, add(CFA_XSP16, literal(-1)))
          CFI (cfiCond96) CFA_SP SP+-2
          CFI (cfiCond96) CFA_XSP16 add(XSP16, 9)
          CFI Block cfiCond97 Using cfiCommon0
          CFI (cfiCond97) Function afBuildMSGIncoming
          CFI (cfiCond97) Conditional ??CrossCallReturnLabel_81
          CFI (cfiCond97) R6 load(1, XDATA, add(CFA_XSP16, literal(-16)))
          CFI (cfiCond97) VB load(1, XDATA, add(CFA_XSP16, literal(-15)))
          CFI (cfiCond97) V0 load(1, XDATA, add(CFA_XSP16, literal(-14)))
          CFI (cfiCond97) V1 load(1, XDATA, add(CFA_XSP16, literal(-13)))
          CFI (cfiCond97) V2 load(1, XDATA, add(CFA_XSP16, literal(-12)))
          CFI (cfiCond97) V3 load(1, XDATA, add(CFA_XSP16, literal(-11)))
          CFI (cfiCond97) V4 load(1, XDATA, add(CFA_XSP16, literal(-10)))
          CFI (cfiCond97) V5 load(1, XDATA, add(CFA_XSP16, literal(-9)))
          CFI (cfiCond97) V6 load(1, XDATA, add(CFA_XSP16, literal(-8)))
          CFI (cfiCond97) V7 load(1, XDATA, add(CFA_XSP16, literal(-7)))
          CFI (cfiCond97) R7 load(1, XDATA, add(CFA_XSP16, literal(-6)))
          CFI (cfiCond97) ?RET_LOW load(1, XDATA, add(CFA_XSP16, literal(-5)))
          CFI (cfiCond97) ?RET_HIGH load(1, XDATA, add(CFA_XSP16, literal(-4)))
          CFI (cfiCond97) ?BRET_EXT load(1, XDATA, add(CFA_XSP16, literal(-3)))
          CFI (cfiCond97) DPL0 load(1, XDATA, add(CFA_XSP16, literal(-2)))
          CFI (cfiCond97) DPH0 load(1, XDATA, add(CFA_XSP16, literal(-1)))
          CFI (cfiCond97) CFA_SP SP+-2
          CFI (cfiCond97) CFA_XSP16 add(XSP16, 17)
          CFI Block cfiCond98 Using cfiCommon0
          CFI (cfiCond98) Function afBuildMSGIncoming
          CFI (cfiCond98) Conditional ??CrossCallReturnLabel_82
          CFI (cfiCond98) R6 load(1, XDATA, add(CFA_XSP16, literal(-16)))
          CFI (cfiCond98) VB load(1, XDATA, add(CFA_XSP16, literal(-15)))
          CFI (cfiCond98) V0 load(1, XDATA, add(CFA_XSP16, literal(-14)))
          CFI (cfiCond98) V1 load(1, XDATA, add(CFA_XSP16, literal(-13)))
          CFI (cfiCond98) V2 load(1, XDATA, add(CFA_XSP16, literal(-12)))
          CFI (cfiCond98) V3 load(1, XDATA, add(CFA_XSP16, literal(-11)))
          CFI (cfiCond98) V4 load(1, XDATA, add(CFA_XSP16, literal(-10)))
          CFI (cfiCond98) V5 load(1, XDATA, add(CFA_XSP16, literal(-9)))
          CFI (cfiCond98) V6 load(1, XDATA, add(CFA_XSP16, literal(-8)))
          CFI (cfiCond98) V7 load(1, XDATA, add(CFA_XSP16, literal(-7)))
          CFI (cfiCond98) R7 load(1, XDATA, add(CFA_XSP16, literal(-6)))
          CFI (cfiCond98) ?RET_LOW load(1, XDATA, add(CFA_XSP16, literal(-5)))
          CFI (cfiCond98) ?RET_HIGH load(1, XDATA, add(CFA_XSP16, literal(-4)))
          CFI (cfiCond98) ?BRET_EXT load(1, XDATA, add(CFA_XSP16, literal(-3)))
          CFI (cfiCond98) DPL0 load(1, XDATA, add(CFA_XSP16, literal(-2)))
          CFI (cfiCond98) DPH0 load(1, XDATA, add(CFA_XSP16, literal(-1)))
          CFI (cfiCond98) CFA_SP SP+-2
          CFI (cfiCond98) CFA_XSP16 add(XSP16, 17)
          CFI Block cfiPicker99 Using cfiCommon1
          CFI (cfiPicker99) NoFunction
          CFI (cfiPicker99) Picker
        MOV     A,R0
        MOVX    @DPTR,A
        INC     DPTR
        MOV     A,R1
        MOVX    @DPTR,A
        RET
          CFI EndBlock cfiCond87
          CFI EndBlock cfiCond88
          CFI EndBlock cfiCond89
          CFI EndBlock cfiCond90
          CFI EndBlock cfiCond91
          CFI EndBlock cfiCond92
          CFI EndBlock cfiCond93
          CFI EndBlock cfiCond94
          CFI EndBlock cfiCond95
          CFI EndBlock cfiCond96
          CFI EndBlock cfiCond97
          CFI EndBlock cfiCond98
          CFI EndBlock cfiPicker99

        RSEG BANKED_CODE:CODE:NOROOT(0)
?Subroutine24:
          CFI Block cfiCond100 Using cfiCommon0
          CFI Function afBuildMSGIncoming
          CFI Conditional ??CrossCallReturnLabel_29
          CFI R6 load(1, XDATA, add(CFA_XSP16, literal(-16)))
          CFI VB load(1, XDATA, add(CFA_XSP16, literal(-15)))
          CFI V0 load(1, XDATA, add(CFA_XSP16, literal(-14)))
          CFI V1 load(1, XDATA, add(CFA_XSP16, literal(-13)))
          CFI V2 load(1, XDATA, add(CFA_XSP16, literal(-12)))
          CFI V3 load(1, XDATA, add(CFA_XSP16, literal(-11)))
          CFI V4 load(1, XDATA, add(CFA_XSP16, literal(-10)))
          CFI V5 load(1, XDATA, add(CFA_XSP16, literal(-9)))
          CFI V6 load(1, XDATA, add(CFA_XSP16, literal(-8)))
          CFI V7 load(1, XDATA, add(CFA_XSP16, literal(-7)))
          CFI R7 load(1, XDATA, add(CFA_XSP16, literal(-6)))
          CFI ?RET_LOW load(1, XDATA, add(CFA_XSP16, literal(-5)))
          CFI ?RET_HIGH load(1, XDATA, add(CFA_XSP16, literal(-4)))
          CFI ?BRET_EXT load(1, XDATA, add(CFA_XSP16, literal(-3)))
          CFI DPL0 load(1, XDATA, add(CFA_XSP16, literal(-2)))
          CFI DPH0 load(1, XDATA, add(CFA_XSP16, literal(-1)))
          CFI CFA_SP SP+-2
          CFI CFA_XSP16 add(XSP16, 17)
          CFI Block cfiCond101 Using cfiCommon0
          CFI (cfiCond101) Function afBuildMSGIncoming
          CFI (cfiCond101) Conditional ??CrossCallReturnLabel_30
          CFI (cfiCond101) R6 load(1, XDATA, add(CFA_XSP16, literal(-16)))
          CFI (cfiCond101) VB load(1, XDATA, add(CFA_XSP16, literal(-15)))
          CFI (cfiCond101) V0 load(1, XDATA, add(CFA_XSP16, literal(-14)))
          CFI (cfiCond101) V1 load(1, XDATA, add(CFA_XSP16, literal(-13)))
          CFI (cfiCond101) V2 load(1, XDATA, add(CFA_XSP16, literal(-12)))
          CFI (cfiCond101) V3 load(1, XDATA, add(CFA_XSP16, literal(-11)))
          CFI (cfiCond101) V4 load(1, XDATA, add(CFA_XSP16, literal(-10)))
          CFI (cfiCond101) V5 load(1, XDATA, add(CFA_XSP16, literal(-9)))
          CFI (cfiCond101) V6 load(1, XDATA, add(CFA_XSP16, literal(-8)))
          CFI (cfiCond101) V7 load(1, XDATA, add(CFA_XSP16, literal(-7)))
          CFI (cfiCond101) R7 load(1, XDATA, add(CFA_XSP16, literal(-6)))
          CFI (cfiCond101) ?RET_LOW load(1, XDATA, add(CFA_XSP16, literal(-5)))
          CFI (cfiCond101) ?RET_HIGH load(1, XDATA, add(CFA_XSP16, literal(-4)))
          CFI (cfiCond101) ?BRET_EXT load(1, XDATA, add(CFA_XSP16, literal(-3)))
          CFI (cfiCond101) DPL0 load(1, XDATA, add(CFA_XSP16, literal(-2)))
          CFI (cfiCond101) DPH0 load(1, XDATA, add(CFA_XSP16, literal(-1)))
          CFI (cfiCond101) CFA_SP SP+-2
          CFI (cfiCond101) CFA_XSP16 add(XSP16, 17)
          CFI Block cfiPicker102 Using cfiCommon1
          CFI (cfiPicker102) NoFunction
          CFI (cfiPicker102) Picker
        MOV     A,R0
        MOVX    @DPTR,A
        INC     DPTR
        MOV     A,R1
        LCALL   ?Subroutine34 & 0xFFFF
??CrossCallReturnLabel_52:
        INC     DPTR
        INC     DPTR
        RET
          CFI EndBlock cfiCond100
          CFI EndBlock cfiCond101
          CFI EndBlock cfiPicker102

        RSEG BANKED_CODE:CODE:NOROOT(0)
?Subroutine34:
          CFI Block cfiCond103 Using cfiCommon0
          CFI Function afBuildMSGIncoming
          CFI Conditional ??CrossCallReturnLabel_51
          CFI R6 load(1, XDATA, add(CFA_XSP16, literal(-16)))
          CFI VB load(1, XDATA, add(CFA_XSP16, literal(-15)))
          CFI V0 load(1, XDATA, add(CFA_XSP16, literal(-14)))
          CFI V1 load(1, XDATA, add(CFA_XSP16, literal(-13)))
          CFI V2 load(1, XDATA, add(CFA_XSP16, literal(-12)))
          CFI V3 load(1, XDATA, add(CFA_XSP16, literal(-11)))
          CFI V4 load(1, XDATA, add(CFA_XSP16, literal(-10)))
          CFI V5 load(1, XDATA, add(CFA_XSP16, literal(-9)))
          CFI V6 load(1, XDATA, add(CFA_XSP16, literal(-8)))
          CFI V7 load(1, XDATA, add(CFA_XSP16, literal(-7)))
          CFI R7 load(1, XDATA, add(CFA_XSP16, literal(-6)))
          CFI ?RET_LOW load(1, XDATA, add(CFA_XSP16, literal(-5)))
          CFI ?RET_HIGH load(1, XDATA, add(CFA_XSP16, literal(-4)))
          CFI ?BRET_EXT load(1, XDATA, add(CFA_XSP16, literal(-3)))
          CFI DPL0 load(1, XDATA, add(CFA_XSP16, literal(-2)))
          CFI DPH0 load(1, XDATA, add(CFA_XSP16, literal(-1)))
          CFI CFA_SP SP+-2
          CFI CFA_XSP16 add(XSP16, 17)
          CFI Block cfiCond104 Using cfiCommon0
          CFI (cfiCond104) Function afBuildMSGIncoming
          CFI (cfiCond104) Conditional ??CrossCallReturnLabel_52, ??CrossCallReturnLabel_29
          CFI (cfiCond104) R6 load(1, XDATA, add(CFA_XSP16, literal(-16)))
          CFI (cfiCond104) VB load(1, XDATA, add(CFA_XSP16, literal(-15)))
          CFI (cfiCond104) V0 load(1, XDATA, add(CFA_XSP16, literal(-14)))
          CFI (cfiCond104) V1 load(1, XDATA, add(CFA_XSP16, literal(-13)))
          CFI (cfiCond104) V2 load(1, XDATA, add(CFA_XSP16, literal(-12)))
          CFI (cfiCond104) V3 load(1, XDATA, add(CFA_XSP16, literal(-11)))
          CFI (cfiCond104) V4 load(1, XDATA, add(CFA_XSP16, literal(-10)))
          CFI (cfiCond104) V5 load(1, XDATA, add(CFA_XSP16, literal(-9)))
          CFI (cfiCond104) V6 load(1, XDATA, add(CFA_XSP16, literal(-8)))
          CFI (cfiCond104) V7 load(1, XDATA, add(CFA_XSP16, literal(-7)))
          CFI (cfiCond104) R7 load(1, XDATA, add(CFA_XSP16, literal(-6)))
          CFI (cfiCond104) ?RET_LOW load(1, XDATA, add(CFA_XSP16, literal(-5)))
          CFI (cfiCond104) ?RET_HIGH load(1, XDATA, add(CFA_XSP16, literal(-4)))
          CFI (cfiCond104) ?BRET_EXT load(1, XDATA, add(CFA_XSP16, literal(-3)))
          CFI (cfiCond104) DPL0 load(1, XDATA, add(CFA_XSP16, literal(-2)))
          CFI (cfiCond104) DPH0 load(1, XDATA, add(CFA_XSP16, literal(-1)))
          CFI (cfiCond104) CFA_SP SP+-4
          CFI (cfiCond104) CFA_XSP16 add(XSP16, 17)
          CFI Block cfiCond105 Using cfiCommon0
          CFI (cfiCond105) Function afBuildMSGIncoming
          CFI (cfiCond105) Conditional ??CrossCallReturnLabel_52, ??CrossCallReturnLabel_30
          CFI (cfiCond105) R6 load(1, XDATA, add(CFA_XSP16, literal(-16)))
          CFI (cfiCond105) VB load(1, XDATA, add(CFA_XSP16, literal(-15)))
          CFI (cfiCond105) V0 load(1, XDATA, add(CFA_XSP16, literal(-14)))
          CFI (cfiCond105) V1 load(1, XDATA, add(CFA_XSP16, literal(-13)))
          CFI (cfiCond105) V2 load(1, XDATA, add(CFA_XSP16, literal(-12)))
          CFI (cfiCond105) V3 load(1, XDATA, add(CFA_XSP16, literal(-11)))
          CFI (cfiCond105) V4 load(1, XDATA, add(CFA_XSP16, literal(-10)))
          CFI (cfiCond105) V5 load(1, XDATA, add(CFA_XSP16, literal(-9)))
          CFI (cfiCond105) V6 load(1, XDATA, add(CFA_XSP16, literal(-8)))
          CFI (cfiCond105) V7 load(1, XDATA, add(CFA_XSP16, literal(-7)))
          CFI (cfiCond105) R7 load(1, XDATA, add(CFA_XSP16, literal(-6)))
          CFI (cfiCond105) ?RET_LOW load(1, XDATA, add(CFA_XSP16, literal(-5)))
          CFI (cfiCond105) ?RET_HIGH load(1, XDATA, add(CFA_XSP16, literal(-4)))
          CFI (cfiCond105) ?BRET_EXT load(1, XDATA, add(CFA_XSP16, literal(-3)))
          CFI (cfiCond105) DPL0 load(1, XDATA, add(CFA_XSP16, literal(-2)))
          CFI (cfiCond105) DPH0 load(1, XDATA, add(CFA_XSP16, literal(-1)))
          CFI (cfiCond105) CFA_SP SP+-4
          CFI (cfiCond105) CFA_XSP16 add(XSP16, 17)
          CFI Block cfiCond106 Using cfiCommon0
          CFI (cfiCond106) Function AF_DataRequest
          CFI (cfiCond106) Conditional ??CrossCallReturnLabel_53, ??CrossCallReturnLabel_43
          CFI (cfiCond106) R6 load(1, XDATA, add(CFA_XSP16, literal(-16)))
          CFI (cfiCond106) VB load(1, XDATA, add(CFA_XSP16, literal(-15)))
          CFI (cfiCond106) V0 load(1, XDATA, add(CFA_XSP16, literal(-14)))
          CFI (cfiCond106) V1 load(1, XDATA, add(CFA_XSP16, literal(-13)))
          CFI (cfiCond106) V2 load(1, XDATA, add(CFA_XSP16, literal(-12)))
          CFI (cfiCond106) V3 load(1, XDATA, add(CFA_XSP16, literal(-11)))
          CFI (cfiCond106) V4 load(1, XDATA, add(CFA_XSP16, literal(-10)))
          CFI (cfiCond106) V5 load(1, XDATA, add(CFA_XSP16, literal(-9)))
          CFI (cfiCond106) V6 load(1, XDATA, add(CFA_XSP16, literal(-8)))
          CFI (cfiCond106) V7 load(1, XDATA, add(CFA_XSP16, literal(-7)))
          CFI (cfiCond106) R7 load(1, XDATA, add(CFA_XSP16, literal(-6)))
          CFI (cfiCond106) ?RET_LOW load(1, XDATA, add(CFA_XSP16, literal(-5)))
          CFI (cfiCond106) ?RET_HIGH load(1, XDATA, add(CFA_XSP16, literal(-4)))
          CFI (cfiCond106) ?BRET_EXT load(1, XDATA, add(CFA_XSP16, literal(-3)))
          CFI (cfiCond106) DPL0 load(1, XDATA, add(CFA_XSP16, literal(-2)))
          CFI (cfiCond106) DPH0 load(1, XDATA, add(CFA_XSP16, literal(-1)))
          CFI (cfiCond106) CFA_SP SP+-4
          CFI (cfiCond106) CFA_XSP16 add(XSP16, 46)
          CFI Block cfiCond107 Using cfiCommon0
          CFI (cfiCond107) Function AF_DataRequest
          CFI (cfiCond107) Conditional ??CrossCallReturnLabel_53, ??CrossCallReturnLabel_44
          CFI (cfiCond107) R6 load(1, XDATA, add(CFA_XSP16, literal(-16)))
          CFI (cfiCond107) VB load(1, XDATA, add(CFA_XSP16, literal(-15)))
          CFI (cfiCond107) V0 load(1, XDATA, add(CFA_XSP16, literal(-14)))
          CFI (cfiCond107) V1 load(1, XDATA, add(CFA_XSP16, literal(-13)))
          CFI (cfiCond107) V2 load(1, XDATA, add(CFA_XSP16, literal(-12)))
          CFI (cfiCond107) V3 load(1, XDATA, add(CFA_XSP16, literal(-11)))
          CFI (cfiCond107) V4 load(1, XDATA, add(CFA_XSP16, literal(-10)))
          CFI (cfiCond107) V5 load(1, XDATA, add(CFA_XSP16, literal(-9)))
          CFI (cfiCond107) V6 load(1, XDATA, add(CFA_XSP16, literal(-8)))
          CFI (cfiCond107) V7 load(1, XDATA, add(CFA_XSP16, literal(-7)))
          CFI (cfiCond107) R7 load(1, XDATA, add(CFA_XSP16, literal(-6)))
          CFI (cfiCond107) ?RET_LOW load(1, XDATA, add(CFA_XSP16, literal(-5)))
          CFI (cfiCond107) ?RET_HIGH load(1, XDATA, add(CFA_XSP16, literal(-4)))
          CFI (cfiCond107) ?BRET_EXT load(1, XDATA, add(CFA_XSP16, literal(-3)))
          CFI (cfiCond107) DPL0 load(1, XDATA, add(CFA_XSP16, literal(-2)))
          CFI (cfiCond107) DPH0 load(1, XDATA, add(CFA_XSP16, literal(-1)))
          CFI (cfiCond107) CFA_SP SP+-4
          CFI (cfiCond107) CFA_XSP16 add(XSP16, 46)
          CFI Block cfiPicker108 Using cfiCommon1
          CFI (cfiPicker108) NoFunction
          CFI (cfiPicker108) Picker
        MOVX    @DPTR,A
        ; Setup parameters for call to function afFindEndPointDescList
        MOV     DPL,?V0
        MOV     DPH,?V1
        RET
          CFI EndBlock cfiCond103
          CFI EndBlock cfiCond104
          CFI EndBlock cfiCond105
          CFI EndBlock cfiCond106
          CFI EndBlock cfiCond107
          CFI EndBlock cfiPicker108

        RSEG BANKED_CODE:CODE:NOROOT(0)
?Subroutine19:
          CFI Block cfiCond109 Using cfiCommon0
          CFI Function afDelete
          CFI Conditional ??CrossCallReturnLabel_21
          CFI R6 load(1, XDATA, add(CFA_XSP16, literal(-9)))
          CFI VB load(1, XDATA, add(CFA_XSP16, literal(-8)))
          CFI V0 load(1, XDATA, add(CFA_XSP16, literal(-7)))
          CFI R7 load(1, XDATA, add(CFA_XSP16, literal(-6)))
          CFI ?RET_LOW load(1, XDATA, add(CFA_XSP16, literal(-5)))
          CFI ?RET_HIGH load(1, XDATA, add(CFA_XSP16, literal(-4)))
          CFI ?BRET_EXT load(1, XDATA, add(CFA_XSP16, literal(-3)))
          CFI DPL0 load(1, XDATA, add(CFA_XSP16, literal(-2)))
          CFI DPH0 load(1, XDATA, add(CFA_XSP16, literal(-1)))
          CFI CFA_SP SP+-2
          CFI CFA_XSP16 add(XSP16, 9)
          CFI Block cfiCond110 Using cfiCommon0
          CFI (cfiCond110) Function afBuildMSGIncoming
          CFI (cfiCond110) Conditional ??CrossCallReturnLabel_22
          CFI (cfiCond110) R6 load(1, XDATA, add(CFA_XSP16, literal(-16)))
          CFI (cfiCond110) VB load(1, XDATA, add(CFA_XSP16, literal(-15)))
          CFI (cfiCond110) V0 load(1, XDATA, add(CFA_XSP16, literal(-14)))
          CFI (cfiCond110) V1 load(1, XDATA, add(CFA_XSP16, literal(-13)))
          CFI (cfiCond110) V2 load(1, XDATA, add(CFA_XSP16, literal(-12)))
          CFI (cfiCond110) V3 load(1, XDATA, add(CFA_XSP16, literal(-11)))
          CFI (cfiCond110) V4 load(1, XDATA, add(CFA_XSP16, literal(-10)))
          CFI (cfiCond110) V5 load(1, XDATA, add(CFA_XSP16, literal(-9)))
          CFI (cfiCond110) V6 load(1, XDATA, add(CFA_XSP16, literal(-8)))
          CFI (cfiCond110) V7 load(1, XDATA, add(CFA_XSP16, literal(-7)))
          CFI (cfiCond110) R7 load(1, XDATA, add(CFA_XSP16, literal(-6)))
          CFI (cfiCond110) ?RET_LOW load(1, XDATA, add(CFA_XSP16, literal(-5)))
          CFI (cfiCond110) ?RET_HIGH load(1, XDATA, add(CFA_XSP16, literal(-4)))
          CFI (cfiCond110) ?BRET_EXT load(1, XDATA, add(CFA_XSP16, literal(-3)))
          CFI (cfiCond110) DPL0 load(1, XDATA, add(CFA_XSP16, literal(-2)))
          CFI (cfiCond110) DPH0 load(1, XDATA, add(CFA_XSP16, literal(-1)))
          CFI (cfiCond110) CFA_SP SP+-2
          CFI (cfiCond110) CFA_XSP16 add(XSP16, 17)
          CFI Block cfiCond111 Using cfiCommon0
          CFI (cfiCond111) Function afBuildMSGIncoming
          CFI (cfiCond111) Conditional ??CrossCallReturnLabel_23
          CFI (cfiCond111) R6 load(1, XDATA, add(CFA_XSP16, literal(-16)))
          CFI (cfiCond111) VB load(1, XDATA, add(CFA_XSP16, literal(-15)))
          CFI (cfiCond111) V0 load(1, XDATA, add(CFA_XSP16, literal(-14)))
          CFI (cfiCond111) V1 load(1, XDATA, add(CFA_XSP16, literal(-13)))
          CFI (cfiCond111) V2 load(1, XDATA, add(CFA_XSP16, literal(-12)))
          CFI (cfiCond111) V3 load(1, XDATA, add(CFA_XSP16, literal(-11)))
          CFI (cfiCond111) V4 load(1, XDATA, add(CFA_XSP16, literal(-10)))
          CFI (cfiCond111) V5 load(1, XDATA, add(CFA_XSP16, literal(-9)))
          CFI (cfiCond111) V6 load(1, XDATA, add(CFA_XSP16, literal(-8)))
          CFI (cfiCond111) V7 load(1, XDATA, add(CFA_XSP16, literal(-7)))
          CFI (cfiCond111) R7 load(1, XDATA, add(CFA_XSP16, literal(-6)))
          CFI (cfiCond111) ?RET_LOW load(1, XDATA, add(CFA_XSP16, literal(-5)))
          CFI (cfiCond111) ?RET_HIGH load(1, XDATA, add(CFA_XSP16, literal(-4)))
          CFI (cfiCond111) ?BRET_EXT load(1, XDATA, add(CFA_XSP16, literal(-3)))
          CFI (cfiCond111) DPL0 load(1, XDATA, add(CFA_XSP16, literal(-2)))
          CFI (cfiCond111) DPH0 load(1, XDATA, add(CFA_XSP16, literal(-1)))
          CFI (cfiCond111) CFA_SP SP+-2
          CFI (cfiCond111) CFA_XSP16 add(XSP16, 20)
          CFI Block cfiCond112 Using cfiCommon0
          CFI (cfiCond112) Function AF_DataRequestSrcRtg
          CFI (cfiCond112) Conditional ??CrossCallReturnLabel_24
          CFI (cfiCond112) R6 load(1, XDATA, add(CFA_XSP16, literal(-12)))
          CFI (cfiCond112) VB load(1, XDATA, add(CFA_XSP16, literal(-11)))
          CFI (cfiCond112) V0 load(1, XDATA, add(CFA_XSP16, literal(-10)))
          CFI (cfiCond112) V1 load(1, XDATA, add(CFA_XSP16, literal(-9)))
          CFI (cfiCond112) V2 load(1, XDATA, add(CFA_XSP16, literal(-8)))
          CFI (cfiCond112) V3 load(1, XDATA, add(CFA_XSP16, literal(-7)))
          CFI (cfiCond112) R7 load(1, XDATA, add(CFA_XSP16, literal(-6)))
          CFI (cfiCond112) ?RET_LOW load(1, XDATA, add(CFA_XSP16, literal(-5)))
          CFI (cfiCond112) ?RET_HIGH load(1, XDATA, add(CFA_XSP16, literal(-4)))
          CFI (cfiCond112) ?BRET_EXT load(1, XDATA, add(CFA_XSP16, literal(-3)))
          CFI (cfiCond112) DPL0 load(1, XDATA, add(CFA_XSP16, literal(-2)))
          CFI (cfiCond112) DPH0 load(1, XDATA, add(CFA_XSP16, literal(-1)))
          CFI (cfiCond112) CFA_SP SP+-2
          CFI (cfiCond112) CFA_XSP16 add(XSP16, 12)
          CFI Block cfiPicker113 Using cfiCommon1
          CFI (cfiPicker113) NoFunction
          CFI (cfiPicker113) Picker
        MOVX    A,@DPTR
        MOV     R4,A
        INC     DPTR
        MOVX    A,@DPTR
        MOV     R5,A
        RET
          CFI EndBlock cfiCond109
          CFI EndBlock cfiCond110
          CFI EndBlock cfiCond111
          CFI EndBlock cfiCond112
          CFI EndBlock cfiPicker113

        RSEG BANKED_CODE:CODE:NOROOT(0)
?Subroutine17:
          CFI Block cfiCond114 Using cfiCommon0
          CFI Function afBuildMSGIncoming
          CFI Conditional ??CrossCallReturnLabel_18
          CFI R6 load(1, XDATA, add(CFA_XSP16, literal(-16)))
          CFI VB load(1, XDATA, add(CFA_XSP16, literal(-15)))
          CFI V0 load(1, XDATA, add(CFA_XSP16, literal(-14)))
          CFI V1 load(1, XDATA, add(CFA_XSP16, literal(-13)))
          CFI V2 load(1, XDATA, add(CFA_XSP16, literal(-12)))
          CFI V3 load(1, XDATA, add(CFA_XSP16, literal(-11)))
          CFI V4 load(1, XDATA, add(CFA_XSP16, literal(-10)))
          CFI V5 load(1, XDATA, add(CFA_XSP16, literal(-9)))
          CFI V6 load(1, XDATA, add(CFA_XSP16, literal(-8)))
          CFI V7 load(1, XDATA, add(CFA_XSP16, literal(-7)))
          CFI R7 load(1, XDATA, add(CFA_XSP16, literal(-6)))
          CFI ?RET_LOW load(1, XDATA, add(CFA_XSP16, literal(-5)))
          CFI ?RET_HIGH load(1, XDATA, add(CFA_XSP16, literal(-4)))
          CFI ?BRET_EXT load(1, XDATA, add(CFA_XSP16, literal(-3)))
          CFI DPL0 load(1, XDATA, add(CFA_XSP16, literal(-2)))
          CFI DPH0 load(1, XDATA, add(CFA_XSP16, literal(-1)))
          CFI CFA_SP SP+-2
          CFI CFA_XSP16 add(XSP16, 17)
          CFI Block cfiCond115 Using cfiCommon0
          CFI (cfiCond115) Function afBuildMSGIncoming
          CFI (cfiCond115) Conditional ??CrossCallReturnLabel_19
          CFI (cfiCond115) R6 load(1, XDATA, add(CFA_XSP16, literal(-16)))
          CFI (cfiCond115) VB load(1, XDATA, add(CFA_XSP16, literal(-15)))
          CFI (cfiCond115) V0 load(1, XDATA, add(CFA_XSP16, literal(-14)))
          CFI (cfiCond115) V1 load(1, XDATA, add(CFA_XSP16, literal(-13)))
          CFI (cfiCond115) V2 load(1, XDATA, add(CFA_XSP16, literal(-12)))
          CFI (cfiCond115) V3 load(1, XDATA, add(CFA_XSP16, literal(-11)))
          CFI (cfiCond115) V4 load(1, XDATA, add(CFA_XSP16, literal(-10)))
          CFI (cfiCond115) V5 load(1, XDATA, add(CFA_XSP16, literal(-9)))
          CFI (cfiCond115) V6 load(1, XDATA, add(CFA_XSP16, literal(-8)))
          CFI (cfiCond115) V7 load(1, XDATA, add(CFA_XSP16, literal(-7)))
          CFI (cfiCond115) R7 load(1, XDATA, add(CFA_XSP16, literal(-6)))
          CFI (cfiCond115) ?RET_LOW load(1, XDATA, add(CFA_XSP16, literal(-5)))
          CFI (cfiCond115) ?RET_HIGH load(1, XDATA, add(CFA_XSP16, literal(-4)))
          CFI (cfiCond115) ?BRET_EXT load(1, XDATA, add(CFA_XSP16, literal(-3)))
          CFI (cfiCond115) DPL0 load(1, XDATA, add(CFA_XSP16, literal(-2)))
          CFI (cfiCond115) DPH0 load(1, XDATA, add(CFA_XSP16, literal(-1)))
          CFI (cfiCond115) CFA_SP SP+-2
          CFI (cfiCond115) CFA_XSP16 add(XSP16, 17)
          CFI Block cfiCond116 Using cfiCommon0
          CFI (cfiCond116) Function afBuildMSGIncoming
          CFI (cfiCond116) Conditional ??CrossCallReturnLabel_20
          CFI (cfiCond116) R6 load(1, XDATA, add(CFA_XSP16, literal(-16)))
          CFI (cfiCond116) VB load(1, XDATA, add(CFA_XSP16, literal(-15)))
          CFI (cfiCond116) V0 load(1, XDATA, add(CFA_XSP16, literal(-14)))
          CFI (cfiCond116) V1 load(1, XDATA, add(CFA_XSP16, literal(-13)))
          CFI (cfiCond116) V2 load(1, XDATA, add(CFA_XSP16, literal(-12)))
          CFI (cfiCond116) V3 load(1, XDATA, add(CFA_XSP16, literal(-11)))
          CFI (cfiCond116) V4 load(1, XDATA, add(CFA_XSP16, literal(-10)))
          CFI (cfiCond116) V5 load(1, XDATA, add(CFA_XSP16, literal(-9)))
          CFI (cfiCond116) V6 load(1, XDATA, add(CFA_XSP16, literal(-8)))
          CFI (cfiCond116) V7 load(1, XDATA, add(CFA_XSP16, literal(-7)))
          CFI (cfiCond116) R7 load(1, XDATA, add(CFA_XSP16, literal(-6)))
          CFI (cfiCond116) ?RET_LOW load(1, XDATA, add(CFA_XSP16, literal(-5)))
          CFI (cfiCond116) ?RET_HIGH load(1, XDATA, add(CFA_XSP16, literal(-4)))
          CFI (cfiCond116) ?BRET_EXT load(1, XDATA, add(CFA_XSP16, literal(-3)))
          CFI (cfiCond116) DPL0 load(1, XDATA, add(CFA_XSP16, literal(-2)))
          CFI (cfiCond116) DPH0 load(1, XDATA, add(CFA_XSP16, literal(-1)))
          CFI (cfiCond116) CFA_SP SP+-2
          CFI (cfiCond116) CFA_XSP16 add(XSP16, 17)
          CFI Block cfiPicker117 Using cfiCommon1
          CFI (cfiPicker117) NoFunction
          CFI (cfiPicker117) Picker
        LCALL   ?Subroutine37 & 0xFFFF
??CrossCallReturnLabel_136:
        MOV     A,R6
        RET
          CFI EndBlock cfiCond114
          CFI EndBlock cfiCond115
          CFI EndBlock cfiCond116
          CFI EndBlock cfiPicker117

        RSEG BANKED_CODE:CODE:NOROOT(0)
?Subroutine13:
          CFI Block cfiCond118 Using cfiCommon0
          CFI Function afBuildMSGIncoming
          CFI Conditional ??CrossCallReturnLabel_10
          CFI R6 load(1, XDATA, add(CFA_XSP16, literal(-16)))
          CFI VB load(1, XDATA, add(CFA_XSP16, literal(-15)))
          CFI V0 load(1, XDATA, add(CFA_XSP16, literal(-14)))
          CFI V1 load(1, XDATA, add(CFA_XSP16, literal(-13)))
          CFI V2 load(1, XDATA, add(CFA_XSP16, literal(-12)))
          CFI V3 load(1, XDATA, add(CFA_XSP16, literal(-11)))
          CFI V4 load(1, XDATA, add(CFA_XSP16, literal(-10)))
          CFI V5 load(1, XDATA, add(CFA_XSP16, literal(-9)))
          CFI V6 load(1, XDATA, add(CFA_XSP16, literal(-8)))
          CFI V7 load(1, XDATA, add(CFA_XSP16, literal(-7)))
          CFI R7 load(1, XDATA, add(CFA_XSP16, literal(-6)))
          CFI ?RET_LOW load(1, XDATA, add(CFA_XSP16, literal(-5)))
          CFI ?RET_HIGH load(1, XDATA, add(CFA_XSP16, literal(-4)))
          CFI ?BRET_EXT load(1, XDATA, add(CFA_XSP16, literal(-3)))
          CFI DPL0 load(1, XDATA, add(CFA_XSP16, literal(-2)))
          CFI DPH0 load(1, XDATA, add(CFA_XSP16, literal(-1)))
          CFI CFA_SP SP+-2
          CFI CFA_XSP16 add(XSP16, 17)
          CFI Block cfiCond119 Using cfiCommon0
          CFI (cfiCond119) Function afBuildMSGIncoming
          CFI (cfiCond119) Conditional ??CrossCallReturnLabel_11
          CFI (cfiCond119) R6 load(1, XDATA, add(CFA_XSP16, literal(-16)))
          CFI (cfiCond119) VB load(1, XDATA, add(CFA_XSP16, literal(-15)))
          CFI (cfiCond119) V0 load(1, XDATA, add(CFA_XSP16, literal(-14)))
          CFI (cfiCond119) V1 load(1, XDATA, add(CFA_XSP16, literal(-13)))
          CFI (cfiCond119) V2 load(1, XDATA, add(CFA_XSP16, literal(-12)))
          CFI (cfiCond119) V3 load(1, XDATA, add(CFA_XSP16, literal(-11)))
          CFI (cfiCond119) V4 load(1, XDATA, add(CFA_XSP16, literal(-10)))
          CFI (cfiCond119) V5 load(1, XDATA, add(CFA_XSP16, literal(-9)))
          CFI (cfiCond119) V6 load(1, XDATA, add(CFA_XSP16, literal(-8)))
          CFI (cfiCond119) V7 load(1, XDATA, add(CFA_XSP16, literal(-7)))
          CFI (cfiCond119) R7 load(1, XDATA, add(CFA_XSP16, literal(-6)))
          CFI (cfiCond119) ?RET_LOW load(1, XDATA, add(CFA_XSP16, literal(-5)))
          CFI (cfiCond119) ?RET_HIGH load(1, XDATA, add(CFA_XSP16, literal(-4)))
          CFI (cfiCond119) ?BRET_EXT load(1, XDATA, add(CFA_XSP16, literal(-3)))
          CFI (cfiCond119) DPL0 load(1, XDATA, add(CFA_XSP16, literal(-2)))
          CFI (cfiCond119) DPH0 load(1, XDATA, add(CFA_XSP16, literal(-1)))
          CFI (cfiCond119) CFA_SP SP+-2
          CFI (cfiCond119) CFA_XSP16 add(XSP16, 17)
          CFI Block cfiPicker120 Using cfiCommon1
          CFI (cfiPicker120) NoFunction
          CFI (cfiPicker120) Picker
        INC     DPTR
        INC     DPTR
        INC     DPTR
        INC     DPTR
        LCALL   ?Subroutine37 & 0xFFFF
??CrossCallReturnLabel_133:
        MOV     DPL,R6
        MOV     DPH,R7
        INC     DPTR
        INC     DPTR
        RET
          CFI EndBlock cfiCond118
          CFI EndBlock cfiCond119
          CFI EndBlock cfiPicker120

        RSEG BANKED_CODE:CODE:NOROOT(0)
?Subroutine9:
          CFI Block cfiCond121 Using cfiCommon0
          CFI Function afIncomingData
          CFI Conditional ??CrossCallReturnLabel_0
          CFI R6 load(1, XDATA, add(CFA_XSP16, literal(-16)))
          CFI VB load(1, XDATA, add(CFA_XSP16, literal(-15)))
          CFI V0 load(1, XDATA, add(CFA_XSP16, literal(-14)))
          CFI V1 load(1, XDATA, add(CFA_XSP16, literal(-13)))
          CFI V2 load(1, XDATA, add(CFA_XSP16, literal(-12)))
          CFI V3 load(1, XDATA, add(CFA_XSP16, literal(-11)))
          CFI V4 load(1, XDATA, add(CFA_XSP16, literal(-10)))
          CFI V5 load(1, XDATA, add(CFA_XSP16, literal(-9)))
          CFI V6 load(1, XDATA, add(CFA_XSP16, literal(-8)))
          CFI V7 load(1, XDATA, add(CFA_XSP16, literal(-7)))
          CFI R7 load(1, XDATA, add(CFA_XSP16, literal(-6)))
          CFI ?RET_LOW load(1, XDATA, add(CFA_XSP16, literal(-5)))
          CFI ?RET_HIGH load(1, XDATA, add(CFA_XSP16, literal(-4)))
          CFI ?BRET_EXT load(1, XDATA, add(CFA_XSP16, literal(-3)))
          CFI DPL0 load(1, XDATA, add(CFA_XSP16, literal(-2)))
          CFI DPH0 load(1, XDATA, add(CFA_XSP16, literal(-1)))
          CFI CFA_SP SP+-2
          CFI CFA_XSP16 add(XSP16, 25)
          CFI Block cfiCond122 Using cfiCommon0
          CFI (cfiCond122) Function afIncomingData
          CFI (cfiCond122) Conditional ??CrossCallReturnLabel_1
          CFI (cfiCond122) R6 load(1, XDATA, add(CFA_XSP16, literal(-16)))
          CFI (cfiCond122) VB load(1, XDATA, add(CFA_XSP16, literal(-15)))
          CFI (cfiCond122) V0 load(1, XDATA, add(CFA_XSP16, literal(-14)))
          CFI (cfiCond122) V1 load(1, XDATA, add(CFA_XSP16, literal(-13)))
          CFI (cfiCond122) V2 load(1, XDATA, add(CFA_XSP16, literal(-12)))
          CFI (cfiCond122) V3 load(1, XDATA, add(CFA_XSP16, literal(-11)))
          CFI (cfiCond122) V4 load(1, XDATA, add(CFA_XSP16, literal(-10)))
          CFI (cfiCond122) V5 load(1, XDATA, add(CFA_XSP16, literal(-9)))
          CFI (cfiCond122) V6 load(1, XDATA, add(CFA_XSP16, literal(-8)))
          CFI (cfiCond122) V7 load(1, XDATA, add(CFA_XSP16, literal(-7)))
          CFI (cfiCond122) R7 load(1, XDATA, add(CFA_XSP16, literal(-6)))
          CFI (cfiCond122) ?RET_LOW load(1, XDATA, add(CFA_XSP16, literal(-5)))
          CFI (cfiCond122) ?RET_HIGH load(1, XDATA, add(CFA_XSP16, literal(-4)))
          CFI (cfiCond122) ?BRET_EXT load(1, XDATA, add(CFA_XSP16, literal(-3)))
          CFI (cfiCond122) DPL0 load(1, XDATA, add(CFA_XSP16, literal(-2)))
          CFI (cfiCond122) DPH0 load(1, XDATA, add(CFA_XSP16, literal(-1)))
          CFI (cfiCond122) CFA_SP SP+-2
          CFI (cfiCond122) CFA_XSP16 add(XSP16, 25)
          CFI Block cfiCond123 Using cfiCommon0
          CFI (cfiCond123) Function afBuildMSGIncoming
          CFI (cfiCond123) Conditional ??CrossCallReturnLabel_2
          CFI (cfiCond123) R6 load(1, XDATA, add(CFA_XSP16, literal(-16)))
          CFI (cfiCond123) VB load(1, XDATA, add(CFA_XSP16, literal(-15)))
          CFI (cfiCond123) V0 load(1, XDATA, add(CFA_XSP16, literal(-14)))
          CFI (cfiCond123) V1 load(1, XDATA, add(CFA_XSP16, literal(-13)))
          CFI (cfiCond123) V2 load(1, XDATA, add(CFA_XSP16, literal(-12)))
          CFI (cfiCond123) V3 load(1, XDATA, add(CFA_XSP16, literal(-11)))
          CFI (cfiCond123) V4 load(1, XDATA, add(CFA_XSP16, literal(-10)))
          CFI (cfiCond123) V5 load(1, XDATA, add(CFA_XSP16, literal(-9)))
          CFI (cfiCond123) V6 load(1, XDATA, add(CFA_XSP16, literal(-8)))
          CFI (cfiCond123) V7 load(1, XDATA, add(CFA_XSP16, literal(-7)))
          CFI (cfiCond123) R7 load(1, XDATA, add(CFA_XSP16, literal(-6)))
          CFI (cfiCond123) ?RET_LOW load(1, XDATA, add(CFA_XSP16, literal(-5)))
          CFI (cfiCond123) ?RET_HIGH load(1, XDATA, add(CFA_XSP16, literal(-4)))
          CFI (cfiCond123) ?BRET_EXT load(1, XDATA, add(CFA_XSP16, literal(-3)))
          CFI (cfiCond123) DPL0 load(1, XDATA, add(CFA_XSP16, literal(-2)))
          CFI (cfiCond123) DPH0 load(1, XDATA, add(CFA_XSP16, literal(-1)))
          CFI (cfiCond123) CFA_SP SP+-2
          CFI (cfiCond123) CFA_XSP16 add(XSP16, 17)
          CFI Block cfiCond124 Using cfiCommon0
          CFI (cfiCond124) Function AF_DataRequest
          CFI (cfiCond124) Conditional ??CrossCallReturnLabel_3
          CFI (cfiCond124) R6 load(1, XDATA, add(CFA_XSP16, literal(-16)))
          CFI (cfiCond124) VB load(1, XDATA, add(CFA_XSP16, literal(-15)))
          CFI (cfiCond124) V0 load(1, XDATA, add(CFA_XSP16, literal(-14)))
          CFI (cfiCond124) V1 load(1, XDATA, add(CFA_XSP16, literal(-13)))
          CFI (cfiCond124) V2 load(1, XDATA, add(CFA_XSP16, literal(-12)))
          CFI (cfiCond124) V3 load(1, XDATA, add(CFA_XSP16, literal(-11)))
          CFI (cfiCond124) V4 load(1, XDATA, add(CFA_XSP16, literal(-10)))
          CFI (cfiCond124) V5 load(1, XDATA, add(CFA_XSP16, literal(-9)))
          CFI (cfiCond124) V6 load(1, XDATA, add(CFA_XSP16, literal(-8)))
          CFI (cfiCond124) V7 load(1, XDATA, add(CFA_XSP16, literal(-7)))
          CFI (cfiCond124) R7 load(1, XDATA, add(CFA_XSP16, literal(-6)))
          CFI (cfiCond124) ?RET_LOW load(1, XDATA, add(CFA_XSP16, literal(-5)))
          CFI (cfiCond124) ?RET_HIGH load(1, XDATA, add(CFA_XSP16, literal(-4)))
          CFI (cfiCond124) ?BRET_EXT load(1, XDATA, add(CFA_XSP16, literal(-3)))
          CFI (cfiCond124) DPL0 load(1, XDATA, add(CFA_XSP16, literal(-2)))
          CFI (cfiCond124) DPH0 load(1, XDATA, add(CFA_XSP16, literal(-1)))
          CFI (cfiCond124) CFA_SP SP+-2
          CFI (cfiCond124) CFA_XSP16 add(XSP16, 46)
          CFI Block cfiPicker125 Using cfiCommon1
          CFI (cfiPicker125) NoFunction
          CFI (cfiPicker125) Picker
        MOVX    A,@DPTR
        MOV     ?V6,A
        INC     DPTR
        MOVX    A,@DPTR
        MOV     ?V7,A
        RET
          CFI EndBlock cfiCond121
          CFI EndBlock cfiCond122
          CFI EndBlock cfiCond123
          CFI EndBlock cfiCond124
          CFI EndBlock cfiPicker125

        RSEG BANKED_CODE:CODE:NOROOT(0)
?Subroutine5:
          CFI Block cfiCond126 Using cfiCommon0
          CFI Function afIncomingData
          CFI Conditional ??CrossCallReturnLabel_90
          CFI R6 load(1, XDATA, add(CFA_XSP16, literal(-16)))
          CFI VB load(1, XDATA, add(CFA_XSP16, literal(-15)))
          CFI V0 load(1, XDATA, add(CFA_XSP16, literal(-14)))
          CFI V1 load(1, XDATA, add(CFA_XSP16, literal(-13)))
          CFI V2 load(1, XDATA, add(CFA_XSP16, literal(-12)))
          CFI V3 load(1, XDATA, add(CFA_XSP16, literal(-11)))
          CFI V4 load(1, XDATA, add(CFA_XSP16, literal(-10)))
          CFI V5 load(1, XDATA, add(CFA_XSP16, literal(-9)))
          CFI V6 load(1, XDATA, add(CFA_XSP16, literal(-8)))
          CFI V7 load(1, XDATA, add(CFA_XSP16, literal(-7)))
          CFI R7 load(1, XDATA, add(CFA_XSP16, literal(-6)))
          CFI ?RET_LOW load(1, XDATA, add(CFA_XSP16, literal(-5)))
          CFI ?RET_HIGH load(1, XDATA, add(CFA_XSP16, literal(-4)))
          CFI ?BRET_EXT load(1, XDATA, add(CFA_XSP16, literal(-3)))
          CFI DPL0 load(1, XDATA, add(CFA_XSP16, literal(-2)))
          CFI DPH0 load(1, XDATA, add(CFA_XSP16, literal(-1)))
          CFI CFA_SP SP+-2
          CFI CFA_XSP16 add(XSP16, 25)
          CFI Block cfiCond127 Using cfiCommon0
          CFI (cfiCond127) Function afIncomingData
          CFI (cfiCond127) Conditional ??CrossCallReturnLabel_91
          CFI (cfiCond127) R6 load(1, XDATA, add(CFA_XSP16, literal(-16)))
          CFI (cfiCond127) VB load(1, XDATA, add(CFA_XSP16, literal(-15)))
          CFI (cfiCond127) V0 load(1, XDATA, add(CFA_XSP16, literal(-14)))
          CFI (cfiCond127) V1 load(1, XDATA, add(CFA_XSP16, literal(-13)))
          CFI (cfiCond127) V2 load(1, XDATA, add(CFA_XSP16, literal(-12)))
          CFI (cfiCond127) V3 load(1, XDATA, add(CFA_XSP16, literal(-11)))
          CFI (cfiCond127) V4 load(1, XDATA, add(CFA_XSP16, literal(-10)))
          CFI (cfiCond127) V5 load(1, XDATA, add(CFA_XSP16, literal(-9)))
          CFI (cfiCond127) V6 load(1, XDATA, add(CFA_XSP16, literal(-8)))
          CFI (cfiCond127) V7 load(1, XDATA, add(CFA_XSP16, literal(-7)))
          CFI (cfiCond127) R7 load(1, XDATA, add(CFA_XSP16, literal(-6)))
          CFI (cfiCond127) ?RET_LOW load(1, XDATA, add(CFA_XSP16, literal(-5)))
          CFI (cfiCond127) ?RET_HIGH load(1, XDATA, add(CFA_XSP16, literal(-4)))
          CFI (cfiCond127) ?BRET_EXT load(1, XDATA, add(CFA_XSP16, literal(-3)))
          CFI (cfiCond127) DPL0 load(1, XDATA, add(CFA_XSP16, literal(-2)))
          CFI (cfiCond127) DPH0 load(1, XDATA, add(CFA_XSP16, literal(-1)))
          CFI (cfiCond127) CFA_SP SP+-2
          CFI (cfiCond127) CFA_XSP16 add(XSP16, 25)
          CFI Block cfiCond128 Using cfiCommon0
          CFI (cfiCond128) Function AF_DataRequest
          CFI (cfiCond128) Conditional ??CrossCallReturnLabel_92
          CFI (cfiCond128) R6 load(1, XDATA, add(CFA_XSP16, literal(-16)))
          CFI (cfiCond128) VB load(1, XDATA, add(CFA_XSP16, literal(-15)))
          CFI (cfiCond128) V0 load(1, XDATA, add(CFA_XSP16, literal(-14)))
          CFI (cfiCond128) V1 load(1, XDATA, add(CFA_XSP16, literal(-13)))
          CFI (cfiCond128) V2 load(1, XDATA, add(CFA_XSP16, literal(-12)))
          CFI (cfiCond128) V3 load(1, XDATA, add(CFA_XSP16, literal(-11)))
          CFI (cfiCond128) V4 load(1, XDATA, add(CFA_XSP16, literal(-10)))
          CFI (cfiCond128) V5 load(1, XDATA, add(CFA_XSP16, literal(-9)))
          CFI (cfiCond128) V6 load(1, XDATA, add(CFA_XSP16, literal(-8)))
          CFI (cfiCond128) V7 load(1, XDATA, add(CFA_XSP16, literal(-7)))
          CFI (cfiCond128) R7 load(1, XDATA, add(CFA_XSP16, literal(-6)))
          CFI (cfiCond128) ?RET_LOW load(1, XDATA, add(CFA_XSP16, literal(-5)))
          CFI (cfiCond128) ?RET_HIGH load(1, XDATA, add(CFA_XSP16, literal(-4)))
          CFI (cfiCond128) ?BRET_EXT load(1, XDATA, add(CFA_XSP16, literal(-3)))
          CFI (cfiCond128) DPL0 load(1, XDATA, add(CFA_XSP16, literal(-2)))
          CFI (cfiCond128) DPH0 load(1, XDATA, add(CFA_XSP16, literal(-1)))
          CFI (cfiCond128) CFA_SP SP+-2
          CFI (cfiCond128) CFA_XSP16 add(XSP16, 46)
          CFI Block cfiPicker129 Using cfiCommon1
          CFI (cfiPicker129) NoFunction
          CFI (cfiPicker129) Picker
        INC     DPTR
        INC     DPTR
        INC     DPTR
          CFI EndBlock cfiCond126
          CFI EndBlock cfiCond127
          CFI EndBlock cfiCond128
          CFI EndBlock cfiPicker129
        REQUIRE ??Subroutine45_0
        ; // Fall through to label ??Subroutine45_0

        RSEG BANKED_CODE:CODE:NOROOT(0)
??Subroutine45_0:
          CFI Block cfiCond130 Using cfiCommon0
          CFI Function afDelete
          CFI Conditional ??CrossCallReturnLabel_85
          CFI R6 load(1, XDATA, add(CFA_XSP16, literal(-9)))
          CFI VB load(1, XDATA, add(CFA_XSP16, literal(-8)))
          CFI V0 load(1, XDATA, add(CFA_XSP16, literal(-7)))
          CFI R7 load(1, XDATA, add(CFA_XSP16, literal(-6)))
          CFI ?RET_LOW load(1, XDATA, add(CFA_XSP16, literal(-5)))
          CFI ?RET_HIGH load(1, XDATA, add(CFA_XSP16, literal(-4)))
          CFI ?BRET_EXT load(1, XDATA, add(CFA_XSP16, literal(-3)))
          CFI DPL0 load(1, XDATA, add(CFA_XSP16, literal(-2)))
          CFI DPH0 load(1, XDATA, add(CFA_XSP16, literal(-1)))
          CFI CFA_SP SP+-2
          CFI CFA_XSP16 add(XSP16, 9)
          CFI Block cfiCond131 Using cfiCommon0
          CFI (cfiCond131) Function afIncomingData
          CFI (cfiCond131) Conditional ??CrossCallReturnLabel_86
          CFI (cfiCond131) R6 load(1, XDATA, add(CFA_XSP16, literal(-16)))
          CFI (cfiCond131) VB load(1, XDATA, add(CFA_XSP16, literal(-15)))
          CFI (cfiCond131) V0 load(1, XDATA, add(CFA_XSP16, literal(-14)))
          CFI (cfiCond131) V1 load(1, XDATA, add(CFA_XSP16, literal(-13)))
          CFI (cfiCond131) V2 load(1, XDATA, add(CFA_XSP16, literal(-12)))
          CFI (cfiCond131) V3 load(1, XDATA, add(CFA_XSP16, literal(-11)))
          CFI (cfiCond131) V4 load(1, XDATA, add(CFA_XSP16, literal(-10)))
          CFI (cfiCond131) V5 load(1, XDATA, add(CFA_XSP16, literal(-9)))
          CFI (cfiCond131) V6 load(1, XDATA, add(CFA_XSP16, literal(-8)))
          CFI (cfiCond131) V7 load(1, XDATA, add(CFA_XSP16, literal(-7)))
          CFI (cfiCond131) R7 load(1, XDATA, add(CFA_XSP16, literal(-6)))
          CFI (cfiCond131) ?RET_LOW load(1, XDATA, add(CFA_XSP16, literal(-5)))
          CFI (cfiCond131) ?RET_HIGH load(1, XDATA, add(CFA_XSP16, literal(-4)))
          CFI (cfiCond131) ?BRET_EXT load(1, XDATA, add(CFA_XSP16, literal(-3)))
          CFI (cfiCond131) DPL0 load(1, XDATA, add(CFA_XSP16, literal(-2)))
          CFI (cfiCond131) DPH0 load(1, XDATA, add(CFA_XSP16, literal(-1)))
          CFI (cfiCond131) CFA_SP SP+-2
          CFI (cfiCond131) CFA_XSP16 add(XSP16, 25)
          CFI Block cfiCond132 Using cfiCommon0
          CFI (cfiCond132) Function afIncomingData
          CFI (cfiCond132) Conditional ??CrossCallReturnLabel_87
          CFI (cfiCond132) R6 load(1, XDATA, add(CFA_XSP16, literal(-16)))
          CFI (cfiCond132) VB load(1, XDATA, add(CFA_XSP16, literal(-15)))
          CFI (cfiCond132) V0 load(1, XDATA, add(CFA_XSP16, literal(-14)))
          CFI (cfiCond132) V1 load(1, XDATA, add(CFA_XSP16, literal(-13)))
          CFI (cfiCond132) V2 load(1, XDATA, add(CFA_XSP16, literal(-12)))
          CFI (cfiCond132) V3 load(1, XDATA, add(CFA_XSP16, literal(-11)))
          CFI (cfiCond132) V4 load(1, XDATA, add(CFA_XSP16, literal(-10)))
          CFI (cfiCond132) V5 load(1, XDATA, add(CFA_XSP16, literal(-9)))
          CFI (cfiCond132) V6 load(1, XDATA, add(CFA_XSP16, literal(-8)))
          CFI (cfiCond132) V7 load(1, XDATA, add(CFA_XSP16, literal(-7)))
          CFI (cfiCond132) R7 load(1, XDATA, add(CFA_XSP16, literal(-6)))
          CFI (cfiCond132) ?RET_LOW load(1, XDATA, add(CFA_XSP16, literal(-5)))
          CFI (cfiCond132) ?RET_HIGH load(1, XDATA, add(CFA_XSP16, literal(-4)))
          CFI (cfiCond132) ?BRET_EXT load(1, XDATA, add(CFA_XSP16, literal(-3)))
          CFI (cfiCond132) DPL0 load(1, XDATA, add(CFA_XSP16, literal(-2)))
          CFI (cfiCond132) DPH0 load(1, XDATA, add(CFA_XSP16, literal(-1)))
          CFI (cfiCond132) CFA_SP SP+-2
          CFI (cfiCond132) CFA_XSP16 add(XSP16, 25)
          CFI Block cfiCond133 Using cfiCommon0
          CFI (cfiCond133) Function afBuildMSGIncoming
          CFI (cfiCond133) Conditional ??CrossCallReturnLabel_88
          CFI (cfiCond133) R6 load(1, XDATA, add(CFA_XSP16, literal(-16)))
          CFI (cfiCond133) VB load(1, XDATA, add(CFA_XSP16, literal(-15)))
          CFI (cfiCond133) V0 load(1, XDATA, add(CFA_XSP16, literal(-14)))
          CFI (cfiCond133) V1 load(1, XDATA, add(CFA_XSP16, literal(-13)))
          CFI (cfiCond133) V2 load(1, XDATA, add(CFA_XSP16, literal(-12)))
          CFI (cfiCond133) V3 load(1, XDATA, add(CFA_XSP16, literal(-11)))
          CFI (cfiCond133) V4 load(1, XDATA, add(CFA_XSP16, literal(-10)))
          CFI (cfiCond133) V5 load(1, XDATA, add(CFA_XSP16, literal(-9)))
          CFI (cfiCond133) V6 load(1, XDATA, add(CFA_XSP16, literal(-8)))
          CFI (cfiCond133) V7 load(1, XDATA, add(CFA_XSP16, literal(-7)))
          CFI (cfiCond133) R7 load(1, XDATA, add(CFA_XSP16, literal(-6)))
          CFI (cfiCond133) ?RET_LOW load(1, XDATA, add(CFA_XSP16, literal(-5)))
          CFI (cfiCond133) ?RET_HIGH load(1, XDATA, add(CFA_XSP16, literal(-4)))
          CFI (cfiCond133) ?BRET_EXT load(1, XDATA, add(CFA_XSP16, literal(-3)))
          CFI (cfiCond133) DPL0 load(1, XDATA, add(CFA_XSP16, literal(-2)))
          CFI (cfiCond133) DPH0 load(1, XDATA, add(CFA_XSP16, literal(-1)))
          CFI (cfiCond133) CFA_SP SP+-2
          CFI (cfiCond133) CFA_XSP16 add(XSP16, 17)
          CFI Block cfiCond134 Using cfiCommon0
          CFI (cfiCond134) Function AF_DataRequest
          CFI (cfiCond134) Conditional ??CrossCallReturnLabel_83
          CFI (cfiCond134) R6 load(1, XDATA, add(CFA_XSP16, literal(-16)))
          CFI (cfiCond134) VB load(1, XDATA, add(CFA_XSP16, literal(-15)))
          CFI (cfiCond134) V0 load(1, XDATA, add(CFA_XSP16, literal(-14)))
          CFI (cfiCond134) V1 load(1, XDATA, add(CFA_XSP16, literal(-13)))
          CFI (cfiCond134) V2 load(1, XDATA, add(CFA_XSP16, literal(-12)))
          CFI (cfiCond134) V3 load(1, XDATA, add(CFA_XSP16, literal(-11)))
          CFI (cfiCond134) V4 load(1, XDATA, add(CFA_XSP16, literal(-10)))
          CFI (cfiCond134) V5 load(1, XDATA, add(CFA_XSP16, literal(-9)))
          CFI (cfiCond134) V6 load(1, XDATA, add(CFA_XSP16, literal(-8)))
          CFI (cfiCond134) V7 load(1, XDATA, add(CFA_XSP16, literal(-7)))
          CFI (cfiCond134) R7 load(1, XDATA, add(CFA_XSP16, literal(-6)))
          CFI (cfiCond134) ?RET_LOW load(1, XDATA, add(CFA_XSP16, literal(-5)))
          CFI (cfiCond134) ?RET_HIGH load(1, XDATA, add(CFA_XSP16, literal(-4)))
          CFI (cfiCond134) ?BRET_EXT load(1, XDATA, add(CFA_XSP16, literal(-3)))
          CFI (cfiCond134) DPL0 load(1, XDATA, add(CFA_XSP16, literal(-2)))
          CFI (cfiCond134) DPH0 load(1, XDATA, add(CFA_XSP16, literal(-1)))
          CFI (cfiCond134) CFA_SP SP+-2
          CFI (cfiCond134) CFA_XSP16 add(XSP16, 46)
          CFI Block cfiCond135 Using cfiCommon0
          CFI (cfiCond135) Function AF_DataRequest
          CFI (cfiCond135) Conditional ??CrossCallReturnLabel_89
          CFI (cfiCond135) R6 load(1, XDATA, add(CFA_XSP16, literal(-16)))
          CFI (cfiCond135) VB load(1, XDATA, add(CFA_XSP16, literal(-15)))
          CFI (cfiCond135) V0 load(1, XDATA, add(CFA_XSP16, literal(-14)))
          CFI (cfiCond135) V1 load(1, XDATA, add(CFA_XSP16, literal(-13)))
          CFI (cfiCond135) V2 load(1, XDATA, add(CFA_XSP16, literal(-12)))
          CFI (cfiCond135) V3 load(1, XDATA, add(CFA_XSP16, literal(-11)))
          CFI (cfiCond135) V4 load(1, XDATA, add(CFA_XSP16, literal(-10)))
          CFI (cfiCond135) V5 load(1, XDATA, add(CFA_XSP16, literal(-9)))
          CFI (cfiCond135) V6 load(1, XDATA, add(CFA_XSP16, literal(-8)))
          CFI (cfiCond135) V7 load(1, XDATA, add(CFA_XSP16, literal(-7)))
          CFI (cfiCond135) R7 load(1, XDATA, add(CFA_XSP16, literal(-6)))
          CFI (cfiCond135) ?RET_LOW load(1, XDATA, add(CFA_XSP16, literal(-5)))
          CFI (cfiCond135) ?RET_HIGH load(1, XDATA, add(CFA_XSP16, literal(-4)))
          CFI (cfiCond135) ?BRET_EXT load(1, XDATA, add(CFA_XSP16, literal(-3)))
          CFI (cfiCond135) DPL0 load(1, XDATA, add(CFA_XSP16, literal(-2)))
          CFI (cfiCond135) DPH0 load(1, XDATA, add(CFA_XSP16, literal(-1)))
          CFI (cfiCond135) CFA_SP SP+-2
          CFI (cfiCond135) CFA_XSP16 add(XSP16, 46)
          CFI Block cfiCond136 Using cfiCommon0
          CFI (cfiCond136) Function afEndPoints
          CFI (cfiCond136) Conditional ??CrossCallReturnLabel_84
          CFI (cfiCond136) DPL0 Frame(CFA_SP, 4)
          CFI (cfiCond136) DPH0 Frame(CFA_SP, 5)
          CFI (cfiCond136) CFA_SP SP+-7
          CFI Block cfiCond137 Using cfiCommon0
          CFI (cfiCond137) Function afIncomingData
          CFI (cfiCond137) Conditional ??CrossCallReturnLabel_90
          CFI (cfiCond137) R6 load(1, XDATA, add(CFA_XSP16, literal(-16)))
          CFI (cfiCond137) VB load(1, XDATA, add(CFA_XSP16, literal(-15)))
          CFI (cfiCond137) V0 load(1, XDATA, add(CFA_XSP16, literal(-14)))
          CFI (cfiCond137) V1 load(1, XDATA, add(CFA_XSP16, literal(-13)))
          CFI (cfiCond137) V2 load(1, XDATA, add(CFA_XSP16, literal(-12)))
          CFI (cfiCond137) V3 load(1, XDATA, add(CFA_XSP16, literal(-11)))
          CFI (cfiCond137) V4 load(1, XDATA, add(CFA_XSP16, literal(-10)))
          CFI (cfiCond137) V5 load(1, XDATA, add(CFA_XSP16, literal(-9)))
          CFI (cfiCond137) V6 load(1, XDATA, add(CFA_XSP16, literal(-8)))
          CFI (cfiCond137) V7 load(1, XDATA, add(CFA_XSP16, literal(-7)))
          CFI (cfiCond137) R7 load(1, XDATA, add(CFA_XSP16, literal(-6)))
          CFI (cfiCond137) ?RET_LOW load(1, XDATA, add(CFA_XSP16, literal(-5)))
          CFI (cfiCond137) ?RET_HIGH load(1, XDATA, add(CFA_XSP16, literal(-4)))
          CFI (cfiCond137) ?BRET_EXT load(1, XDATA, add(CFA_XSP16, literal(-3)))
          CFI (cfiCond137) DPL0 load(1, XDATA, add(CFA_XSP16, literal(-2)))
          CFI (cfiCond137) DPH0 load(1, XDATA, add(CFA_XSP16, literal(-1)))
          CFI (cfiCond137) CFA_SP SP+-2
          CFI (cfiCond137) CFA_XSP16 add(XSP16, 25)
          CFI Block cfiCond138 Using cfiCommon0
          CFI (cfiCond138) Function afIncomingData
          CFI (cfiCond138) Conditional ??CrossCallReturnLabel_91
          CFI (cfiCond138) R6 load(1, XDATA, add(CFA_XSP16, literal(-16)))
          CFI (cfiCond138) VB load(1, XDATA, add(CFA_XSP16, literal(-15)))
          CFI (cfiCond138) V0 load(1, XDATA, add(CFA_XSP16, literal(-14)))
          CFI (cfiCond138) V1 load(1, XDATA, add(CFA_XSP16, literal(-13)))
          CFI (cfiCond138) V2 load(1, XDATA, add(CFA_XSP16, literal(-12)))
          CFI (cfiCond138) V3 load(1, XDATA, add(CFA_XSP16, literal(-11)))
          CFI (cfiCond138) V4 load(1, XDATA, add(CFA_XSP16, literal(-10)))
          CFI (cfiCond138) V5 load(1, XDATA, add(CFA_XSP16, literal(-9)))
          CFI (cfiCond138) V6 load(1, XDATA, add(CFA_XSP16, literal(-8)))
          CFI (cfiCond138) V7 load(1, XDATA, add(CFA_XSP16, literal(-7)))
          CFI (cfiCond138) R7 load(1, XDATA, add(CFA_XSP16, literal(-6)))
          CFI (cfiCond138) ?RET_LOW load(1, XDATA, add(CFA_XSP16, literal(-5)))
          CFI (cfiCond138) ?RET_HIGH load(1, XDATA, add(CFA_XSP16, literal(-4)))
          CFI (cfiCond138) ?BRET_EXT load(1, XDATA, add(CFA_XSP16, literal(-3)))
          CFI (cfiCond138) DPL0 load(1, XDATA, add(CFA_XSP16, literal(-2)))
          CFI (cfiCond138) DPH0 load(1, XDATA, add(CFA_XSP16, literal(-1)))
          CFI (cfiCond138) CFA_SP SP+-2
          CFI (cfiCond138) CFA_XSP16 add(XSP16, 25)
          CFI Block cfiCond139 Using cfiCommon0
          CFI (cfiCond139) Function AF_DataRequest
          CFI (cfiCond139) Conditional ??CrossCallReturnLabel_92
          CFI (cfiCond139) R6 load(1, XDATA, add(CFA_XSP16, literal(-16)))
          CFI (cfiCond139) VB load(1, XDATA, add(CFA_XSP16, literal(-15)))
          CFI (cfiCond139) V0 load(1, XDATA, add(CFA_XSP16, literal(-14)))
          CFI (cfiCond139) V1 load(1, XDATA, add(CFA_XSP16, literal(-13)))
          CFI (cfiCond139) V2 load(1, XDATA, add(CFA_XSP16, literal(-12)))
          CFI (cfiCond139) V3 load(1, XDATA, add(CFA_XSP16, literal(-11)))
          CFI (cfiCond139) V4 load(1, XDATA, add(CFA_XSP16, literal(-10)))
          CFI (cfiCond139) V5 load(1, XDATA, add(CFA_XSP16, literal(-9)))
          CFI (cfiCond139) V6 load(1, XDATA, add(CFA_XSP16, literal(-8)))
          CFI (cfiCond139) V7 load(1, XDATA, add(CFA_XSP16, literal(-7)))
          CFI (cfiCond139) R7 load(1, XDATA, add(CFA_XSP16, literal(-6)))
          CFI (cfiCond139) ?RET_LOW load(1, XDATA, add(CFA_XSP16, literal(-5)))
          CFI (cfiCond139) ?RET_HIGH load(1, XDATA, add(CFA_XSP16, literal(-4)))
          CFI (cfiCond139) ?BRET_EXT load(1, XDATA, add(CFA_XSP16, literal(-3)))
          CFI (cfiCond139) DPL0 load(1, XDATA, add(CFA_XSP16, literal(-2)))
          CFI (cfiCond139) DPH0 load(1, XDATA, add(CFA_XSP16, literal(-1)))
          CFI (cfiCond139) CFA_SP SP+-2
          CFI (cfiCond139) CFA_XSP16 add(XSP16, 46)
          CFI Block cfiPicker140 Using cfiCommon1
          CFI (cfiPicker140) NoFunction
          CFI (cfiPicker140) Picker
        LCALL   ?Subroutine37 & 0xFFFF
??CrossCallReturnLabel_137:
        MOV     A,R0
        ORL     A,R1
        RET
          CFI EndBlock cfiCond130
          CFI EndBlock cfiCond131
          CFI EndBlock cfiCond132
          CFI EndBlock cfiCond133
          CFI EndBlock cfiCond134
          CFI EndBlock cfiCond135
          CFI EndBlock cfiCond136
          CFI EndBlock cfiCond137
          CFI EndBlock cfiCond138
          CFI EndBlock cfiCond139
          CFI EndBlock cfiPicker140
//  536 
//  537 /*********************************************************************
//  538  * @fn      AF_DataRequest
//  539  *
//  540  * @brief   Common functionality for invoking APSDE_DataReq() for both
//  541  *          SendMulti and MSG-Send.
//  542  *
//  543  * input parameters
//  544  *
//  545  * @param  *dstAddr - Full ZB destination address: Nwk Addr + End Point.
//  546  * @param  *srcEP - Origination (i.e. respond to or ack to) End Point Descr.
//  547  * @param   cID - A valid cluster ID as specified by the Profile.
//  548  * @param   len - Number of bytes of data pointed to by next param.
//  549  * @param  *buf - A pointer to the data bytes to send.
//  550  * @param  *transID - A pointer to a byte which can be modified and which will
//  551  *                    be used as the transaction sequence number of the msg.
//  552  * @param   options - Valid bit mask of Tx options.
//  553  * @param   radius - Normally set to AF_DEFAULT_RADIUS.
//  554  *
//  555  * output parameters
//  556  *
//  557  * @param  *transID - Incremented by one if the return value is success.
//  558  *
//  559  * @return  afStatus_t - See previous definition of afStatus_... types.
//  560  */

        RSEG XDATA_I:XDATA:NOROOT(0)
//  561 uint8 AF_DataRequestDiscoverRoute = DISC_ROUTE_NETWORK;
AF_DataRequestDiscoverRoute:
        DATA8
        DS 1
        REQUIRE `?<Initializer for AF_DataRequestDiscoverRoute>`
        REQUIRE __INIT_XDATA_I

        RSEG BANKED_CODE:CODE:NOROOT(0)
//  562 afStatus_t AF_DataRequest( afAddrType_t *dstAddr, endPointDesc_t *srcEP,
AF_DataRequest:
          CFI Block cfiBlock141 Using cfiCommon0
          CFI Function AF_DataRequest
        CODE
//  563                            uint16 cID, uint16 len, uint8 *buf, uint8 *transID,
//  564                            uint8 options, uint8 radius )
//  565 {
        FUNCALL AF_DataRequest, NLME_GetShortAddr
        LOCFRAME ISTACK, 0, STACK
        LOCFRAME PSTACK, 0, STACK
        LOCFRAME XSTACK, 46, STACK
        LOCFRAME IOVERLAY, 0, STATIC
        LOCFRAME DOVERLAY, 0, STATIC
        ARGFRAME ISTACK, 0, STACK
        ARGFRAME PSTACK, 0, STACK
        ARGFRAME XSTACK, 46, STACK
        ARGFRAME IOVERLAY, 0, STATIC
        ARGFRAME DOVERLAY, 0, STATIC
        FUNCALL AF_DataRequest, RTG_CheckRtStatus
        LOCFRAME ISTACK, 0, STACK
        LOCFRAME PSTACK, 0, STACK
        LOCFRAME XSTACK, 46, STACK
        LOCFRAME IOVERLAY, 0, STATIC
        LOCFRAME DOVERLAY, 0, STATIC
        ARGFRAME ISTACK, 0, STACK
        ARGFRAME PSTACK, 0, STACK
        ARGFRAME XSTACK, 46, STACK
        ARGFRAME IOVERLAY, 0, STATIC
        ARGFRAME DOVERLAY, 0, STATIC
        FUNCALL AF_DataRequest, NLME_IsAddressBroadcast
        LOCFRAME ISTACK, 0, STACK
        LOCFRAME PSTACK, 0, STACK
        LOCFRAME XSTACK, 46, STACK
        LOCFRAME IOVERLAY, 0, STATIC
        LOCFRAME DOVERLAY, 0, STATIC
        ARGFRAME ISTACK, 0, STACK
        ARGFRAME PSTACK, 0, STACK
        ARGFRAME XSTACK, 46, STACK
        ARGFRAME IOVERLAY, 0, STATIC
        ARGFRAME DOVERLAY, 0, STATIC
        FUNCALL AF_DataRequest, sAddrExtCpy
        LOCFRAME ISTACK, 0, STACK
        LOCFRAME PSTACK, 0, STACK
        LOCFRAME XSTACK, 46, STACK
        LOCFRAME IOVERLAY, 0, STATIC
        LOCFRAME DOVERLAY, 0, STATIC
        ARGFRAME ISTACK, 0, STACK
        ARGFRAME PSTACK, 0, STACK
        ARGFRAME XSTACK, 46, STACK
        ARGFRAME IOVERLAY, 0, STATIC
        ARGFRAME DOVERLAY, 0, STATIC
        FUNCALL AF_DataRequest, osal_mem_free
        LOCFRAME ISTACK, 0, STACK
        LOCFRAME PSTACK, 0, STACK
        LOCFRAME XSTACK, 46, STACK
        LOCFRAME IOVERLAY, 0, STATIC
        LOCFRAME DOVERLAY, 0, STATIC
        ARGFRAME ISTACK, 0, STACK
        ARGFRAME PSTACK, 0, STACK
        ARGFRAME XSTACK, 46, STACK
        ARGFRAME IOVERLAY, 0, STATIC
        ARGFRAME DOVERLAY, 0, STATIC
        FUNCALL AF_DataRequest, afFindEndPointDescList
        LOCFRAME ISTACK, 0, STACK
        LOCFRAME PSTACK, 0, STACK
        LOCFRAME XSTACK, 46, STACK
        LOCFRAME IOVERLAY, 0, STATIC
        LOCFRAME DOVERLAY, 0, STATIC
        ARGFRAME ISTACK, 0, STACK
        ARGFRAME PSTACK, 0, STACK
        ARGFRAME XSTACK, 46, STACK
        ARGFRAME IOVERLAY, 0, STATIC
        ARGFRAME DOVERLAY, 0, STATIC
        FUNCALL AF_DataRequest, afDataReqMTU
        LOCFRAME ISTACK, 0, STACK
        LOCFRAME PSTACK, 0, STACK
        LOCFRAME XSTACK, 46, STACK
        LOCFRAME IOVERLAY, 0, STATIC
        LOCFRAME DOVERLAY, 0, STATIC
        ARGFRAME ISTACK, 0, STACK
        ARGFRAME PSTACK, 0, STACK
        ARGFRAME XSTACK, 46, STACK
        ARGFRAME IOVERLAY, 0, STATIC
        ARGFRAME DOVERLAY, 0, STATIC
        FUNCALL AF_DataRequest, APSDE_DataReq
        LOCFRAME ISTACK, 0, STACK
        LOCFRAME PSTACK, 0, STACK
        LOCFRAME XSTACK, 46, STACK
        LOCFRAME IOVERLAY, 0, STATIC
        LOCFRAME DOVERLAY, 0, STATIC
        ARGFRAME ISTACK, 0, STACK
        ARGFRAME PSTACK, 0, STACK
        ARGFRAME XSTACK, 46, STACK
        ARGFRAME IOVERLAY, 0, STATIC
        ARGFRAME DOVERLAY, 0, STATIC
        FUNCALL AF_DataRequest, NLME_GetShortAddr
        LOCFRAME ISTACK, 0, STACK
        LOCFRAME PSTACK, 0, STACK
        LOCFRAME XSTACK, 46, STACK
        LOCFRAME IOVERLAY, 0, STATIC
        LOCFRAME DOVERLAY, 0, STATIC
        ARGFRAME ISTACK, 0, STACK
        ARGFRAME PSTACK, 0, STACK
        ARGFRAME XSTACK, 46, STACK
        ARGFRAME IOVERLAY, 0, STATIC
        ARGFRAME DOVERLAY, 0, STATIC
        FUNCALL AF_DataRequest, afDataConfirm
        LOCFRAME ISTACK, 0, STACK
        LOCFRAME PSTACK, 0, STACK
        LOCFRAME XSTACK, 46, STACK
        LOCFRAME IOVERLAY, 0, STATIC
        LOCFRAME DOVERLAY, 0, STATIC
        ARGFRAME ISTACK, 0, STACK
        ARGFRAME PSTACK, 0, STACK
        ARGFRAME XSTACK, 46, STACK
        ARGFRAME IOVERLAY, 0, STATIC
        ARGFRAME DOVERLAY, 0, STATIC
        REQUIRE ?V0
        REQUIRE ?V1
        REQUIRE ?V2
        REQUIRE ?V4
        REQUIRE ?V5
        REQUIRE ?V6
        REQUIRE ?V7
        MOV     A,#-0x10
        LCALL   ?BANKED_ENTER_XDATA
          CFI DPH0 load(1, XDATA, add(CFA_XSP16, literal(-1)))
          CFI DPL0 load(1, XDATA, add(CFA_XSP16, literal(-2)))
          CFI ?BRET_EXT load(1, XDATA, add(CFA_XSP16, literal(-3)))
          CFI ?RET_HIGH load(1, XDATA, add(CFA_XSP16, literal(-4)))
          CFI ?RET_LOW load(1, XDATA, add(CFA_XSP16, literal(-5)))
          CFI R7 load(1, XDATA, add(CFA_XSP16, literal(-6)))
          CFI V7 load(1, XDATA, add(CFA_XSP16, literal(-7)))
          CFI V6 load(1, XDATA, add(CFA_XSP16, literal(-8)))
          CFI V5 load(1, XDATA, add(CFA_XSP16, literal(-9)))
          CFI V4 load(1, XDATA, add(CFA_XSP16, literal(-10)))
          CFI V3 load(1, XDATA, add(CFA_XSP16, literal(-11)))
          CFI V2 load(1, XDATA, add(CFA_XSP16, literal(-12)))
          CFI V1 load(1, XDATA, add(CFA_XSP16, literal(-13)))
          CFI V0 load(1, XDATA, add(CFA_XSP16, literal(-14)))
          CFI VB load(1, XDATA, add(CFA_XSP16, literal(-15)))
          CFI R6 load(1, XDATA, add(CFA_XSP16, literal(-16)))
          CFI CFA_SP SP+0
          CFI CFA_XSP16 add(XSP16, 16)
        ; Saved register size: 16
        ; Auto size: 30
        MOV     A,#-0x1e
        LCALL   ?ALLOC_XSTACK8
          CFI CFA_XSP16 add(XSP16, 46)
        MOV     A,R2
        MOV     R6,A
        MOV     A,R3
        MOV     R7,A
        MOV     ?V0,R4
        MOV     ?V1,R5
        MOV     ?V2,R1
//  566   pDescCB pfnDescCB;
//  567   ZStatus_t stat;
//  568   APSDE_DataReq_t req;
//  569   afDataReqMTU_t mtu;
//  570   epList_t *pList;
//  571 
//  572   // Verify source end point
//  573   if ( srcEP == NULL )
        MOV     A,R4
        ORL     A,?V1
        JNZ     $+5
        LJMP    ??AF_DataRequest_0 & 0xFFFF
//  574   {
//  575     return afStatus_INVALID_PARAMETER;
//  576   }
//  577 
//  578 #if !defined( REFLECTOR )
//  579   if ( dstAddr->addrMode == afAddrNotPresent )
//  580   {
//  581     return afStatus_INVALID_PARAMETER;
//  582   }
//  583 #endif
//  584 
//  585   // Check if route is available before sending data
//  586   if ( options & AF_LIMIT_CONCENTRATOR  )
        MOV     A,R1
        MOV     C,0xE0 /* A   */.3
        JNC     ??AF_DataRequest_1
//  587   {
//  588     if ( dstAddr->addrMode != afAddr16Bit )
        MOV     DPL,R6
        MOV     DPH,R7
        INC     DPTR
        INC     DPTR
        INC     DPTR
        INC     DPTR
        INC     DPTR
        INC     DPTR
        INC     DPTR
        INC     DPTR
        MOVX    A,@DPTR
        XRL     A,#0x2
        JZ      $+5
        LJMP    ??AF_DataRequest_0 & 0xFFFF
//  589     {
//  590       return ( afStatus_INVALID_PARAMETER );
//  591     }
//  592 
//  593     // First, make sure the destination is not its self, then check for an existing route.
//  594     if ( (dstAddr->addr.shortAddr != NLME_GetShortAddr())
//  595         && (RTG_CheckRtStatus( dstAddr->addr.shortAddr, RT_ACTIVE, (MTO_ROUTE | NO_ROUTE_CACHE) ) != RTG_SUCCESS) )
        ; Setup parameters for call to function NLME_GetShortAddr
        LCALL   `??NLME_GetShortAddr::?relay`; Banked call to: NLME_GetShortAddr
        MOV     ?V4,R2
        MOV     ?V5,R3
        MOV     R0,?V4
        MOV     R1,?V5
        MOV     DPL,R6
        MOV     DPH,R7
        MOVX    A,@DPTR
        XRL     A,R0
        JNZ     ??AF_DataRequest_2
        INC     DPTR
        MOVX    A,@DPTR
        XRL     A,R1
??AF_DataRequest_2:
        JZ      ??AF_DataRequest_1
        ; Setup parameters for call to function RTG_CheckRtStatus
        MOV     R4,#0x3
        MOV     R1,#0x1
        MOV     DPL,R6
        MOV     DPH,R7
        LCALL   ??Subroutine51_0 & 0xFFFF
??CrossCallReturnLabel_104:
        LCALL   `??RTG_CheckRtStatus::?relay`; Banked call to: RTG_CheckRtStatus
        MOV     A,R1
        JZ      ??AF_DataRequest_1
//  596     {
//  597       // A valid route to a concentrator wasn't found
//  598       return ( afStatus_NO_ROUTE );
        MOV     R1,#-0x33
        LJMP    ??AF_DataRequest_3 & 0xFFFF
//  599     }
//  600   }
//  601 
//  602   // Validate broadcasting
//  603   if ( ( dstAddr->addrMode == afAddr16Bit     ) ||
//  604        ( dstAddr->addrMode == afAddrBroadcast )    )
??AF_DataRequest_1:
        MOV     DPL,R6
        MOV     DPH,R7
        INC     DPTR
        INC     DPTR
        INC     DPTR
        INC     DPTR
        INC     DPTR
        INC     DPTR
        INC     DPTR
        INC     DPTR
        MOVX    A,@DPTR
        XRL     A,#0x2
        JZ      ??AF_DataRequest_4
        MOV     DPL,R6
        MOV     DPH,R7
        INC     DPTR
        INC     DPTR
        INC     DPTR
        INC     DPTR
        INC     DPTR
        INC     DPTR
        INC     DPTR
        INC     DPTR
        MOVX    A,@DPTR
        XRL     A,#0xf
        JNZ     ??AF_DataRequest_5
//  605   {
//  606     // Check for valid broadcast values
//  607     if( ADDR_NOT_BCAST != NLME_IsAddressBroadcast( dstAddr->addr.shortAddr )  )
??AF_DataRequest_4:
        ; Setup parameters for call to function NLME_IsAddressBroadcast
        MOV     DPL,R6
        MOV     DPH,R7
        LCALL   ??Subroutine51_0 & 0xFFFF
??CrossCallReturnLabel_105:
        LCALL   `??NLME_IsAddressBroadcast::?relay`; Banked call to: NLME_IsAddressBroadcast
        MOV     A,R1
        MOV     DPL,R6
        MOV     DPH,R7
        INC     DPTR
        INC     DPTR
        INC     DPTR
        INC     DPTR
        INC     DPTR
        INC     DPTR
        INC     DPTR
        INC     DPTR
        JZ      ??AF_DataRequest_6
//  608     {
//  609       // Force mode to broadcast
//  610       dstAddr->addrMode = afAddrBroadcast;
        MOV     A,#0xf
        MOVX    @DPTR,A
//  611     }
//  612     else
//  613     {
//  614       // Address is not a valid broadcast type
//  615       if ( dstAddr->addrMode == afAddrBroadcast )
//  616       {
//  617         return afStatus_INVALID_PARAMETER;
//  618       }
//  619     }
//  620   }
//  621   else if ( dstAddr->addrMode != afAddr64Bit &&
//  622             dstAddr->addrMode != afAddrGroup &&
//  623             dstAddr->addrMode != afAddrNotPresent )
//  624   {
//  625     return afStatus_INVALID_PARAMETER;
//  626   }
//  627 
//  628   // Set destination address
//  629   req.dstAddr.addrMode = dstAddr->addrMode;
??AF_DataRequest_7:
        MOV     A,R6
        ADD     A,#0x8
        MOV     R0,A
        CLR     A
        ADDC    A,R7
        MOV     R1,A
        MOV     DPL,R0
        MOV     DPH,R1
        MOVX    A,@DPTR
        PUSH    A
          CFI CFA_SP SP+-1
        MOV     A,#0xa
        LCALL   ?XSTACK_DISP0_8
        POP     A
          CFI CFA_SP SP+0
        LCALL   ?Subroutine31 & 0xFFFF
//  630   if ( dstAddr->addrMode == afAddr64Bit )
??CrossCallReturnLabel_45:
        JNZ     ??AF_DataRequest_8
//  631   {
//  632     osal_cpyExtAddr( req.dstAddr.addr.extAddr, dstAddr->addr.extAddr );
        ; Setup parameters for call to function sAddrExtCpy
        MOV     A,R6
        MOV     R4,A
        MOV     A,R7
        MOV     R5,A
        MOV     A,#0x2
        LCALL   ?XSTACK_DISP101_8
        LCALL   `??sAddrExtCpy::?relay`; Banked call to: sAddrExtCpy
        SJMP    ??CrossCallReturnLabel_76
//  633   }
??AF_DataRequest_6:
        MOVX    A,@DPTR
        XRL     A,#0xf
        JNZ     ??AF_DataRequest_7
        SJMP    ??AF_DataRequest_0
??AF_DataRequest_5:
        MOV     DPL,R6
        MOV     DPH,R7
        INC     DPTR
        INC     DPTR
        INC     DPTR
        INC     DPTR
        INC     DPTR
        INC     DPTR
        INC     DPTR
        INC     DPTR
        MOVX    A,@DPTR
        XRL     A,#0x3
        JZ      ??AF_DataRequest_7
        MOV     DPL,R6
        MOV     DPH,R7
        INC     DPTR
        INC     DPTR
        INC     DPTR
        INC     DPTR
        INC     DPTR
        INC     DPTR
        INC     DPTR
        INC     DPTR
        MOVX    A,@DPTR
        XRL     A,#0x1
        JZ      ??AF_DataRequest_7
        MOV     DPL,R6
        MOV     DPH,R7
        INC     DPTR
        INC     DPTR
        INC     DPTR
        INC     DPTR
        INC     DPTR
        INC     DPTR
        INC     DPTR
        INC     DPTR
        MOVX    A,@DPTR
        JZ      ??AF_DataRequest_7
??AF_DataRequest_0:
        MOV     R1,#0x2
        LJMP    ??AF_DataRequest_3 & 0xFFFF
//  634   else
//  635   {
//  636     req.dstAddr.addr.shortAddr = dstAddr->addr.shortAddr;
??AF_DataRequest_8:
        MOV     DPL,R6
        MOV     DPH,R7
        LCALL   ??Subroutine56_0 & 0xFFFF
//  637   }
??CrossCallReturnLabel_125:
        MOV     A,#0x2
        LCALL   ?XSTACK_DISP0_8
        LCALL   ??Subroutine44_0 & 0xFFFF
//  638 
//  639   // This option is to use Wildcard ProfileID in outgoing packets
//  640   if ( options & AF_WILDCARD_PROFILEID )
??CrossCallReturnLabel_76:
        MOV     A,?V2
        MOV     C,0xE0 /* A   */.1
        MOV     A,#0x11
        JNC     ??AF_DataRequest_9
//  641   {
//  642     req.profileID = ZDO_WILDCARD_PROFILE_ID;
        LCALL   ?XSTACK_DISP0_8
        MOV     A,#-0x1
        MOVX    @DPTR,A
        INC     DPTR
        SJMP    ??AF_DataRequest_10
//  643   }
//  644   else
//  645   {
//  646     req.profileID = ZDO_PROFILE_ID;
??AF_DataRequest_9:
        LCALL   ?XSTACK_DISP0_8
        CLR     A
        MOVX    @DPTR,A
        INC     DPTR
        MOVX    @DPTR,A
//  647 
//  648     if ( (pfnDescCB = afGetDescCB( srcEP )) )
        MOV     DPTR,#epList
??AF_DataRequest_11:
        LCALL   ??Subroutine45_0 & 0xFFFF
??CrossCallReturnLabel_83:
        JZ      ??AF_DataRequest_12
        MOV     DPL,R0
        MOV     DPH,R1
        LCALL   ??Subroutine50_0 & 0xFFFF
??CrossCallReturnLabel_108:
        MOV     A,?V0
        XRL     A,R2
        JNZ     ??AF_DataRequest_13
        MOV     A,?V1
        XRL     A,R3
??AF_DataRequest_13:
        MOV     DPL,R0
        MOV     DPH,R1
        JNZ     ??AF_DataRequest_11
        INC     DPTR
        INC     DPTR
        INC     DPTR
        INC     DPTR
        LCALL   ??Subroutine56_0 & 0xFFFF
??CrossCallReturnLabel_126:
        MOV     A,R0
        MOV     R4,A
        MOV     A,R1
        MOV     R5,A
        MOV     A,R4
        ORL     A,R5
        JZ      ??AF_DataRequest_12
//  649     {
//  650       uint16 *pID = (uint16 *)(pfnDescCB(
//  651                                    AF_DESCRIPTOR_PROFILE_ID, srcEP->endPoint ));
        ; Setup parameters for indirect call
        MOV     DPL,?V0
        MOV     DPH,?V1
        MOVX    A,@DPTR
        MOV     R2,A
        MOV     R1,#0x2
        MOV     DPL,R4
        MOV     DPH,R5
        LCALL   ?CALL_IND
//  652       if ( pID )
        MOV     A,R2
        ORL     A,R3
        JZ      ??AF_DataRequest_14
//  653       {
//  654         req.profileID = *pID;
        LCALL   ?Subroutine18 & 0xFFFF
??CrossCallReturnLabel_132:
        MOV     A,#0x11
        LCALL   ?XSTACK_DISP0_8
        LCALL   ??Subroutine44_0 & 0xFFFF
//  655         osal_mem_free( pID );
??CrossCallReturnLabel_77:
        ; Setup parameters for call to function osal_mem_free
        LCALL   `??osal_mem_free::?relay`; Banked call to: osal_mem_free
        SJMP    ??AF_DataRequest_14
//  656       }
//  657     }
//  658     else if ( srcEP->simpleDesc )
??AF_DataRequest_12:
        MOV     DPL,?V0
        MOV     DPH,?V1
        LCALL   ?Subroutine5 & 0xFFFF
??CrossCallReturnLabel_92:
        JZ      ??AF_DataRequest_14
//  659     {
//  660       req.profileID = srcEP->simpleDesc->AppProfId;
        MOV     DPL,?V0
        MOV     DPH,?V1
        LCALL   ?Subroutine21 & 0xFFFF
//  661     }
//  662   }
??CrossCallReturnLabel_97:
        LCALL   ??Subroutine56_0 & 0xFFFF
??CrossCallReturnLabel_127:
        MOV     A,#0x11
        LCALL   ?XSTACK_DISP0_8
        MOV     A,R0
        MOVX    @DPTR,A
        INC     DPTR
        MOV     A,R1
??AF_DataRequest_10:
        MOVX    @DPTR,A
//  663 
//  664   req.txOptions = 0;
??AF_DataRequest_14:
        MOV     A,#0x17
        LCALL   ?XSTACK_DISP0_8
        CLR     A
        MOVX    @DPTR,A
        INC     DPTR
        MOVX    @DPTR,A
//  665 
//  666   if ( ( options & AF_ACK_REQUEST              ) &&
//  667        ( req.dstAddr.addrMode != AddrBroadcast ) &&
//  668        ( req.dstAddr.addrMode != AddrGroup     )    )
        MOV     A,?V2
        MOV     C,0xE0 /* A   */.4
        JNC     ??AF_DataRequest_15
        MOV     A,#0xa
        LCALL   ?XSTACK_DISP0_8
        MOVX    A,@DPTR
        XRL     A,#0xf
        JZ      ??AF_DataRequest_15
        MOVX    A,@DPTR
        XRL     A,#0x1
        JZ      ??AF_DataRequest_15
//  669   {
//  670     req.txOptions |=  APS_TX_OPTIONS_ACK;
        MOV     A,#0x17
        LCALL   ?XSTACK_DISP0_8
        MOV     A,#0x4
        MOVX    @DPTR,A
        INC     DPTR
        CLR     A
        MOVX    @DPTR,A
//  671   }
//  672 
//  673   if ( options & AF_SKIP_ROUTING )
??AF_DataRequest_15:
        MOV     A,?V2
        MOV     C,0xE0 /* A   */.7
        JNC     ??AF_DataRequest_16
//  674   {
//  675     req.txOptions |=  APS_TX_OPTIONS_SKIP_ROUTING;
        MOV     A,#0x17
        LCALL   ?XSTACK_DISP0_8
        MOVX    A,@DPTR
        ORL     A,#0x10
        MOVX    @DPTR,A
//  676   }
//  677 
//  678   if ( options & AF_EN_SECURITY )
??AF_DataRequest_16:
        MOV     A,?V2
        MOV     C,0xE0 /* A   */.6
        JNC     ??AF_DataRequest_17
//  679   {
//  680     req.txOptions |= APS_TX_OPTIONS_SECURITY_ENABLE;
        MOV     A,#0x17
        LCALL   ?XSTACK_DISP0_8
        MOVX    A,@DPTR
        ORL     A,#0x1
        MOVX    @DPTR,A
//  681     mtu.aps.secure = TRUE;
        MOV     A,#0x1
        LCALL   ?XSTACK_DISP0_8
        MOV     A,#0x1
        SJMP    ??AF_DataRequest_18
//  682   }
//  683   else
//  684   {
//  685     mtu.aps.secure = FALSE;
??AF_DataRequest_17:
        MOV     A,#0x1
        LCALL   ?XSTACK_DISP0_8
        CLR     A
??AF_DataRequest_18:
        MOVX    @DPTR,A
//  686   }
//  687 
//  688   if ( options & AF_PREPROCESS )
        MOV     A,?V2
        MOV     C,0xE0 /* A   */.2
        JNC     ??AF_DataRequest_19
//  689   {
//  690     req.txOptions |=  APS_TX_OPTIONS_PREPROCESS;
        MOV     A,#0x17
        LCALL   ?XSTACK_DISP0_8
        MOVX    A,@DPTR
        ORL     A,#0x40
        MOVX    @DPTR,A
//  691   }
//  692 
//  693   mtu.kvp = FALSE;
??AF_DataRequest_19:
        MOV     DPL,?XSP + 0
        MOV     DPH,?XSP + 1
        CLR     A
        MOVX    @DPTR,A
//  694 
//  695   if ( options & AF_SUPRESS_ROUTE_DISC_NETWORK )
        MOV     A,?V2
        MOV     C,0xE0 /* A   */.5
        JNC     ??AF_DataRequest_20
//  696   {
//  697     req.discoverRoute = DISC_ROUTE_INITIATE;
        MOV     A,#0x1a
        LCALL   ?XSTACK_DISP0_8
        MOV     A,#0x4
        SJMP    ??AF_DataRequest_21
//  698   }
//  699   else
//  700   {
//  701     req.discoverRoute = AF_DataRequestDiscoverRoute;
??AF_DataRequest_20:
        MOV     DPTR,#AF_DataRequestDiscoverRoute
        MOVX    A,@DPTR
        PUSH    A
          CFI CFA_SP SP+-1
        MOV     A,#0x1a
        LCALL   ?XSTACK_DISP0_8
        POP     A
          CFI CFA_SP SP+0
??AF_DataRequest_21:
        MOVX    @DPTR,A
        MOV     A,#0x34
        LCALL   ?XSTACK_DISP0_8
//  702   }
        LCALL   ?Subroutine9 & 0xFFFF
//  703 
//  704   req.transID       = *transID;
??CrossCallReturnLabel_3:
        MOV     DPL,?V6
        MOV     DPH,A
        MOVX    A,@DPTR
        PUSH    A
          CFI CFA_SP SP+-1
        MOV     A,#0x19
        LCALL   ?XSTACK_DISP0_8
        POP     A
          CFI CFA_SP SP+0
        LCALL   ?Subroutine30 & 0xFFFF
//  705   req.srcEP         = srcEP->endPoint;
??CrossCallReturnLabel_43:
        PUSH    A
          CFI CFA_SP SP+-1
        MOV     A,#0xb
        LCALL   ?XSTACK_DISP0_8
        POP     A
          CFI CFA_SP SP+0
        MOVX    @DPTR,A
//  706   req.dstEP         = dstAddr->endPoint;
        MOV     DPL,R6
        MOV     DPH,R7
        INC     DPTR
        INC     DPTR
        INC     DPTR
        INC     DPTR
        INC     DPTR
        INC     DPTR
        INC     DPTR
        INC     DPTR
        INC     DPTR
        MOVX    A,@DPTR
        PUSH    A
          CFI CFA_SP SP+-1
        MOV     A,#0xc
        LCALL   ?XSTACK_DISP0_8
        POP     A
          CFI CFA_SP SP+0
        MOVX    @DPTR,A
//  707   req.clusterID     = cID;
        MOV     A,#0x2e
        LCALL   ?XSTACK_DISP0_8
        LCALL   ??Subroutine56_0 & 0xFFFF
??CrossCallReturnLabel_128:
        MOV     A,#0xf
        LCALL   ?XSTACK_DISP0_8
        LCALL   ??Subroutine44_0 & 0xFFFF
??CrossCallReturnLabel_78:
        MOV     A,#0x30
        LCALL   ?XSTACK_DISP0_8
        MOVX    A,@DPTR
        MOV     R6,A
        INC     DPTR
        MOVX    A,@DPTR
        MOV     R7,A
//  708   req.asduLen       = len;
        MOV     A,#0x13
        LCALL   ?XSTACK_DISP0_8
        MOV     A,R6
        MOVX    @DPTR,A
        INC     DPTR
        MOV     A,R7
        MOVX    @DPTR,A
//  709   req.asdu          = buf;
        MOV     A,#0x32
        LCALL   ?XSTACK_DISP0_8
        LCALL   ??Subroutine56_0 & 0xFFFF
??CrossCallReturnLabel_129:
        MOV     A,#0x15
        LCALL   ?XSTACK_DISP0_8
        LCALL   ??Subroutine44_0 & 0xFFFF
//  710   req.radiusCounter = radius;
??CrossCallReturnLabel_79:
        MOV     A,#0x36
        LCALL   ?XSTACK_DISP0_8
        MOVX    A,@DPTR
        PUSH    A
          CFI CFA_SP SP+-1
        MOV     A,#0x1b
        LCALL   ?XSTACK_DISP0_8
        POP     A
          CFI CFA_SP SP+0
        LCALL   ?Subroutine30 & 0xFFFF
//  711 #if defined ( INTER_PAN )
//  712   req.dstPanId      = dstAddr->panId;
//  713 #endif // INTER_PAN
//  714 
//  715   // Look if there is a Callback function registered for this endpoint
//  716   // The callback is used to control the AF Transaction ID used when sending messages
//  717   pList = afFindEndPointDescList( srcEP->endPoint );
??CrossCallReturnLabel_44:
        MOV     R1,A
        LCALL   `??afFindEndPointDescList::?relay`; Banked call to: afFindEndPointDescList
        MOV     ?V4,R2
        MOV     ?V5,R3
        MOV     R0,?V4
        MOV     R1,?V5
//  718 
//  719   if ( ( pList != NULL ) && ( pList->pfnApplCB != NULL ) )
        MOV     A,R0
        ORL     A,R1
        JZ      ??AF_DataRequest_22
        MOV     DPL,R0
        MOV     DPH,R1
        INC     DPTR
        INC     DPTR
        INC     DPTR
        INC     DPTR
        INC     DPTR
        LCALL   ?Subroutine7 & 0xFFFF
??CrossCallReturnLabel_100:
        JZ      ??AF_DataRequest_22
//  720   {
//  721     pList->pfnApplCB( &req );
        ; Setup parameters for indirect call
        MOV     A,#0x2
        LCALL   ?XSTACK_DISP101_8
        MOV     DPL,R0
        MOV     DPH,R1
        INC     DPTR
        INC     DPTR
        INC     DPTR
        INC     DPTR
        INC     DPTR
        LCALL   ?Subroutine22 & 0xFFFF
//  722   }
??CrossCallReturnLabel_117:
        LCALL   ?CALL_IND
//  723 
//  724 #if defined ( INTER_PAN )
//  725   if ( StubAPS_InterPan( dstAddr->panId, dstAddr->endPoint ) )
//  726   {
//  727     if ( len > INTERP_DataReqMTU() )
//  728     {
//  729       stat = afStatus_INVALID_PARAMETER;
//  730     }
//  731     else
//  732     {
//  733       stat = INTERP_DataReq( &req );
//  734     }
//  735   }
//  736   else
//  737 #endif // INTER_PAN
//  738   {
//  739     if (len > afDataReqMTU( &mtu ) )
??AF_DataRequest_22:
        ; Setup parameters for call to function afDataReqMTU
        MOV     R2,?XSP + 0
        MOV     R3,?XSP + 1
        LCALL   `??afDataReqMTU::?relay`; Banked call to: afDataReqMTU
        MOV     A,R1
        CLR     C
        SUBB    A,R6
        CLR     A
        SUBB    A,R7
        JNC     ??AF_DataRequest_23
//  740     {
//  741       if (apsfSendFragmented)
        MOV     DPTR,#apsfSendFragmented
        LCALL   ??Subroutine45_0 & 0xFFFF
??CrossCallReturnLabel_89:
        JZ      ??AF_DataRequest_24
//  742       {
//  743         stat = (*apsfSendFragmented)( &req );
        ; Setup parameters for indirect call
        MOV     A,#0x2
        LCALL   ?XSTACK_DISP101_8
        LCALL   ??Subroutine55_0 & 0xFFFF
//  744       }
??CrossCallReturnLabel_119:
        LCALL   ?CALL_IND
        SJMP    ??AF_DataRequest_25
//  745       else
//  746       {
//  747         stat = afStatus_INVALID_PARAMETER;
??AF_DataRequest_24:
        MOV     R6,#0x2
        SJMP    ??AF_DataRequest_26
//  748       }
//  749     }
//  750     else
//  751     {
//  752       stat = APSDE_DataReq( &req );
??AF_DataRequest_23:
        ; Setup parameters for call to function APSDE_DataReq
        MOV     A,#0x2
        LCALL   ?XSTACK_DISP101_8
        LCALL   `??APSDE_DataReq::?relay`; Banked call to: APSDE_DataReq
??AF_DataRequest_25:
        MOV     A,R1
        MOV     R6,A
//  753     }
//  754   }
//  755 
//  756   /*
//  757    * If this is an EndPoint-to-EndPoint message on the same device, it will not
//  758    * get added to the NWK databufs. So it will not go OTA and it will not get
//  759    * a MACCB_DATA_CONFIRM_CMD callback. Thus it is necessary to generate the
//  760    * AF_DATA_CONFIRM_CMD here. Note that APSDE_DataConfirm() only generates one
//  761    * message with the first in line TransSeqNumber, even on a multi message.
//  762    * Also note that a reflected msg will not have its confirmation generated
//  763    * here.
//  764    */
//  765   if ( (req.dstAddr.addrMode == Addr16Bit) &&
//  766        (req.dstAddr.addr.shortAddr == NLME_GetShortAddr()) )
??AF_DataRequest_26:
        MOV     A,#0xa
        LCALL   ?XSTACK_DISP0_8
        MOVX    A,@DPTR
        XRL     A,#0x2
        JNZ     ??AF_DataRequest_27
        ; Setup parameters for call to function NLME_GetShortAddr
        LCALL   `??NLME_GetShortAddr::?relay`; Banked call to: NLME_GetShortAddr
        MOV     ?V4,R2
        MOV     ?V5,R3
        MOV     R0,?V4
        MOV     R1,?V5
        MOV     A,#0x2
        LCALL   ?XSTACK_DISP0_8
        MOVX    A,@DPTR
        XRL     A,R0
        JNZ     ??AF_DataRequest_28
        INC     DPTR
        MOVX    A,@DPTR
        XRL     A,R1
??AF_DataRequest_28:
        JNZ     ??AF_DataRequest_27
//  767   {
//  768     afDataConfirm( srcEP->endPoint, *transID, stat );
        ; Setup parameters for call to function afDataConfirm
        MOV     A,R6
        MOV     R3,A
        MOV     DPL,?V6
        MOV     DPH,?V7
        MOVX    A,@DPTR
        MOV     R2,A
        MOV     DPL,?V0
        MOV     DPH,?V1
        MOVX    A,@DPTR
        MOV     R1,A
        LCALL   `??afDataConfirm::?relay`; Banked call to: afDataConfirm
//  769   }
//  770 
//  771   if ( stat == afStatus_SUCCESS )
??AF_DataRequest_27:
        MOV     A,R6
        JNZ     ??AF_DataRequest_29
//  772   {
//  773     (*transID)++;
        MOV     DPL,?V6
        MOV     DPH,?V7
        MOVX    A,@DPTR
        INC     A
        MOVX    @DPTR,A
//  774   }
//  775 
//  776   return (afStatus_t)stat;
??AF_DataRequest_29:
        MOV     A,R6
        MOV     R1,A
??AF_DataRequest_3:
        MOV     A,#0x1e
          CFI EndBlock cfiBlock141
        REQUIRE ?Subroutine3
        ; // Fall through to label ?Subroutine3
//  777 }

        RSEG BANKED_CODE:CODE:NOROOT(0)
?Subroutine3:
          CFI Block cfiBlock142 Using cfiCommon0
          CFI NoFunction
          CFI CFA_SP SP+0
          CFI CFA_XSP16 add(XSP16, 25)
          CFI VB load(1, XDATA, add(CFA_XSP16, literal(-15)))
          CFI DPL0 load(1, XDATA, add(CFA_XSP16, literal(-2)))
          CFI DPH0 load(1, XDATA, add(CFA_XSP16, literal(-1)))
          CFI R6 load(1, XDATA, add(CFA_XSP16, literal(-16)))
          CFI R7 load(1, XDATA, add(CFA_XSP16, literal(-6)))
          CFI V0 load(1, XDATA, add(CFA_XSP16, literal(-14)))
          CFI V1 load(1, XDATA, add(CFA_XSP16, literal(-13)))
          CFI V2 load(1, XDATA, add(CFA_XSP16, literal(-12)))
          CFI V3 load(1, XDATA, add(CFA_XSP16, literal(-11)))
          CFI V4 load(1, XDATA, add(CFA_XSP16, literal(-10)))
          CFI V5 load(1, XDATA, add(CFA_XSP16, literal(-9)))
          CFI V6 load(1, XDATA, add(CFA_XSP16, literal(-8)))
          CFI V7 load(1, XDATA, add(CFA_XSP16, literal(-7)))
          CFI ?BRET_EXT load(1, XDATA, add(CFA_XSP16, literal(-3)))
          CFI ?RET_HIGH load(1, XDATA, add(CFA_XSP16, literal(-4)))
          CFI ?RET_LOW load(1, XDATA, add(CFA_XSP16, literal(-5)))
          CFI Invalid
        LCALL   ?DEALLOC_XSTACK8
          CFI EndBlock cfiBlock142
        REQUIRE ??Subroutine46_0
        ; // Fall through to label ??Subroutine46_0

        RSEG BANKED_CODE:CODE:NOROOT(0)
??Subroutine46_0:
          CFI Block cfiBlock143 Using cfiCommon0
          CFI NoFunction
          CFI CFA_SP SP+0
          CFI CFA_XSP16 add(XSP16, 16)
          CFI VB load(1, XDATA, add(CFA_XSP16, literal(-15)))
          CFI DPL0 load(1, XDATA, add(CFA_XSP16, literal(-2)))
          CFI DPH0 load(1, XDATA, add(CFA_XSP16, literal(-1)))
          CFI R6 load(1, XDATA, add(CFA_XSP16, literal(-16)))
          CFI R7 load(1, XDATA, add(CFA_XSP16, literal(-6)))
          CFI V0 load(1, XDATA, add(CFA_XSP16, literal(-14)))
          CFI V1 load(1, XDATA, add(CFA_XSP16, literal(-13)))
          CFI V2 load(1, XDATA, add(CFA_XSP16, literal(-12)))
          CFI V3 load(1, XDATA, add(CFA_XSP16, literal(-11)))
          CFI V4 load(1, XDATA, add(CFA_XSP16, literal(-10)))
          CFI V5 load(1, XDATA, add(CFA_XSP16, literal(-9)))
          CFI V6 load(1, XDATA, add(CFA_XSP16, literal(-8)))
          CFI V7 load(1, XDATA, add(CFA_XSP16, literal(-7)))
          CFI ?BRET_EXT load(1, XDATA, add(CFA_XSP16, literal(-3)))
          CFI ?RET_HIGH load(1, XDATA, add(CFA_XSP16, literal(-4)))
          CFI ?RET_LOW load(1, XDATA, add(CFA_XSP16, literal(-5)))
        MOV     R7,#0x8
        LJMP    ?BANKED_LEAVE_XDATA
          CFI EndBlock cfiBlock143

        RSEG BANKED_CODE:CODE:NOROOT(0)
?Subroutine30:
          CFI Block cfiCond144 Using cfiCommon0
          CFI Function AF_DataRequest
          CFI Conditional ??CrossCallReturnLabel_43
          CFI R6 load(1, XDATA, add(CFA_XSP16, literal(-16)))
          CFI VB load(1, XDATA, add(CFA_XSP16, literal(-15)))
          CFI V0 load(1, XDATA, add(CFA_XSP16, literal(-14)))
          CFI V1 load(1, XDATA, add(CFA_XSP16, literal(-13)))
          CFI V2 load(1, XDATA, add(CFA_XSP16, literal(-12)))
          CFI V3 load(1, XDATA, add(CFA_XSP16, literal(-11)))
          CFI V4 load(1, XDATA, add(CFA_XSP16, literal(-10)))
          CFI V5 load(1, XDATA, add(CFA_XSP16, literal(-9)))
          CFI V6 load(1, XDATA, add(CFA_XSP16, literal(-8)))
          CFI V7 load(1, XDATA, add(CFA_XSP16, literal(-7)))
          CFI R7 load(1, XDATA, add(CFA_XSP16, literal(-6)))
          CFI ?RET_LOW load(1, XDATA, add(CFA_XSP16, literal(-5)))
          CFI ?RET_HIGH load(1, XDATA, add(CFA_XSP16, literal(-4)))
          CFI ?BRET_EXT load(1, XDATA, add(CFA_XSP16, literal(-3)))
          CFI DPL0 load(1, XDATA, add(CFA_XSP16, literal(-2)))
          CFI DPH0 load(1, XDATA, add(CFA_XSP16, literal(-1)))
          CFI CFA_SP SP+-2
          CFI CFA_XSP16 add(XSP16, 46)
          CFI Block cfiCond145 Using cfiCommon0
          CFI (cfiCond145) Function AF_DataRequest
          CFI (cfiCond145) Conditional ??CrossCallReturnLabel_44
          CFI (cfiCond145) R6 load(1, XDATA, add(CFA_XSP16, literal(-16)))
          CFI (cfiCond145) VB load(1, XDATA, add(CFA_XSP16, literal(-15)))
          CFI (cfiCond145) V0 load(1, XDATA, add(CFA_XSP16, literal(-14)))
          CFI (cfiCond145) V1 load(1, XDATA, add(CFA_XSP16, literal(-13)))
          CFI (cfiCond145) V2 load(1, XDATA, add(CFA_XSP16, literal(-12)))
          CFI (cfiCond145) V3 load(1, XDATA, add(CFA_XSP16, literal(-11)))
          CFI (cfiCond145) V4 load(1, XDATA, add(CFA_XSP16, literal(-10)))
          CFI (cfiCond145) V5 load(1, XDATA, add(CFA_XSP16, literal(-9)))
          CFI (cfiCond145) V6 load(1, XDATA, add(CFA_XSP16, literal(-8)))
          CFI (cfiCond145) V7 load(1, XDATA, add(CFA_XSP16, literal(-7)))
          CFI (cfiCond145) R7 load(1, XDATA, add(CFA_XSP16, literal(-6)))
          CFI (cfiCond145) ?RET_LOW load(1, XDATA, add(CFA_XSP16, literal(-5)))
          CFI (cfiCond145) ?RET_HIGH load(1, XDATA, add(CFA_XSP16, literal(-4)))
          CFI (cfiCond145) ?BRET_EXT load(1, XDATA, add(CFA_XSP16, literal(-3)))
          CFI (cfiCond145) DPL0 load(1, XDATA, add(CFA_XSP16, literal(-2)))
          CFI (cfiCond145) DPH0 load(1, XDATA, add(CFA_XSP16, literal(-1)))
          CFI (cfiCond145) CFA_SP SP+-2
          CFI (cfiCond145) CFA_XSP16 add(XSP16, 46)
          CFI Block cfiPicker146 Using cfiCommon1
          CFI (cfiPicker146) NoFunction
          CFI (cfiPicker146) Picker
        LCALL   ?Subroutine34 & 0xFFFF
??CrossCallReturnLabel_53:
        MOVX    A,@DPTR
        RET
          CFI EndBlock cfiCond144
          CFI EndBlock cfiCond145
          CFI EndBlock cfiPicker146

        RSEG BANKED_CODE:CODE:NOROOT(0)
?Subroutine21:
          CFI Block cfiCond147 Using cfiCommon0
          CFI Function afIncomingData
          CFI Conditional ??CrossCallReturnLabel_96
          CFI R6 load(1, XDATA, add(CFA_XSP16, literal(-16)))
          CFI VB load(1, XDATA, add(CFA_XSP16, literal(-15)))
          CFI V0 load(1, XDATA, add(CFA_XSP16, literal(-14)))
          CFI V1 load(1, XDATA, add(CFA_XSP16, literal(-13)))
          CFI V2 load(1, XDATA, add(CFA_XSP16, literal(-12)))
          CFI V3 load(1, XDATA, add(CFA_XSP16, literal(-11)))
          CFI V4 load(1, XDATA, add(CFA_XSP16, literal(-10)))
          CFI V5 load(1, XDATA, add(CFA_XSP16, literal(-9)))
          CFI V6 load(1, XDATA, add(CFA_XSP16, literal(-8)))
          CFI V7 load(1, XDATA, add(CFA_XSP16, literal(-7)))
          CFI R7 load(1, XDATA, add(CFA_XSP16, literal(-6)))
          CFI ?RET_LOW load(1, XDATA, add(CFA_XSP16, literal(-5)))
          CFI ?RET_HIGH load(1, XDATA, add(CFA_XSP16, literal(-4)))
          CFI ?BRET_EXT load(1, XDATA, add(CFA_XSP16, literal(-3)))
          CFI DPL0 load(1, XDATA, add(CFA_XSP16, literal(-2)))
          CFI DPH0 load(1, XDATA, add(CFA_XSP16, literal(-1)))
          CFI CFA_SP SP+-2
          CFI CFA_XSP16 add(XSP16, 25)
          CFI Block cfiCond148 Using cfiCommon0
          CFI (cfiCond148) Function AF_DataRequest
          CFI (cfiCond148) Conditional ??CrossCallReturnLabel_97
          CFI (cfiCond148) R6 load(1, XDATA, add(CFA_XSP16, literal(-16)))
          CFI (cfiCond148) VB load(1, XDATA, add(CFA_XSP16, literal(-15)))
          CFI (cfiCond148) V0 load(1, XDATA, add(CFA_XSP16, literal(-14)))
          CFI (cfiCond148) V1 load(1, XDATA, add(CFA_XSP16, literal(-13)))
          CFI (cfiCond148) V2 load(1, XDATA, add(CFA_XSP16, literal(-12)))
          CFI (cfiCond148) V3 load(1, XDATA, add(CFA_XSP16, literal(-11)))
          CFI (cfiCond148) V4 load(1, XDATA, add(CFA_XSP16, literal(-10)))
          CFI (cfiCond148) V5 load(1, XDATA, add(CFA_XSP16, literal(-9)))
          CFI (cfiCond148) V6 load(1, XDATA, add(CFA_XSP16, literal(-8)))
          CFI (cfiCond148) V7 load(1, XDATA, add(CFA_XSP16, literal(-7)))
          CFI (cfiCond148) R7 load(1, XDATA, add(CFA_XSP16, literal(-6)))
          CFI (cfiCond148) ?RET_LOW load(1, XDATA, add(CFA_XSP16, literal(-5)))
          CFI (cfiCond148) ?RET_HIGH load(1, XDATA, add(CFA_XSP16, literal(-4)))
          CFI (cfiCond148) ?BRET_EXT load(1, XDATA, add(CFA_XSP16, literal(-3)))
          CFI (cfiCond148) DPL0 load(1, XDATA, add(CFA_XSP16, literal(-2)))
          CFI (cfiCond148) DPH0 load(1, XDATA, add(CFA_XSP16, literal(-1)))
          CFI (cfiCond148) CFA_SP SP+-2
          CFI (cfiCond148) CFA_XSP16 add(XSP16, 46)
          CFI Block cfiPicker149 Using cfiCommon1
          CFI (cfiPicker149) NoFunction
          CFI (cfiPicker149) Picker
        INC     DPTR
        INC     DPTR
        INC     DPTR
          CFI EndBlock cfiCond147
          CFI EndBlock cfiCond148
          CFI EndBlock cfiPicker149
        REQUIRE ??Subroutine47_0
        ; // Fall through to label ??Subroutine47_0

        RSEG BANKED_CODE:CODE:NOROOT(0)
??Subroutine47_0:
          CFI Block cfiCond150 Using cfiCommon0
          CFI Function afIncomingData
          CFI Conditional ??CrossCallReturnLabel_93
          CFI R6 load(1, XDATA, add(CFA_XSP16, literal(-16)))
          CFI VB load(1, XDATA, add(CFA_XSP16, literal(-15)))
          CFI V0 load(1, XDATA, add(CFA_XSP16, literal(-14)))
          CFI V1 load(1, XDATA, add(CFA_XSP16, literal(-13)))
          CFI V2 load(1, XDATA, add(CFA_XSP16, literal(-12)))
          CFI V3 load(1, XDATA, add(CFA_XSP16, literal(-11)))
          CFI V4 load(1, XDATA, add(CFA_XSP16, literal(-10)))
          CFI V5 load(1, XDATA, add(CFA_XSP16, literal(-9)))
          CFI V6 load(1, XDATA, add(CFA_XSP16, literal(-8)))
          CFI V7 load(1, XDATA, add(CFA_XSP16, literal(-7)))
          CFI R7 load(1, XDATA, add(CFA_XSP16, literal(-6)))
          CFI ?RET_LOW load(1, XDATA, add(CFA_XSP16, literal(-5)))
          CFI ?RET_HIGH load(1, XDATA, add(CFA_XSP16, literal(-4)))
          CFI ?BRET_EXT load(1, XDATA, add(CFA_XSP16, literal(-3)))
          CFI DPL0 load(1, XDATA, add(CFA_XSP16, literal(-2)))
          CFI DPH0 load(1, XDATA, add(CFA_XSP16, literal(-1)))
          CFI CFA_SP SP+-2
          CFI CFA_XSP16 add(XSP16, 25)
          CFI Block cfiCond151 Using cfiCommon0
          CFI (cfiCond151) Function afIncomingData
          CFI (cfiCond151) Conditional ??CrossCallReturnLabel_94
          CFI (cfiCond151) R6 load(1, XDATA, add(CFA_XSP16, literal(-16)))
          CFI (cfiCond151) VB load(1, XDATA, add(CFA_XSP16, literal(-15)))
          CFI (cfiCond151) V0 load(1, XDATA, add(CFA_XSP16, literal(-14)))
          CFI (cfiCond151) V1 load(1, XDATA, add(CFA_XSP16, literal(-13)))
          CFI (cfiCond151) V2 load(1, XDATA, add(CFA_XSP16, literal(-12)))
          CFI (cfiCond151) V3 load(1, XDATA, add(CFA_XSP16, literal(-11)))
          CFI (cfiCond151) V4 load(1, XDATA, add(CFA_XSP16, literal(-10)))
          CFI (cfiCond151) V5 load(1, XDATA, add(CFA_XSP16, literal(-9)))
          CFI (cfiCond151) V6 load(1, XDATA, add(CFA_XSP16, literal(-8)))
          CFI (cfiCond151) V7 load(1, XDATA, add(CFA_XSP16, literal(-7)))
          CFI (cfiCond151) R7 load(1, XDATA, add(CFA_XSP16, literal(-6)))
          CFI (cfiCond151) ?RET_LOW load(1, XDATA, add(CFA_XSP16, literal(-5)))
          CFI (cfiCond151) ?RET_HIGH load(1, XDATA, add(CFA_XSP16, literal(-4)))
          CFI (cfiCond151) ?BRET_EXT load(1, XDATA, add(CFA_XSP16, literal(-3)))
          CFI (cfiCond151) DPL0 load(1, XDATA, add(CFA_XSP16, literal(-2)))
          CFI (cfiCond151) DPH0 load(1, XDATA, add(CFA_XSP16, literal(-1)))
          CFI (cfiCond151) CFA_SP SP+-2
          CFI (cfiCond151) CFA_XSP16 add(XSP16, 25)
          CFI Block cfiCond152 Using cfiCommon0
          CFI (cfiCond152) Function afIncomingData
          CFI (cfiCond152) Conditional ??CrossCallReturnLabel_95
          CFI (cfiCond152) R6 load(1, XDATA, add(CFA_XSP16, literal(-16)))
          CFI (cfiCond152) VB load(1, XDATA, add(CFA_XSP16, literal(-15)))
          CFI (cfiCond152) V0 load(1, XDATA, add(CFA_XSP16, literal(-14)))
          CFI (cfiCond152) V1 load(1, XDATA, add(CFA_XSP16, literal(-13)))
          CFI (cfiCond152) V2 load(1, XDATA, add(CFA_XSP16, literal(-12)))
          CFI (cfiCond152) V3 load(1, XDATA, add(CFA_XSP16, literal(-11)))
          CFI (cfiCond152) V4 load(1, XDATA, add(CFA_XSP16, literal(-10)))
          CFI (cfiCond152) V5 load(1, XDATA, add(CFA_XSP16, literal(-9)))
          CFI (cfiCond152) V6 load(1, XDATA, add(CFA_XSP16, literal(-8)))
          CFI (cfiCond152) V7 load(1, XDATA, add(CFA_XSP16, literal(-7)))
          CFI (cfiCond152) R7 load(1, XDATA, add(CFA_XSP16, literal(-6)))
          CFI (cfiCond152) ?RET_LOW load(1, XDATA, add(CFA_XSP16, literal(-5)))
          CFI (cfiCond152) ?RET_HIGH load(1, XDATA, add(CFA_XSP16, literal(-4)))
          CFI (cfiCond152) ?BRET_EXT load(1, XDATA, add(CFA_XSP16, literal(-3)))
          CFI (cfiCond152) DPL0 load(1, XDATA, add(CFA_XSP16, literal(-2)))
          CFI (cfiCond152) DPH0 load(1, XDATA, add(CFA_XSP16, literal(-1)))
          CFI (cfiCond152) CFA_SP SP+-2
          CFI (cfiCond152) CFA_XSP16 add(XSP16, 25)
          CFI Block cfiCond153 Using cfiCommon0
          CFI (cfiCond153) Function afIncomingData
          CFI (cfiCond153) Conditional ??CrossCallReturnLabel_96
          CFI (cfiCond153) R6 load(1, XDATA, add(CFA_XSP16, literal(-16)))
          CFI (cfiCond153) VB load(1, XDATA, add(CFA_XSP16, literal(-15)))
          CFI (cfiCond153) V0 load(1, XDATA, add(CFA_XSP16, literal(-14)))
          CFI (cfiCond153) V1 load(1, XDATA, add(CFA_XSP16, literal(-13)))
          CFI (cfiCond153) V2 load(1, XDATA, add(CFA_XSP16, literal(-12)))
          CFI (cfiCond153) V3 load(1, XDATA, add(CFA_XSP16, literal(-11)))
          CFI (cfiCond153) V4 load(1, XDATA, add(CFA_XSP16, literal(-10)))
          CFI (cfiCond153) V5 load(1, XDATA, add(CFA_XSP16, literal(-9)))
          CFI (cfiCond153) V6 load(1, XDATA, add(CFA_XSP16, literal(-8)))
          CFI (cfiCond153) V7 load(1, XDATA, add(CFA_XSP16, literal(-7)))
          CFI (cfiCond153) R7 load(1, XDATA, add(CFA_XSP16, literal(-6)))
          CFI (cfiCond153) ?RET_LOW load(1, XDATA, add(CFA_XSP16, literal(-5)))
          CFI (cfiCond153) ?RET_HIGH load(1, XDATA, add(CFA_XSP16, literal(-4)))
          CFI (cfiCond153) ?BRET_EXT load(1, XDATA, add(CFA_XSP16, literal(-3)))
          CFI (cfiCond153) DPL0 load(1, XDATA, add(CFA_XSP16, literal(-2)))
          CFI (cfiCond153) DPH0 load(1, XDATA, add(CFA_XSP16, literal(-1)))
          CFI (cfiCond153) CFA_SP SP+-2
          CFI (cfiCond153) CFA_XSP16 add(XSP16, 25)
          CFI Block cfiCond154 Using cfiCommon0
          CFI (cfiCond154) Function AF_DataRequest
          CFI (cfiCond154) Conditional ??CrossCallReturnLabel_97
          CFI (cfiCond154) R6 load(1, XDATA, add(CFA_XSP16, literal(-16)))
          CFI (cfiCond154) VB load(1, XDATA, add(CFA_XSP16, literal(-15)))
          CFI (cfiCond154) V0 load(1, XDATA, add(CFA_XSP16, literal(-14)))
          CFI (cfiCond154) V1 load(1, XDATA, add(CFA_XSP16, literal(-13)))
          CFI (cfiCond154) V2 load(1, XDATA, add(CFA_XSP16, literal(-12)))
          CFI (cfiCond154) V3 load(1, XDATA, add(CFA_XSP16, literal(-11)))
          CFI (cfiCond154) V4 load(1, XDATA, add(CFA_XSP16, literal(-10)))
          CFI (cfiCond154) V5 load(1, XDATA, add(CFA_XSP16, literal(-9)))
          CFI (cfiCond154) V6 load(1, XDATA, add(CFA_XSP16, literal(-8)))
          CFI (cfiCond154) V7 load(1, XDATA, add(CFA_XSP16, literal(-7)))
          CFI (cfiCond154) R7 load(1, XDATA, add(CFA_XSP16, literal(-6)))
          CFI (cfiCond154) ?RET_LOW load(1, XDATA, add(CFA_XSP16, literal(-5)))
          CFI (cfiCond154) ?RET_HIGH load(1, XDATA, add(CFA_XSP16, literal(-4)))
          CFI (cfiCond154) ?BRET_EXT load(1, XDATA, add(CFA_XSP16, literal(-3)))
          CFI (cfiCond154) DPL0 load(1, XDATA, add(CFA_XSP16, literal(-2)))
          CFI (cfiCond154) DPH0 load(1, XDATA, add(CFA_XSP16, literal(-1)))
          CFI (cfiCond154) CFA_SP SP+-2
          CFI (cfiCond154) CFA_XSP16 add(XSP16, 46)
          CFI Block cfiPicker155 Using cfiCommon1
          CFI (cfiPicker155) NoFunction
          CFI (cfiPicker155) Picker
        LCALL   ?Subroutine41 & 0xFFFF
??CrossCallReturnLabel_121:
        INC     DPTR
        RET
          CFI EndBlock cfiCond150
          CFI EndBlock cfiCond151
          CFI EndBlock cfiCond152
          CFI EndBlock cfiCond153
          CFI EndBlock cfiCond154
          CFI EndBlock cfiPicker155

        RSEG BANKED_CODE:CODE:NOROOT(0)
?Subroutine7:
          CFI Block cfiCond156 Using cfiCommon0
          CFI Function AF_DataRequest
          CFI Conditional ??CrossCallReturnLabel_100
          CFI R6 load(1, XDATA, add(CFA_XSP16, literal(-16)))
          CFI VB load(1, XDATA, add(CFA_XSP16, literal(-15)))
          CFI V0 load(1, XDATA, add(CFA_XSP16, literal(-14)))
          CFI V1 load(1, XDATA, add(CFA_XSP16, literal(-13)))
          CFI V2 load(1, XDATA, add(CFA_XSP16, literal(-12)))
          CFI V3 load(1, XDATA, add(CFA_XSP16, literal(-11)))
          CFI V4 load(1, XDATA, add(CFA_XSP16, literal(-10)))
          CFI V5 load(1, XDATA, add(CFA_XSP16, literal(-9)))
          CFI V6 load(1, XDATA, add(CFA_XSP16, literal(-8)))
          CFI V7 load(1, XDATA, add(CFA_XSP16, literal(-7)))
          CFI R7 load(1, XDATA, add(CFA_XSP16, literal(-6)))
          CFI ?RET_LOW load(1, XDATA, add(CFA_XSP16, literal(-5)))
          CFI ?RET_HIGH load(1, XDATA, add(CFA_XSP16, literal(-4)))
          CFI ?BRET_EXT load(1, XDATA, add(CFA_XSP16, literal(-3)))
          CFI DPL0 load(1, XDATA, add(CFA_XSP16, literal(-2)))
          CFI DPH0 load(1, XDATA, add(CFA_XSP16, literal(-1)))
          CFI CFA_SP SP+-2
          CFI CFA_XSP16 add(XSP16, 46)
          CFI Block cfiCond157 Using cfiCommon0
          CFI (cfiCond157) Function afFindSimpleDesc
          CFI (cfiCond157) Conditional ??CrossCallReturnLabel_101
          CFI (cfiCond157) R6 load(1, XDATA, add(CFA_XSP16, literal(-12)))
          CFI (cfiCond157) VB load(1, XDATA, add(CFA_XSP16, literal(-11)))
          CFI (cfiCond157) V0 load(1, XDATA, add(CFA_XSP16, literal(-10)))
          CFI (cfiCond157) V1 load(1, XDATA, add(CFA_XSP16, literal(-9)))
          CFI (cfiCond157) V2 load(1, XDATA, add(CFA_XSP16, literal(-8)))
          CFI (cfiCond157) V3 load(1, XDATA, add(CFA_XSP16, literal(-7)))
          CFI (cfiCond157) R7 load(1, XDATA, add(CFA_XSP16, literal(-6)))
          CFI (cfiCond157) ?RET_LOW load(1, XDATA, add(CFA_XSP16, literal(-5)))
          CFI (cfiCond157) ?RET_HIGH load(1, XDATA, add(CFA_XSP16, literal(-4)))
          CFI (cfiCond157) ?BRET_EXT load(1, XDATA, add(CFA_XSP16, literal(-3)))
          CFI (cfiCond157) DPL0 load(1, XDATA, add(CFA_XSP16, literal(-2)))
          CFI (cfiCond157) DPH0 load(1, XDATA, add(CFA_XSP16, literal(-1)))
          CFI (cfiCond157) CFA_SP SP+-2
          CFI (cfiCond157) CFA_XSP16 add(XSP16, 12)
          CFI Block cfiPicker158 Using cfiCommon1
          CFI (cfiPicker158) NoFunction
          CFI (cfiPicker158) Picker
        INC     DPTR
        INC     DPTR
        INC     DPTR
        INC     DPTR
          CFI EndBlock cfiCond156
          CFI EndBlock cfiCond157
          CFI EndBlock cfiPicker158
        REQUIRE ??Subroutine48_0
        ; // Fall through to label ??Subroutine48_0

        RSEG BANKED_CODE:CODE:NOROOT(0)
??Subroutine48_0:
          CFI Block cfiCond159 Using cfiCommon0
          CFI Function afDelete
          CFI Conditional ??CrossCallReturnLabel_98
          CFI R6 load(1, XDATA, add(CFA_XSP16, literal(-9)))
          CFI VB load(1, XDATA, add(CFA_XSP16, literal(-8)))
          CFI V0 load(1, XDATA, add(CFA_XSP16, literal(-7)))
          CFI R7 load(1, XDATA, add(CFA_XSP16, literal(-6)))
          CFI ?RET_LOW load(1, XDATA, add(CFA_XSP16, literal(-5)))
          CFI ?RET_HIGH load(1, XDATA, add(CFA_XSP16, literal(-4)))
          CFI ?BRET_EXT load(1, XDATA, add(CFA_XSP16, literal(-3)))
          CFI DPL0 load(1, XDATA, add(CFA_XSP16, literal(-2)))
          CFI DPH0 load(1, XDATA, add(CFA_XSP16, literal(-1)))
          CFI CFA_SP SP+-2
          CFI CFA_XSP16 add(XSP16, 9)
          CFI Block cfiCond160 Using cfiCommon0
          CFI (cfiCond160) Function afFindEndPointDescList
          CFI (cfiCond160) Conditional ??CrossCallReturnLabel_99
          CFI (cfiCond160) DPL0 Frame(CFA_SP, 4)
          CFI (cfiCond160) DPH0 Frame(CFA_SP, 5)
          CFI (cfiCond160) CFA_SP SP+-7
          CFI Block cfiCond161 Using cfiCommon0
          CFI (cfiCond161) Function AF_DataRequest
          CFI (cfiCond161) Conditional ??CrossCallReturnLabel_100
          CFI (cfiCond161) R6 load(1, XDATA, add(CFA_XSP16, literal(-16)))
          CFI (cfiCond161) VB load(1, XDATA, add(CFA_XSP16, literal(-15)))
          CFI (cfiCond161) V0 load(1, XDATA, add(CFA_XSP16, literal(-14)))
          CFI (cfiCond161) V1 load(1, XDATA, add(CFA_XSP16, literal(-13)))
          CFI (cfiCond161) V2 load(1, XDATA, add(CFA_XSP16, literal(-12)))
          CFI (cfiCond161) V3 load(1, XDATA, add(CFA_XSP16, literal(-11)))
          CFI (cfiCond161) V4 load(1, XDATA, add(CFA_XSP16, literal(-10)))
          CFI (cfiCond161) V5 load(1, XDATA, add(CFA_XSP16, literal(-9)))
          CFI (cfiCond161) V6 load(1, XDATA, add(CFA_XSP16, literal(-8)))
          CFI (cfiCond161) V7 load(1, XDATA, add(CFA_XSP16, literal(-7)))
          CFI (cfiCond161) R7 load(1, XDATA, add(CFA_XSP16, literal(-6)))
          CFI (cfiCond161) ?RET_LOW load(1, XDATA, add(CFA_XSP16, literal(-5)))
          CFI (cfiCond161) ?RET_HIGH load(1, XDATA, add(CFA_XSP16, literal(-4)))
          CFI (cfiCond161) ?BRET_EXT load(1, XDATA, add(CFA_XSP16, literal(-3)))
          CFI (cfiCond161) DPL0 load(1, XDATA, add(CFA_XSP16, literal(-2)))
          CFI (cfiCond161) DPH0 load(1, XDATA, add(CFA_XSP16, literal(-1)))
          CFI (cfiCond161) CFA_SP SP+-2
          CFI (cfiCond161) CFA_XSP16 add(XSP16, 46)
          CFI Block cfiCond162 Using cfiCommon0
          CFI (cfiCond162) Function afFindSimpleDesc
          CFI (cfiCond162) Conditional ??CrossCallReturnLabel_101
          CFI (cfiCond162) R6 load(1, XDATA, add(CFA_XSP16, literal(-12)))
          CFI (cfiCond162) VB load(1, XDATA, add(CFA_XSP16, literal(-11)))
          CFI (cfiCond162) V0 load(1, XDATA, add(CFA_XSP16, literal(-10)))
          CFI (cfiCond162) V1 load(1, XDATA, add(CFA_XSP16, literal(-9)))
          CFI (cfiCond162) V2 load(1, XDATA, add(CFA_XSP16, literal(-8)))
          CFI (cfiCond162) V3 load(1, XDATA, add(CFA_XSP16, literal(-7)))
          CFI (cfiCond162) R7 load(1, XDATA, add(CFA_XSP16, literal(-6)))
          CFI (cfiCond162) ?RET_LOW load(1, XDATA, add(CFA_XSP16, literal(-5)))
          CFI (cfiCond162) ?RET_HIGH load(1, XDATA, add(CFA_XSP16, literal(-4)))
          CFI (cfiCond162) ?BRET_EXT load(1, XDATA, add(CFA_XSP16, literal(-3)))
          CFI (cfiCond162) DPL0 load(1, XDATA, add(CFA_XSP16, literal(-2)))
          CFI (cfiCond162) DPH0 load(1, XDATA, add(CFA_XSP16, literal(-1)))
          CFI (cfiCond162) CFA_SP SP+-2
          CFI (cfiCond162) CFA_XSP16 add(XSP16, 12)
          CFI Block cfiPicker163 Using cfiCommon1
          CFI (cfiPicker163) NoFunction
          CFI (cfiPicker163) Picker
        MOVX    A,@DPTR
        MOV     R2,A
        INC     DPTR
        MOVX    A,@DPTR
        MOV     R3,A
        MOV     A,R2
        ORL     A,R3
        RET
          CFI EndBlock cfiCond159
          CFI EndBlock cfiCond160
          CFI EndBlock cfiCond161
          CFI EndBlock cfiCond162
          CFI EndBlock cfiPicker163
//  778 
//  779 #if defined ( ZIGBEE_SOURCE_ROUTING )
//  780 /*********************************************************************
//  781  * @fn      AF_DataRequestSrcRtg
//  782  *
//  783  * @brief   Common functionality for invoking APSDE_DataReq() for both
//  784  *          SendMulti and MSG-Send.
//  785  *
//  786  * input parameters
//  787  *
//  788  * @param  *dstAddr - Full ZB destination address: Nwk Addr + End Point.
//  789  * @param  *srcEP - Origination (i.e. respond to or ack to) End Point Descr.
//  790  * @param   cID - A valid cluster ID as specified by the Profile.
//  791  * @param   len - Number of bytes of data pointed to by next param.
//  792  * @param  *buf - A pointer to the data bytes to send.
//  793  * @param  *transID - A pointer to a byte which can be modified and which will
//  794  *                    be used as the transaction sequence number of the msg.
//  795  * @param   options - Valid bit mask of Tx options.
//  796  * @param   radius - Normally set to AF_DEFAULT_RADIUS.
//  797  * @param   relayCnt - Number of devices in the relay list
//  798  * @param   pRelayList - Pointer to the relay list
//  799  *
//  800  * output parameters
//  801  *
//  802  * @param  *transID - Incremented by one if the return value is success.
//  803  *
//  804  * @return  afStatus_t - See previous definition of afStatus_... types.
//  805  */
//  806 

        RSEG BANKED_CODE:CODE:NOROOT(0)
//  807 afStatus_t AF_DataRequestSrcRtg( afAddrType_t *dstAddr, endPointDesc_t *srcEP,
AF_DataRequestSrcRtg:
          CFI Block cfiBlock164 Using cfiCommon0
          CFI Function AF_DataRequestSrcRtg
        CODE
//  808                            uint16 cID, uint16 len, uint8 *buf, uint8 *transID,
//  809                            uint8 options, uint8 radius, uint8 relayCnt, uint16* pRelayList )
//  810 {
        FUNCALL AF_DataRequestSrcRtg, RTG_AddSrcRtgEntry_Guaranteed
        LOCFRAME ISTACK, 0, STACK
        LOCFRAME PSTACK, 0, STACK
        LOCFRAME XSTACK, 12, STACK
        LOCFRAME IOVERLAY, 0, STATIC
        LOCFRAME DOVERLAY, 0, STATIC
        ARGFRAME ISTACK, 0, STACK
        ARGFRAME PSTACK, 0, STACK
        ARGFRAME XSTACK, 12, STACK
        ARGFRAME IOVERLAY, 0, STATIC
        ARGFRAME DOVERLAY, 0, STATIC
        FUNCALL AF_DataRequestSrcRtg, AF_DataRequest
        LOCFRAME ISTACK, 0, STACK
        LOCFRAME PSTACK, 0, STACK
        LOCFRAME XSTACK, 21, STACK
        LOCFRAME IOVERLAY, 0, STATIC
        LOCFRAME DOVERLAY, 0, STATIC
        ARGFRAME ISTACK, 0, STACK
        ARGFRAME PSTACK, 0, STACK
        ARGFRAME XSTACK, 21, STACK
        ARGFRAME IOVERLAY, 0, STATIC
        ARGFRAME DOVERLAY, 0, STATIC
        REQUIRE ?V0
        REQUIRE ?V1
        REQUIRE ?V2
        REQUIRE ?V3
        MOV     A,#-0xc
        LCALL   ?BANKED_ENTER_XDATA
          CFI DPH0 load(1, XDATA, add(CFA_XSP16, literal(-1)))
          CFI DPL0 load(1, XDATA, add(CFA_XSP16, literal(-2)))
          CFI ?BRET_EXT load(1, XDATA, add(CFA_XSP16, literal(-3)))
          CFI ?RET_HIGH load(1, XDATA, add(CFA_XSP16, literal(-4)))
          CFI ?RET_LOW load(1, XDATA, add(CFA_XSP16, literal(-5)))
          CFI R7 load(1, XDATA, add(CFA_XSP16, literal(-6)))
          CFI V3 load(1, XDATA, add(CFA_XSP16, literal(-7)))
          CFI V2 load(1, XDATA, add(CFA_XSP16, literal(-8)))
          CFI V1 load(1, XDATA, add(CFA_XSP16, literal(-9)))
          CFI V0 load(1, XDATA, add(CFA_XSP16, literal(-10)))
          CFI VB load(1, XDATA, add(CFA_XSP16, literal(-11)))
          CFI R6 load(1, XDATA, add(CFA_XSP16, literal(-12)))
          CFI CFA_SP SP+0
          CFI CFA_XSP16 add(XSP16, 12)
        ; Saved register size: 12
        ; Auto size: 0
        MOV     A,R2
        MOV     R6,A
        MOV     A,R3
        MOV     R7,A
        MOV     ?V2,R4
        MOV     ?V3,R5
        MOV     ?V0,R1
//  811   uint8 status;
//  812 
//  813   /* Add the source route to the source routing table */
//  814   status = RTG_AddSrcRtgEntry_Guaranteed( dstAddr->addr.shortAddr, relayCnt,
//  815                                          pRelayList );
        ; Setup parameters for call to function RTG_AddSrcRtgEntry_Guaranteed
        MOV     A,#0x16
        LCALL   ?XSTACK_DISP0_8
        LCALL   ?Subroutine19 & 0xFFFF
??CrossCallReturnLabel_24:
        MOV     A,#0x15
        LCALL   ?XSTACK_DISP0_8
        MOVX    A,@DPTR
        MOV     R1,A
        MOV     DPL,R6
        MOV     DPH,R7
        LCALL   ??Subroutine51_0 & 0xFFFF
??CrossCallReturnLabel_106:
        LCALL   `??RTG_AddSrcRtgEntry_Guaranteed::?relay`; Banked call to: RTG_AddSrcRtgEntry_Guaranteed
        MOV     A,R1
        MOV     R1,A
//  816 
//  817   if( status == RTG_SUCCESS)
        JNZ     ??AF_DataRequestSrcRtg_0
//  818   {
//  819     /* Call AF_DataRequest to send the data */
//  820     status = AF_DataRequest( dstAddr, srcEP, cID, len, buf, transID, options, radius );
        ; Setup parameters for call to function AF_DataRequest
        MOV     A,#0x14
        LCALL   ?XSTACK_DISP0_8
        MOVX    A,@DPTR
        MOV     ?V1,A
        MOV     R0,#?V1
        LCALL   ?PUSH_XSTACK_I_ONE
          CFI CFA_XSP16 add(XSP16, 13)
        MOV     A,#0x13
        LCALL   ?XSTACK_DISP0_8
        LCALL   ?PUSH_XSTACK8_X_TWO
          CFI CFA_XSP16 add(XSP16, 15)
        MOV     A,#0x13
        LCALL   ?XSTACK_DISP0_8
        LCALL   ?PUSH_XSTACK8_X_TWO
          CFI CFA_XSP16 add(XSP16, 17)
        MOV     A,#0x13
        LCALL   ?XSTACK_DISP0_8
        LCALL   ?PUSH_XSTACK8_X_TWO
          CFI CFA_XSP16 add(XSP16, 19)
        MOV     A,#0x13
        LCALL   ?XSTACK_DISP0_8
        LCALL   ?PUSH_XSTACK8_X_TWO
          CFI CFA_XSP16 add(XSP16, 21)
        MOV     R1,?V0
        MOV     R4,?V2
        MOV     R5,?V3
        MOV     A,R6
        MOV     R2,A
        MOV     A,R7
        MOV     R3,A
        LCALL   `??AF_DataRequest::?relay`; Banked call to: AF_DataRequest
        MOV     A,#0x9
        LCALL   ?DEALLOC_XSTACK8
          CFI CFA_XSP16 add(XSP16, 12)
        MOV     A,R1
        MOV     R1,A
        SJMP    ??AF_DataRequestSrcRtg_1
//  821   }
//  822   else if( status == RTG_INVALID_PATH )
??AF_DataRequestSrcRtg_0:
        MOV     A,#0x5
        XRL     A,R1
        JNZ     ??AF_DataRequestSrcRtg_2
//  823   {
//  824     /* The source route relay count is exceeding the network limit */
//  825     status = afStatus_INVALID_PARAMETER;
        MOV     R1,#0x2
        SJMP    ??AF_DataRequestSrcRtg_1
//  826   }
//  827   else
//  828   {
//  829     /* The guaranteed adding entry fails due to memory failure */
//  830     status = afStatus_MEM_FAIL;
??AF_DataRequestSrcRtg_2:
        MOV     R1,#0x10
//  831   }
//  832   return status;
??AF_DataRequestSrcRtg_1:
        LJMP    ?Subroutine0 & 0xFFFF
//  833 }
          CFI EndBlock cfiBlock164

        RSEG BANKED_CODE:CODE:NOROOT(0)
?Subroutine8:
          CFI Block cfiCond165 Using cfiCommon0
          CFI Function afIncomingData
          CFI Conditional ??CrossCallReturnLabel_111
          CFI R6 load(1, XDATA, add(CFA_XSP16, literal(-16)))
          CFI VB load(1, XDATA, add(CFA_XSP16, literal(-15)))
          CFI V0 load(1, XDATA, add(CFA_XSP16, literal(-14)))
          CFI V1 load(1, XDATA, add(CFA_XSP16, literal(-13)))
          CFI V2 load(1, XDATA, add(CFA_XSP16, literal(-12)))
          CFI V3 load(1, XDATA, add(CFA_XSP16, literal(-11)))
          CFI V4 load(1, XDATA, add(CFA_XSP16, literal(-10)))
          CFI V5 load(1, XDATA, add(CFA_XSP16, literal(-9)))
          CFI V6 load(1, XDATA, add(CFA_XSP16, literal(-8)))
          CFI V7 load(1, XDATA, add(CFA_XSP16, literal(-7)))
          CFI R7 load(1, XDATA, add(CFA_XSP16, literal(-6)))
          CFI ?RET_LOW load(1, XDATA, add(CFA_XSP16, literal(-5)))
          CFI ?RET_HIGH load(1, XDATA, add(CFA_XSP16, literal(-4)))
          CFI ?BRET_EXT load(1, XDATA, add(CFA_XSP16, literal(-3)))
          CFI DPL0 load(1, XDATA, add(CFA_XSP16, literal(-2)))
          CFI DPH0 load(1, XDATA, add(CFA_XSP16, literal(-1)))
          CFI CFA_SP SP+-2
          CFI CFA_XSP16 add(XSP16, 25)
          CFI Block cfiCond166 Using cfiCommon0
          CFI (cfiCond166) Function afIncomingData
          CFI (cfiCond166) Conditional ??CrossCallReturnLabel_112
          CFI (cfiCond166) R6 load(1, XDATA, add(CFA_XSP16, literal(-16)))
          CFI (cfiCond166) VB load(1, XDATA, add(CFA_XSP16, literal(-15)))
          CFI (cfiCond166) V0 load(1, XDATA, add(CFA_XSP16, literal(-14)))
          CFI (cfiCond166) V1 load(1, XDATA, add(CFA_XSP16, literal(-13)))
          CFI (cfiCond166) V2 load(1, XDATA, add(CFA_XSP16, literal(-12)))
          CFI (cfiCond166) V3 load(1, XDATA, add(CFA_XSP16, literal(-11)))
          CFI (cfiCond166) V4 load(1, XDATA, add(CFA_XSP16, literal(-10)))
          CFI (cfiCond166) V5 load(1, XDATA, add(CFA_XSP16, literal(-9)))
          CFI (cfiCond166) V6 load(1, XDATA, add(CFA_XSP16, literal(-8)))
          CFI (cfiCond166) V7 load(1, XDATA, add(CFA_XSP16, literal(-7)))
          CFI (cfiCond166) R7 load(1, XDATA, add(CFA_XSP16, literal(-6)))
          CFI (cfiCond166) ?RET_LOW load(1, XDATA, add(CFA_XSP16, literal(-5)))
          CFI (cfiCond166) ?RET_HIGH load(1, XDATA, add(CFA_XSP16, literal(-4)))
          CFI (cfiCond166) ?BRET_EXT load(1, XDATA, add(CFA_XSP16, literal(-3)))
          CFI (cfiCond166) DPL0 load(1, XDATA, add(CFA_XSP16, literal(-2)))
          CFI (cfiCond166) DPH0 load(1, XDATA, add(CFA_XSP16, literal(-1)))
          CFI (cfiCond166) CFA_SP SP+-2
          CFI (cfiCond166) CFA_XSP16 add(XSP16, 25)
          CFI Block cfiPicker167 Using cfiCommon1
          CFI (cfiPicker167) NoFunction
          CFI (cfiPicker167) Picker
        LCALL   ?Subroutine41 & 0xFFFF
??CrossCallReturnLabel_120:
        INC     DPTR
          CFI EndBlock cfiCond165
          CFI EndBlock cfiCond166
          CFI EndBlock cfiPicker167
        REQUIRE ??Subroutine49_0
        ; // Fall through to label ??Subroutine49_0

        RSEG BANKED_CODE:CODE:NOROOT(0)
??Subroutine49_0:
          CFI Block cfiCond168 Using cfiCommon0
          CFI Function afFindSimpleDesc
          CFI Conditional ??CrossCallReturnLabel_110
          CFI R6 load(1, XDATA, add(CFA_XSP16, literal(-12)))
          CFI VB load(1, XDATA, add(CFA_XSP16, literal(-11)))
          CFI V0 load(1, XDATA, add(CFA_XSP16, literal(-10)))
          CFI V1 load(1, XDATA, add(CFA_XSP16, literal(-9)))
          CFI V2 load(1, XDATA, add(CFA_XSP16, literal(-8)))
          CFI V3 load(1, XDATA, add(CFA_XSP16, literal(-7)))
          CFI R7 load(1, XDATA, add(CFA_XSP16, literal(-6)))
          CFI ?RET_LOW load(1, XDATA, add(CFA_XSP16, literal(-5)))
          CFI ?RET_HIGH load(1, XDATA, add(CFA_XSP16, literal(-4)))
          CFI ?BRET_EXT load(1, XDATA, add(CFA_XSP16, literal(-3)))
          CFI DPL0 load(1, XDATA, add(CFA_XSP16, literal(-2)))
          CFI DPH0 load(1, XDATA, add(CFA_XSP16, literal(-1)))
          CFI CFA_SP SP+-2
          CFI CFA_XSP16 add(XSP16, 12)
          CFI Block cfiCond169 Using cfiCommon0
          CFI (cfiCond169) Function afIncomingData
          CFI (cfiCond169) Conditional ??CrossCallReturnLabel_111
          CFI (cfiCond169) R6 load(1, XDATA, add(CFA_XSP16, literal(-16)))
          CFI (cfiCond169) VB load(1, XDATA, add(CFA_XSP16, literal(-15)))
          CFI (cfiCond169) V0 load(1, XDATA, add(CFA_XSP16, literal(-14)))
          CFI (cfiCond169) V1 load(1, XDATA, add(CFA_XSP16, literal(-13)))
          CFI (cfiCond169) V2 load(1, XDATA, add(CFA_XSP16, literal(-12)))
          CFI (cfiCond169) V3 load(1, XDATA, add(CFA_XSP16, literal(-11)))
          CFI (cfiCond169) V4 load(1, XDATA, add(CFA_XSP16, literal(-10)))
          CFI (cfiCond169) V5 load(1, XDATA, add(CFA_XSP16, literal(-9)))
          CFI (cfiCond169) V6 load(1, XDATA, add(CFA_XSP16, literal(-8)))
          CFI (cfiCond169) V7 load(1, XDATA, add(CFA_XSP16, literal(-7)))
          CFI (cfiCond169) R7 load(1, XDATA, add(CFA_XSP16, literal(-6)))
          CFI (cfiCond169) ?RET_LOW load(1, XDATA, add(CFA_XSP16, literal(-5)))
          CFI (cfiCond169) ?RET_HIGH load(1, XDATA, add(CFA_XSP16, literal(-4)))
          CFI (cfiCond169) ?BRET_EXT load(1, XDATA, add(CFA_XSP16, literal(-3)))
          CFI (cfiCond169) DPL0 load(1, XDATA, add(CFA_XSP16, literal(-2)))
          CFI (cfiCond169) DPH0 load(1, XDATA, add(CFA_XSP16, literal(-1)))
          CFI (cfiCond169) CFA_SP SP+-2
          CFI (cfiCond169) CFA_XSP16 add(XSP16, 25)
          CFI Block cfiCond170 Using cfiCommon0
          CFI (cfiCond170) Function afIncomingData
          CFI (cfiCond170) Conditional ??CrossCallReturnLabel_112
          CFI (cfiCond170) R6 load(1, XDATA, add(CFA_XSP16, literal(-16)))
          CFI (cfiCond170) VB load(1, XDATA, add(CFA_XSP16, literal(-15)))
          CFI (cfiCond170) V0 load(1, XDATA, add(CFA_XSP16, literal(-14)))
          CFI (cfiCond170) V1 load(1, XDATA, add(CFA_XSP16, literal(-13)))
          CFI (cfiCond170) V2 load(1, XDATA, add(CFA_XSP16, literal(-12)))
          CFI (cfiCond170) V3 load(1, XDATA, add(CFA_XSP16, literal(-11)))
          CFI (cfiCond170) V4 load(1, XDATA, add(CFA_XSP16, literal(-10)))
          CFI (cfiCond170) V5 load(1, XDATA, add(CFA_XSP16, literal(-9)))
          CFI (cfiCond170) V6 load(1, XDATA, add(CFA_XSP16, literal(-8)))
          CFI (cfiCond170) V7 load(1, XDATA, add(CFA_XSP16, literal(-7)))
          CFI (cfiCond170) R7 load(1, XDATA, add(CFA_XSP16, literal(-6)))
          CFI (cfiCond170) ?RET_LOW load(1, XDATA, add(CFA_XSP16, literal(-5)))
          CFI (cfiCond170) ?RET_HIGH load(1, XDATA, add(CFA_XSP16, literal(-4)))
          CFI (cfiCond170) ?BRET_EXT load(1, XDATA, add(CFA_XSP16, literal(-3)))
          CFI (cfiCond170) DPL0 load(1, XDATA, add(CFA_XSP16, literal(-2)))
          CFI (cfiCond170) DPH0 load(1, XDATA, add(CFA_XSP16, literal(-1)))
          CFI (cfiCond170) CFA_SP SP+-2
          CFI (cfiCond170) CFA_XSP16 add(XSP16, 25)
          CFI Block cfiPicker171 Using cfiCommon1
          CFI (cfiPicker171) NoFunction
          CFI (cfiPicker171) Picker
        INC     DPTR
          CFI EndBlock cfiCond168
          CFI EndBlock cfiCond169
          CFI EndBlock cfiCond170
          CFI EndBlock cfiPicker171
        REQUIRE ??Subroutine50_0
        ; // Fall through to label ??Subroutine50_0

        RSEG BANKED_CODE:CODE:NOROOT(0)
??Subroutine50_0:
          CFI Block cfiCond172 Using cfiCommon0
          CFI Function AF_DataRequest
          CFI Conditional ??CrossCallReturnLabel_108
          CFI R6 load(1, XDATA, add(CFA_XSP16, literal(-16)))
          CFI VB load(1, XDATA, add(CFA_XSP16, literal(-15)))
          CFI V0 load(1, XDATA, add(CFA_XSP16, literal(-14)))
          CFI V1 load(1, XDATA, add(CFA_XSP16, literal(-13)))
          CFI V2 load(1, XDATA, add(CFA_XSP16, literal(-12)))
          CFI V3 load(1, XDATA, add(CFA_XSP16, literal(-11)))
          CFI V4 load(1, XDATA, add(CFA_XSP16, literal(-10)))
          CFI V5 load(1, XDATA, add(CFA_XSP16, literal(-9)))
          CFI V6 load(1, XDATA, add(CFA_XSP16, literal(-8)))
          CFI V7 load(1, XDATA, add(CFA_XSP16, literal(-7)))
          CFI R7 load(1, XDATA, add(CFA_XSP16, literal(-6)))
          CFI ?RET_LOW load(1, XDATA, add(CFA_XSP16, literal(-5)))
          CFI ?RET_HIGH load(1, XDATA, add(CFA_XSP16, literal(-4)))
          CFI ?BRET_EXT load(1, XDATA, add(CFA_XSP16, literal(-3)))
          CFI DPL0 load(1, XDATA, add(CFA_XSP16, literal(-2)))
          CFI DPH0 load(1, XDATA, add(CFA_XSP16, literal(-1)))
          CFI CFA_SP SP+-2
          CFI CFA_XSP16 add(XSP16, 46)
          CFI Block cfiCond173 Using cfiCommon0
          CFI (cfiCond173) Function afFindEndPointDesc
          CFI (cfiCond173) Conditional ??CrossCallReturnLabel_109
          CFI (cfiCond173) R6 load(1, XDATA, add(CFA_XSP16, literal(-10)))
          CFI (cfiCond173) VB load(1, XDATA, add(CFA_XSP16, literal(-9)))
          CFI (cfiCond173) V0 load(1, XDATA, add(CFA_XSP16, literal(-8)))
          CFI (cfiCond173) V1 load(1, XDATA, add(CFA_XSP16, literal(-7)))
          CFI (cfiCond173) R7 load(1, XDATA, add(CFA_XSP16, literal(-6)))
          CFI (cfiCond173) ?RET_LOW load(1, XDATA, add(CFA_XSP16, literal(-5)))
          CFI (cfiCond173) ?RET_HIGH load(1, XDATA, add(CFA_XSP16, literal(-4)))
          CFI (cfiCond173) ?BRET_EXT load(1, XDATA, add(CFA_XSP16, literal(-3)))
          CFI (cfiCond173) DPL0 load(1, XDATA, add(CFA_XSP16, literal(-2)))
          CFI (cfiCond173) DPH0 load(1, XDATA, add(CFA_XSP16, literal(-1)))
          CFI (cfiCond173) CFA_SP SP+-2
          CFI (cfiCond173) CFA_XSP16 add(XSP16, 10)
          CFI Block cfiCond174 Using cfiCommon0
          CFI (cfiCond174) Function afFindSimpleDesc
          CFI (cfiCond174) Conditional ??CrossCallReturnLabel_110
          CFI (cfiCond174) R6 load(1, XDATA, add(CFA_XSP16, literal(-12)))
          CFI (cfiCond174) VB load(1, XDATA, add(CFA_XSP16, literal(-11)))
          CFI (cfiCond174) V0 load(1, XDATA, add(CFA_XSP16, literal(-10)))
          CFI (cfiCond174) V1 load(1, XDATA, add(CFA_XSP16, literal(-9)))
          CFI (cfiCond174) V2 load(1, XDATA, add(CFA_XSP16, literal(-8)))
          CFI (cfiCond174) V3 load(1, XDATA, add(CFA_XSP16, literal(-7)))
          CFI (cfiCond174) R7 load(1, XDATA, add(CFA_XSP16, literal(-6)))
          CFI (cfiCond174) ?RET_LOW load(1, XDATA, add(CFA_XSP16, literal(-5)))
          CFI (cfiCond174) ?RET_HIGH load(1, XDATA, add(CFA_XSP16, literal(-4)))
          CFI (cfiCond174) ?BRET_EXT load(1, XDATA, add(CFA_XSP16, literal(-3)))
          CFI (cfiCond174) DPL0 load(1, XDATA, add(CFA_XSP16, literal(-2)))
          CFI (cfiCond174) DPH0 load(1, XDATA, add(CFA_XSP16, literal(-1)))
          CFI (cfiCond174) CFA_SP SP+-2
          CFI (cfiCond174) CFA_XSP16 add(XSP16, 12)
          CFI Block cfiCond175 Using cfiCommon0
          CFI (cfiCond175) Function afIncomingData
          CFI (cfiCond175) Conditional ??CrossCallReturnLabel_111
          CFI (cfiCond175) R6 load(1, XDATA, add(CFA_XSP16, literal(-16)))
          CFI (cfiCond175) VB load(1, XDATA, add(CFA_XSP16, literal(-15)))
          CFI (cfiCond175) V0 load(1, XDATA, add(CFA_XSP16, literal(-14)))
          CFI (cfiCond175) V1 load(1, XDATA, add(CFA_XSP16, literal(-13)))
          CFI (cfiCond175) V2 load(1, XDATA, add(CFA_XSP16, literal(-12)))
          CFI (cfiCond175) V3 load(1, XDATA, add(CFA_XSP16, literal(-11)))
          CFI (cfiCond175) V4 load(1, XDATA, add(CFA_XSP16, literal(-10)))
          CFI (cfiCond175) V5 load(1, XDATA, add(CFA_XSP16, literal(-9)))
          CFI (cfiCond175) V6 load(1, XDATA, add(CFA_XSP16, literal(-8)))
          CFI (cfiCond175) V7 load(1, XDATA, add(CFA_XSP16, literal(-7)))
          CFI (cfiCond175) R7 load(1, XDATA, add(CFA_XSP16, literal(-6)))
          CFI (cfiCond175) ?RET_LOW load(1, XDATA, add(CFA_XSP16, literal(-5)))
          CFI (cfiCond175) ?RET_HIGH load(1, XDATA, add(CFA_XSP16, literal(-4)))
          CFI (cfiCond175) ?BRET_EXT load(1, XDATA, add(CFA_XSP16, literal(-3)))
          CFI (cfiCond175) DPL0 load(1, XDATA, add(CFA_XSP16, literal(-2)))
          CFI (cfiCond175) DPH0 load(1, XDATA, add(CFA_XSP16, literal(-1)))
          CFI (cfiCond175) CFA_SP SP+-2
          CFI (cfiCond175) CFA_XSP16 add(XSP16, 25)
          CFI Block cfiCond176 Using cfiCommon0
          CFI (cfiCond176) Function afIncomingData
          CFI (cfiCond176) Conditional ??CrossCallReturnLabel_112
          CFI (cfiCond176) R6 load(1, XDATA, add(CFA_XSP16, literal(-16)))
          CFI (cfiCond176) VB load(1, XDATA, add(CFA_XSP16, literal(-15)))
          CFI (cfiCond176) V0 load(1, XDATA, add(CFA_XSP16, literal(-14)))
          CFI (cfiCond176) V1 load(1, XDATA, add(CFA_XSP16, literal(-13)))
          CFI (cfiCond176) V2 load(1, XDATA, add(CFA_XSP16, literal(-12)))
          CFI (cfiCond176) V3 load(1, XDATA, add(CFA_XSP16, literal(-11)))
          CFI (cfiCond176) V4 load(1, XDATA, add(CFA_XSP16, literal(-10)))
          CFI (cfiCond176) V5 load(1, XDATA, add(CFA_XSP16, literal(-9)))
          CFI (cfiCond176) V6 load(1, XDATA, add(CFA_XSP16, literal(-8)))
          CFI (cfiCond176) V7 load(1, XDATA, add(CFA_XSP16, literal(-7)))
          CFI (cfiCond176) R7 load(1, XDATA, add(CFA_XSP16, literal(-6)))
          CFI (cfiCond176) ?RET_LOW load(1, XDATA, add(CFA_XSP16, literal(-5)))
          CFI (cfiCond176) ?RET_HIGH load(1, XDATA, add(CFA_XSP16, literal(-4)))
          CFI (cfiCond176) ?BRET_EXT load(1, XDATA, add(CFA_XSP16, literal(-3)))
          CFI (cfiCond176) DPL0 load(1, XDATA, add(CFA_XSP16, literal(-2)))
          CFI (cfiCond176) DPH0 load(1, XDATA, add(CFA_XSP16, literal(-1)))
          CFI (cfiCond176) CFA_SP SP+-2
          CFI (cfiCond176) CFA_XSP16 add(XSP16, 25)
          CFI Block cfiPicker177 Using cfiCommon1
          CFI (cfiPicker177) NoFunction
          CFI (cfiPicker177) Picker
        INC     DPTR
        INC     DPTR
          CFI EndBlock cfiCond172
          CFI EndBlock cfiCond173
          CFI EndBlock cfiCond174
          CFI EndBlock cfiCond175
          CFI EndBlock cfiCond176
          CFI EndBlock cfiPicker177
        REQUIRE ??Subroutine51_0
        ; // Fall through to label ??Subroutine51_0

        RSEG BANKED_CODE:CODE:NOROOT(0)
??Subroutine51_0:
          CFI Block cfiCond178 Using cfiCommon0
          CFI Function afDelete
          CFI Conditional ??CrossCallReturnLabel_102
          CFI R6 load(1, XDATA, add(CFA_XSP16, literal(-9)))
          CFI VB load(1, XDATA, add(CFA_XSP16, literal(-8)))
          CFI V0 load(1, XDATA, add(CFA_XSP16, literal(-7)))
          CFI R7 load(1, XDATA, add(CFA_XSP16, literal(-6)))
          CFI ?RET_LOW load(1, XDATA, add(CFA_XSP16, literal(-5)))
          CFI ?RET_HIGH load(1, XDATA, add(CFA_XSP16, literal(-4)))
          CFI ?BRET_EXT load(1, XDATA, add(CFA_XSP16, literal(-3)))
          CFI DPL0 load(1, XDATA, add(CFA_XSP16, literal(-2)))
          CFI DPH0 load(1, XDATA, add(CFA_XSP16, literal(-1)))
          CFI CFA_SP SP+-2
          CFI CFA_XSP16 add(XSP16, 9)
          CFI Block cfiCond179 Using cfiCommon0
          CFI (cfiCond179) Function afIncomingData
          CFI (cfiCond179) Conditional ??CrossCallReturnLabel_103
          CFI (cfiCond179) R6 load(1, XDATA, add(CFA_XSP16, literal(-16)))
          CFI (cfiCond179) VB load(1, XDATA, add(CFA_XSP16, literal(-15)))
          CFI (cfiCond179) V0 load(1, XDATA, add(CFA_XSP16, literal(-14)))
          CFI (cfiCond179) V1 load(1, XDATA, add(CFA_XSP16, literal(-13)))
          CFI (cfiCond179) V2 load(1, XDATA, add(CFA_XSP16, literal(-12)))
          CFI (cfiCond179) V3 load(1, XDATA, add(CFA_XSP16, literal(-11)))
          CFI (cfiCond179) V4 load(1, XDATA, add(CFA_XSP16, literal(-10)))
          CFI (cfiCond179) V5 load(1, XDATA, add(CFA_XSP16, literal(-9)))
          CFI (cfiCond179) V6 load(1, XDATA, add(CFA_XSP16, literal(-8)))
          CFI (cfiCond179) V7 load(1, XDATA, add(CFA_XSP16, literal(-7)))
          CFI (cfiCond179) R7 load(1, XDATA, add(CFA_XSP16, literal(-6)))
          CFI (cfiCond179) ?RET_LOW load(1, XDATA, add(CFA_XSP16, literal(-5)))
          CFI (cfiCond179) ?RET_HIGH load(1, XDATA, add(CFA_XSP16, literal(-4)))
          CFI (cfiCond179) ?BRET_EXT load(1, XDATA, add(CFA_XSP16, literal(-3)))
          CFI (cfiCond179) DPL0 load(1, XDATA, add(CFA_XSP16, literal(-2)))
          CFI (cfiCond179) DPH0 load(1, XDATA, add(CFA_XSP16, literal(-1)))
          CFI (cfiCond179) CFA_SP SP+-2
          CFI (cfiCond179) CFA_XSP16 add(XSP16, 37)
          CFI Block cfiCond180 Using cfiCommon0
          CFI (cfiCond180) Function AF_DataRequest
          CFI (cfiCond180) Conditional ??CrossCallReturnLabel_104
          CFI (cfiCond180) R6 load(1, XDATA, add(CFA_XSP16, literal(-16)))
          CFI (cfiCond180) VB load(1, XDATA, add(CFA_XSP16, literal(-15)))
          CFI (cfiCond180) V0 load(1, XDATA, add(CFA_XSP16, literal(-14)))
          CFI (cfiCond180) V1 load(1, XDATA, add(CFA_XSP16, literal(-13)))
          CFI (cfiCond180) V2 load(1, XDATA, add(CFA_XSP16, literal(-12)))
          CFI (cfiCond180) V3 load(1, XDATA, add(CFA_XSP16, literal(-11)))
          CFI (cfiCond180) V4 load(1, XDATA, add(CFA_XSP16, literal(-10)))
          CFI (cfiCond180) V5 load(1, XDATA, add(CFA_XSP16, literal(-9)))
          CFI (cfiCond180) V6 load(1, XDATA, add(CFA_XSP16, literal(-8)))
          CFI (cfiCond180) V7 load(1, XDATA, add(CFA_XSP16, literal(-7)))
          CFI (cfiCond180) R7 load(1, XDATA, add(CFA_XSP16, literal(-6)))
          CFI (cfiCond180) ?RET_LOW load(1, XDATA, add(CFA_XSP16, literal(-5)))
          CFI (cfiCond180) ?RET_HIGH load(1, XDATA, add(CFA_XSP16, literal(-4)))
          CFI (cfiCond180) ?BRET_EXT load(1, XDATA, add(CFA_XSP16, literal(-3)))
          CFI (cfiCond180) DPL0 load(1, XDATA, add(CFA_XSP16, literal(-2)))
          CFI (cfiCond180) DPH0 load(1, XDATA, add(CFA_XSP16, literal(-1)))
          CFI (cfiCond180) CFA_SP SP+-2
          CFI (cfiCond180) CFA_XSP16 add(XSP16, 46)
          CFI Block cfiCond181 Using cfiCommon0
          CFI (cfiCond181) Function AF_DataRequest
          CFI (cfiCond181) Conditional ??CrossCallReturnLabel_105
          CFI (cfiCond181) R6 load(1, XDATA, add(CFA_XSP16, literal(-16)))
          CFI (cfiCond181) VB load(1, XDATA, add(CFA_XSP16, literal(-15)))
          CFI (cfiCond181) V0 load(1, XDATA, add(CFA_XSP16, literal(-14)))
          CFI (cfiCond181) V1 load(1, XDATA, add(CFA_XSP16, literal(-13)))
          CFI (cfiCond181) V2 load(1, XDATA, add(CFA_XSP16, literal(-12)))
          CFI (cfiCond181) V3 load(1, XDATA, add(CFA_XSP16, literal(-11)))
          CFI (cfiCond181) V4 load(1, XDATA, add(CFA_XSP16, literal(-10)))
          CFI (cfiCond181) V5 load(1, XDATA, add(CFA_XSP16, literal(-9)))
          CFI (cfiCond181) V6 load(1, XDATA, add(CFA_XSP16, literal(-8)))
          CFI (cfiCond181) V7 load(1, XDATA, add(CFA_XSP16, literal(-7)))
          CFI (cfiCond181) R7 load(1, XDATA, add(CFA_XSP16, literal(-6)))
          CFI (cfiCond181) ?RET_LOW load(1, XDATA, add(CFA_XSP16, literal(-5)))
          CFI (cfiCond181) ?RET_HIGH load(1, XDATA, add(CFA_XSP16, literal(-4)))
          CFI (cfiCond181) ?BRET_EXT load(1, XDATA, add(CFA_XSP16, literal(-3)))
          CFI (cfiCond181) DPL0 load(1, XDATA, add(CFA_XSP16, literal(-2)))
          CFI (cfiCond181) DPH0 load(1, XDATA, add(CFA_XSP16, literal(-1)))
          CFI (cfiCond181) CFA_SP SP+-2
          CFI (cfiCond181) CFA_XSP16 add(XSP16, 46)
          CFI Block cfiCond182 Using cfiCommon0
          CFI (cfiCond182) Function AF_DataRequestSrcRtg
          CFI (cfiCond182) Conditional ??CrossCallReturnLabel_106
          CFI (cfiCond182) R6 load(1, XDATA, add(CFA_XSP16, literal(-12)))
          CFI (cfiCond182) VB load(1, XDATA, add(CFA_XSP16, literal(-11)))
          CFI (cfiCond182) V0 load(1, XDATA, add(CFA_XSP16, literal(-10)))
          CFI (cfiCond182) V1 load(1, XDATA, add(CFA_XSP16, literal(-9)))
          CFI (cfiCond182) V2 load(1, XDATA, add(CFA_XSP16, literal(-8)))
          CFI (cfiCond182) V3 load(1, XDATA, add(CFA_XSP16, literal(-7)))
          CFI (cfiCond182) R7 load(1, XDATA, add(CFA_XSP16, literal(-6)))
          CFI (cfiCond182) ?RET_LOW load(1, XDATA, add(CFA_XSP16, literal(-5)))
          CFI (cfiCond182) ?RET_HIGH load(1, XDATA, add(CFA_XSP16, literal(-4)))
          CFI (cfiCond182) ?BRET_EXT load(1, XDATA, add(CFA_XSP16, literal(-3)))
          CFI (cfiCond182) DPL0 load(1, XDATA, add(CFA_XSP16, literal(-2)))
          CFI (cfiCond182) DPH0 load(1, XDATA, add(CFA_XSP16, literal(-1)))
          CFI (cfiCond182) CFA_SP SP+-2
          CFI (cfiCond182) CFA_XSP16 add(XSP16, 12)
          CFI Block cfiCond183 Using cfiCommon0
          CFI (cfiCond183) Function afNumEndPoints
          CFI (cfiCond183) Conditional ??CrossCallReturnLabel_107
          CFI (cfiCond183) DPL0 Frame(CFA_SP, 4)
          CFI (cfiCond183) DPH0 Frame(CFA_SP, 5)
          CFI (cfiCond183) CFA_SP SP+-7
          CFI Block cfiCond184 Using cfiCommon0
          CFI (cfiCond184) Function AF_DataRequest
          CFI (cfiCond184) Conditional ??CrossCallReturnLabel_108
          CFI (cfiCond184) R6 load(1, XDATA, add(CFA_XSP16, literal(-16)))
          CFI (cfiCond184) VB load(1, XDATA, add(CFA_XSP16, literal(-15)))
          CFI (cfiCond184) V0 load(1, XDATA, add(CFA_XSP16, literal(-14)))
          CFI (cfiCond184) V1 load(1, XDATA, add(CFA_XSP16, literal(-13)))
          CFI (cfiCond184) V2 load(1, XDATA, add(CFA_XSP16, literal(-12)))
          CFI (cfiCond184) V3 load(1, XDATA, add(CFA_XSP16, literal(-11)))
          CFI (cfiCond184) V4 load(1, XDATA, add(CFA_XSP16, literal(-10)))
          CFI (cfiCond184) V5 load(1, XDATA, add(CFA_XSP16, literal(-9)))
          CFI (cfiCond184) V6 load(1, XDATA, add(CFA_XSP16, literal(-8)))
          CFI (cfiCond184) V7 load(1, XDATA, add(CFA_XSP16, literal(-7)))
          CFI (cfiCond184) R7 load(1, XDATA, add(CFA_XSP16, literal(-6)))
          CFI (cfiCond184) ?RET_LOW load(1, XDATA, add(CFA_XSP16, literal(-5)))
          CFI (cfiCond184) ?RET_HIGH load(1, XDATA, add(CFA_XSP16, literal(-4)))
          CFI (cfiCond184) ?BRET_EXT load(1, XDATA, add(CFA_XSP16, literal(-3)))
          CFI (cfiCond184) DPL0 load(1, XDATA, add(CFA_XSP16, literal(-2)))
          CFI (cfiCond184) DPH0 load(1, XDATA, add(CFA_XSP16, literal(-1)))
          CFI (cfiCond184) CFA_SP SP+-2
          CFI (cfiCond184) CFA_XSP16 add(XSP16, 46)
          CFI Block cfiCond185 Using cfiCommon0
          CFI (cfiCond185) Function afFindEndPointDesc
          CFI (cfiCond185) Conditional ??CrossCallReturnLabel_109
          CFI (cfiCond185) R6 load(1, XDATA, add(CFA_XSP16, literal(-10)))
          CFI (cfiCond185) VB load(1, XDATA, add(CFA_XSP16, literal(-9)))
          CFI (cfiCond185) V0 load(1, XDATA, add(CFA_XSP16, literal(-8)))
          CFI (cfiCond185) V1 load(1, XDATA, add(CFA_XSP16, literal(-7)))
          CFI (cfiCond185) R7 load(1, XDATA, add(CFA_XSP16, literal(-6)))
          CFI (cfiCond185) ?RET_LOW load(1, XDATA, add(CFA_XSP16, literal(-5)))
          CFI (cfiCond185) ?RET_HIGH load(1, XDATA, add(CFA_XSP16, literal(-4)))
          CFI (cfiCond185) ?BRET_EXT load(1, XDATA, add(CFA_XSP16, literal(-3)))
          CFI (cfiCond185) DPL0 load(1, XDATA, add(CFA_XSP16, literal(-2)))
          CFI (cfiCond185) DPH0 load(1, XDATA, add(CFA_XSP16, literal(-1)))
          CFI (cfiCond185) CFA_SP SP+-2
          CFI (cfiCond185) CFA_XSP16 add(XSP16, 10)
          CFI Block cfiCond186 Using cfiCommon0
          CFI (cfiCond186) Function afFindSimpleDesc
          CFI (cfiCond186) Conditional ??CrossCallReturnLabel_110
          CFI (cfiCond186) R6 load(1, XDATA, add(CFA_XSP16, literal(-12)))
          CFI (cfiCond186) VB load(1, XDATA, add(CFA_XSP16, literal(-11)))
          CFI (cfiCond186) V0 load(1, XDATA, add(CFA_XSP16, literal(-10)))
          CFI (cfiCond186) V1 load(1, XDATA, add(CFA_XSP16, literal(-9)))
          CFI (cfiCond186) V2 load(1, XDATA, add(CFA_XSP16, literal(-8)))
          CFI (cfiCond186) V3 load(1, XDATA, add(CFA_XSP16, literal(-7)))
          CFI (cfiCond186) R7 load(1, XDATA, add(CFA_XSP16, literal(-6)))
          CFI (cfiCond186) ?RET_LOW load(1, XDATA, add(CFA_XSP16, literal(-5)))
          CFI (cfiCond186) ?RET_HIGH load(1, XDATA, add(CFA_XSP16, literal(-4)))
          CFI (cfiCond186) ?BRET_EXT load(1, XDATA, add(CFA_XSP16, literal(-3)))
          CFI (cfiCond186) DPL0 load(1, XDATA, add(CFA_XSP16, literal(-2)))
          CFI (cfiCond186) DPH0 load(1, XDATA, add(CFA_XSP16, literal(-1)))
          CFI (cfiCond186) CFA_SP SP+-2
          CFI (cfiCond186) CFA_XSP16 add(XSP16, 12)
          CFI Block cfiCond187 Using cfiCommon0
          CFI (cfiCond187) Function afIncomingData
          CFI (cfiCond187) Conditional ??CrossCallReturnLabel_111
          CFI (cfiCond187) R6 load(1, XDATA, add(CFA_XSP16, literal(-16)))
          CFI (cfiCond187) VB load(1, XDATA, add(CFA_XSP16, literal(-15)))
          CFI (cfiCond187) V0 load(1, XDATA, add(CFA_XSP16, literal(-14)))
          CFI (cfiCond187) V1 load(1, XDATA, add(CFA_XSP16, literal(-13)))
          CFI (cfiCond187) V2 load(1, XDATA, add(CFA_XSP16, literal(-12)))
          CFI (cfiCond187) V3 load(1, XDATA, add(CFA_XSP16, literal(-11)))
          CFI (cfiCond187) V4 load(1, XDATA, add(CFA_XSP16, literal(-10)))
          CFI (cfiCond187) V5 load(1, XDATA, add(CFA_XSP16, literal(-9)))
          CFI (cfiCond187) V6 load(1, XDATA, add(CFA_XSP16, literal(-8)))
          CFI (cfiCond187) V7 load(1, XDATA, add(CFA_XSP16, literal(-7)))
          CFI (cfiCond187) R7 load(1, XDATA, add(CFA_XSP16, literal(-6)))
          CFI (cfiCond187) ?RET_LOW load(1, XDATA, add(CFA_XSP16, literal(-5)))
          CFI (cfiCond187) ?RET_HIGH load(1, XDATA, add(CFA_XSP16, literal(-4)))
          CFI (cfiCond187) ?BRET_EXT load(1, XDATA, add(CFA_XSP16, literal(-3)))
          CFI (cfiCond187) DPL0 load(1, XDATA, add(CFA_XSP16, literal(-2)))
          CFI (cfiCond187) DPH0 load(1, XDATA, add(CFA_XSP16, literal(-1)))
          CFI (cfiCond187) CFA_SP SP+-2
          CFI (cfiCond187) CFA_XSP16 add(XSP16, 25)
          CFI Block cfiCond188 Using cfiCommon0
          CFI (cfiCond188) Function afIncomingData
          CFI (cfiCond188) Conditional ??CrossCallReturnLabel_112
          CFI (cfiCond188) R6 load(1, XDATA, add(CFA_XSP16, literal(-16)))
          CFI (cfiCond188) VB load(1, XDATA, add(CFA_XSP16, literal(-15)))
          CFI (cfiCond188) V0 load(1, XDATA, add(CFA_XSP16, literal(-14)))
          CFI (cfiCond188) V1 load(1, XDATA, add(CFA_XSP16, literal(-13)))
          CFI (cfiCond188) V2 load(1, XDATA, add(CFA_XSP16, literal(-12)))
          CFI (cfiCond188) V3 load(1, XDATA, add(CFA_XSP16, literal(-11)))
          CFI (cfiCond188) V4 load(1, XDATA, add(CFA_XSP16, literal(-10)))
          CFI (cfiCond188) V5 load(1, XDATA, add(CFA_XSP16, literal(-9)))
          CFI (cfiCond188) V6 load(1, XDATA, add(CFA_XSP16, literal(-8)))
          CFI (cfiCond188) V7 load(1, XDATA, add(CFA_XSP16, literal(-7)))
          CFI (cfiCond188) R7 load(1, XDATA, add(CFA_XSP16, literal(-6)))
          CFI (cfiCond188) ?RET_LOW load(1, XDATA, add(CFA_XSP16, literal(-5)))
          CFI (cfiCond188) ?RET_HIGH load(1, XDATA, add(CFA_XSP16, literal(-4)))
          CFI (cfiCond188) ?BRET_EXT load(1, XDATA, add(CFA_XSP16, literal(-3)))
          CFI (cfiCond188) DPL0 load(1, XDATA, add(CFA_XSP16, literal(-2)))
          CFI (cfiCond188) DPH0 load(1, XDATA, add(CFA_XSP16, literal(-1)))
          CFI (cfiCond188) CFA_SP SP+-2
          CFI (cfiCond188) CFA_XSP16 add(XSP16, 25)
          CFI Block cfiPicker189 Using cfiCommon1
          CFI (cfiPicker189) NoFunction
          CFI (cfiPicker189) Picker
        MOVX    A,@DPTR
        MOV     R2,A
        INC     DPTR
        MOVX    A,@DPTR
        MOV     R3,A
        RET
          CFI EndBlock cfiCond178
          CFI EndBlock cfiCond179
          CFI EndBlock cfiCond180
          CFI EndBlock cfiCond181
          CFI EndBlock cfiCond182
          CFI EndBlock cfiCond183
          CFI EndBlock cfiCond184
          CFI EndBlock cfiCond185
          CFI EndBlock cfiCond186
          CFI EndBlock cfiCond187
          CFI EndBlock cfiCond188
          CFI EndBlock cfiPicker189
//  834 
//  835 #endif
//  836 
//  837 /*********************************************************************
//  838  * @fn      afFindEndPointDescList
//  839  *
//  840  * @brief   Find the endpoint description entry from the endpoint
//  841  *          number.
//  842  *
//  843  * @param   EndPoint - Application Endpoint to look for
//  844  *
//  845  * @return  the address to the endpoint/interface description entry
//  846  */

        RSEG BANKED_CODE:CODE:NOROOT(0)
//  847 static epList_t *afFindEndPointDescList( uint8 EndPoint )
afFindEndPointDescList:
          CFI Block cfiBlock190 Using cfiCommon0
          CFI Function afFindEndPointDescList
        CODE
//  848 {
        PUSH    DPL
          CFI DPL0 Frame(CFA_SP, 4)
          CFI CFA_SP SP+-4
        PUSH    DPH
          CFI DPH0 Frame(CFA_SP, 5)
          CFI CFA_SP SP+-5
        ; Saved register size: 2
        ; Auto size: 0
//  849   epList_t *epSearch;
//  850 
//  851   for (epSearch = epList; epSearch != NULL; epSearch = epSearch->nextDesc)
        MOV     DPTR,#epList
        SJMP    ??afFindEndPointDescList_0
??afFindEndPointDescList_1:
        MOV     DPL,R2
        MOV     DPH,R3
??afFindEndPointDescList_0:
        LCALL   ??Subroutine48_0 & 0xFFFF
??CrossCallReturnLabel_99:
        JZ      ??afFindEndPointDescList_2
//  852   {
//  853     if (epSearch->epDesc->endPoint == EndPoint)
        MOV     DPL,R2
        MOV     DPH,R3
        LCALL   ??Subroutine53_0 & 0xFFFF
//  854     {
//  855       break;
//  856     }
//  857   }
??CrossCallReturnLabel_114:
        MOVX    A,@DPTR
        XRL     A,R1
        JNZ     ??afFindEndPointDescList_1
//  858 
//  859   return epSearch;
??afFindEndPointDescList_2:
          CFI EndBlock cfiBlock190
        REQUIRE ?Subroutine4
        ; // Fall through to label ?Subroutine4
//  860 }

        RSEG BANKED_CODE:CODE:NOROOT(0)
?Subroutine4:
          CFI Block cfiBlock191 Using cfiCommon0
          CFI NoFunction
          CFI CFA_SP SP+-5
          CFI DPL0 Frame(CFA_SP, 4)
          CFI DPH0 Frame(CFA_SP, 5)
        POP     DPH
          CFI CFA_SP SP+-4
          CFI DPH0 SameValue
        POP     DPL
          CFI CFA_SP SP+-3
          CFI DPL0 SameValue
        LJMP    ?BRET
          CFI EndBlock cfiBlock191
//  861 
//  862 /*********************************************************************
//  863  * @fn      afFindEndPointDesc
//  864  *
//  865  * @brief   Find the endpoint description entry from the endpoint
//  866  *          number.
//  867  *
//  868  * @param   EndPoint - Application Endpoint to look for
//  869  *
//  870  * @return  the address to the endpoint/interface description entry
//  871  */

        RSEG BANKED_CODE:CODE:NOROOT(0)
//  872 endPointDesc_t *afFindEndPointDesc( uint8 EndPoint )
afFindEndPointDesc:
          CFI Block cfiBlock192 Using cfiCommon0
          CFI Function afFindEndPointDesc
        CODE
//  873 {
        FUNCALL afFindEndPointDesc, afFindEndPointDescList
        LOCFRAME ISTACK, 0, STACK
        LOCFRAME PSTACK, 0, STACK
        LOCFRAME XSTACK, 10, STACK
        LOCFRAME IOVERLAY, 0, STATIC
        LOCFRAME DOVERLAY, 0, STATIC
        ARGFRAME ISTACK, 0, STACK
        ARGFRAME PSTACK, 0, STACK
        ARGFRAME XSTACK, 10, STACK
        ARGFRAME IOVERLAY, 0, STATIC
        ARGFRAME DOVERLAY, 0, STATIC
        REQUIRE ?V0
        REQUIRE ?V1
        MOV     A,#-0xa
        LCALL   ?BANKED_ENTER_XDATA
          CFI DPH0 load(1, XDATA, add(CFA_XSP16, literal(-1)))
          CFI DPL0 load(1, XDATA, add(CFA_XSP16, literal(-2)))
          CFI ?BRET_EXT load(1, XDATA, add(CFA_XSP16, literal(-3)))
          CFI ?RET_HIGH load(1, XDATA, add(CFA_XSP16, literal(-4)))
          CFI ?RET_LOW load(1, XDATA, add(CFA_XSP16, literal(-5)))
          CFI R7 load(1, XDATA, add(CFA_XSP16, literal(-6)))
          CFI V1 load(1, XDATA, add(CFA_XSP16, literal(-7)))
          CFI V0 load(1, XDATA, add(CFA_XSP16, literal(-8)))
          CFI VB load(1, XDATA, add(CFA_XSP16, literal(-9)))
          CFI R6 load(1, XDATA, add(CFA_XSP16, literal(-10)))
          CFI CFA_SP SP+0
          CFI CFA_XSP16 add(XSP16, 10)
        ; Saved register size: 10
        ; Auto size: 0
//  874   epList_t *epSearch;
//  875 
//  876   // Look for the endpoint
//  877   epSearch = afFindEndPointDescList( EndPoint );
        ; Setup parameters for call to function afFindEndPointDescList
        LCALL   `??afFindEndPointDescList::?relay`; Banked call to: afFindEndPointDescList
        MOV     DPL,R2
        MOV     DPH,R3
//  878 
//  879   if ( epSearch )
        MOV     A,DPL
        ORL     A,DPH
        JZ      ??afFindEndPointDesc_0
//  880     return ( epSearch->epDesc );
        LCALL   ??Subroutine50_0 & 0xFFFF
??CrossCallReturnLabel_109:
        SJMP    ??afFindEndPointDesc_1
//  881   else
//  882     return ( (endPointDesc_t *)NULL );
??afFindEndPointDesc_0:
        MOV     R2,#0x0
        MOV     R3,#0x0
??afFindEndPointDesc_1:
        LJMP    ?Subroutine1 & 0xFFFF
//  883 }
          CFI EndBlock cfiBlock192
//  884 
//  885 /*********************************************************************
//  886  * @fn      afFindSimpleDesc
//  887  *
//  888  * @brief   Find the Simple Descriptor from the endpoint number.
//  889  *
//  890  * @param   EP - Application Endpoint to look for.
//  891  *
//  892  * @return  Non-zero to indicate that the descriptor memory must be freed.
//  893  */

        RSEG BANKED_CODE:CODE:NOROOT(0)
//  894 uint8 afFindSimpleDesc( SimpleDescriptionFormat_t **ppDesc, uint8 EP )
afFindSimpleDesc:
          CFI Block cfiBlock193 Using cfiCommon0
          CFI Function afFindSimpleDesc
        CODE
//  895 {
        FUNCALL afFindSimpleDesc, afFindEndPointDescList
        LOCFRAME ISTACK, 0, STACK
        LOCFRAME PSTACK, 0, STACK
        LOCFRAME XSTACK, 12, STACK
        LOCFRAME IOVERLAY, 0, STATIC
        LOCFRAME DOVERLAY, 0, STATIC
        ARGFRAME ISTACK, 0, STACK
        ARGFRAME PSTACK, 0, STACK
        ARGFRAME XSTACK, 12, STACK
        ARGFRAME IOVERLAY, 0, STATIC
        ARGFRAME DOVERLAY, 0, STATIC
        REQUIRE ?V0
        REQUIRE ?V2
        REQUIRE ?V3
        MOV     A,#-0xc
        LCALL   ?BANKED_ENTER_XDATA
          CFI DPH0 load(1, XDATA, add(CFA_XSP16, literal(-1)))
          CFI DPL0 load(1, XDATA, add(CFA_XSP16, literal(-2)))
          CFI ?BRET_EXT load(1, XDATA, add(CFA_XSP16, literal(-3)))
          CFI ?RET_HIGH load(1, XDATA, add(CFA_XSP16, literal(-4)))
          CFI ?RET_LOW load(1, XDATA, add(CFA_XSP16, literal(-5)))
          CFI R7 load(1, XDATA, add(CFA_XSP16, literal(-6)))
          CFI V3 load(1, XDATA, add(CFA_XSP16, literal(-7)))
          CFI V2 load(1, XDATA, add(CFA_XSP16, literal(-8)))
          CFI V1 load(1, XDATA, add(CFA_XSP16, literal(-9)))
          CFI V0 load(1, XDATA, add(CFA_XSP16, literal(-10)))
          CFI VB load(1, XDATA, add(CFA_XSP16, literal(-11)))
          CFI R6 load(1, XDATA, add(CFA_XSP16, literal(-12)))
          CFI CFA_SP SP+0
          CFI CFA_XSP16 add(XSP16, 12)
        ; Saved register size: 12
        ; Auto size: 0
        MOV     A,R2
        MOV     R6,A
        MOV     A,R3
        MOV     R7,A
        MOV     ?V0,R1
//  896   epList_t *epItem = afFindEndPointDescList( EP );
        ; Setup parameters for call to function afFindEndPointDescList
        LCALL   `??afFindEndPointDescList::?relay`; Banked call to: afFindEndPointDescList
        MOV     ?V2,R2
        MOV     ?V3,R3
        MOV     R4,?V2
        MOV     R5,?V3
//  897   uint8 rtrn = FALSE;
        MOV     R1,#0x0
//  898 
//  899   if ( epItem )
        MOV     A,R4
        ORL     A,R5
        JZ      ??afFindSimpleDesc_0
//  900   {
//  901     if ( epItem->pfnDescCB )
        MOV     DPL,R4
        MOV     DPH,R5
        LCALL   ?Subroutine7 & 0xFFFF
??CrossCallReturnLabel_101:
        JZ      ??afFindSimpleDesc_1
//  902     {
//  903       *ppDesc = epItem->pfnDescCB( AF_DESCRIPTOR_SIMPLE, EP );
        ; Setup parameters for indirect call
        MOV     R2,?V0
        INC     R1
        MOV     DPL,R4
        MOV     DPH,R5
        LCALL   ?Subroutine22 & 0xFFFF
??CrossCallReturnLabel_118:
        LCALL   ?CALL_IND
        MOV     DPL,R6
        MOV     DPH,R7
        LCALL   ?Subroutine29 & 0xFFFF
//  904       rtrn = TRUE;
??CrossCallReturnLabel_42:
        MOV     R1,#0x1
        SJMP    ??afFindSimpleDesc_2
//  905     }
//  906     else
//  907     {
//  908       *ppDesc = epItem->epDesc->simpleDesc;
??afFindSimpleDesc_1:
        MOV     DPL,R4
        MOV     DPH,R5
        LCALL   ??Subroutine53_0 & 0xFFFF
//  909     }
//  910   }
??CrossCallReturnLabel_115:
        LCALL   ??Subroutine49_0 & 0xFFFF
??CrossCallReturnLabel_110:
        MOV     DPL,R6
        MOV     DPH,R7
        MOV     A,R2
        MOVX    @DPTR,A
        INC     DPTR
        MOV     A,R3
        SJMP    ??afFindSimpleDesc_3
//  911   else
//  912   {
//  913     *ppDesc = NULL;
??afFindSimpleDesc_0:
        MOV     DPL,R6
        MOV     DPH,R7
        CLR     A
        MOVX    @DPTR,A
        INC     DPTR
??afFindSimpleDesc_3:
        MOVX    @DPTR,A
//  914   }
//  915 
//  916   return rtrn;
??afFindSimpleDesc_2:
          CFI EndBlock cfiBlock193
        REQUIRE ?Subroutine0
        ; // Fall through to label ?Subroutine0
//  917 }

        RSEG BANKED_CODE:CODE:NOROOT(0)
?Subroutine0:
          CFI Block cfiBlock194 Using cfiCommon0
          CFI NoFunction
          CFI CFA_SP SP+0
          CFI CFA_XSP16 add(XSP16, 12)
          CFI VB load(1, XDATA, add(CFA_XSP16, literal(-11)))
          CFI DPL0 load(1, XDATA, add(CFA_XSP16, literal(-2)))
          CFI DPH0 load(1, XDATA, add(CFA_XSP16, literal(-1)))
          CFI R6 load(1, XDATA, add(CFA_XSP16, literal(-12)))
          CFI R7 load(1, XDATA, add(CFA_XSP16, literal(-6)))
          CFI V0 load(1, XDATA, add(CFA_XSP16, literal(-10)))
          CFI V1 load(1, XDATA, add(CFA_XSP16, literal(-9)))
          CFI V2 load(1, XDATA, add(CFA_XSP16, literal(-8)))
          CFI V3 load(1, XDATA, add(CFA_XSP16, literal(-7)))
          CFI ?BRET_EXT load(1, XDATA, add(CFA_XSP16, literal(-3)))
          CFI ?RET_HIGH load(1, XDATA, add(CFA_XSP16, literal(-4)))
          CFI ?RET_LOW load(1, XDATA, add(CFA_XSP16, literal(-5)))
        MOV     R7,#0x4
        LJMP    ?BANKED_LEAVE_XDATA
          CFI EndBlock cfiBlock194

        RSEG BANKED_CODE:CODE:NOROOT(0)
?Subroutine22:
          CFI Block cfiCond195 Using cfiCommon0
          CFI Function AF_DataRequest
          CFI Conditional ??CrossCallReturnLabel_117
          CFI R6 load(1, XDATA, add(CFA_XSP16, literal(-16)))
          CFI VB load(1, XDATA, add(CFA_XSP16, literal(-15)))
          CFI V0 load(1, XDATA, add(CFA_XSP16, literal(-14)))
          CFI V1 load(1, XDATA, add(CFA_XSP16, literal(-13)))
          CFI V2 load(1, XDATA, add(CFA_XSP16, literal(-12)))
          CFI V3 load(1, XDATA, add(CFA_XSP16, literal(-11)))
          CFI V4 load(1, XDATA, add(CFA_XSP16, literal(-10)))
          CFI V5 load(1, XDATA, add(CFA_XSP16, literal(-9)))
          CFI V6 load(1, XDATA, add(CFA_XSP16, literal(-8)))
          CFI V7 load(1, XDATA, add(CFA_XSP16, literal(-7)))
          CFI R7 load(1, XDATA, add(CFA_XSP16, literal(-6)))
          CFI ?RET_LOW load(1, XDATA, add(CFA_XSP16, literal(-5)))
          CFI ?RET_HIGH load(1, XDATA, add(CFA_XSP16, literal(-4)))
          CFI ?BRET_EXT load(1, XDATA, add(CFA_XSP16, literal(-3)))
          CFI DPL0 load(1, XDATA, add(CFA_XSP16, literal(-2)))
          CFI DPH0 load(1, XDATA, add(CFA_XSP16, literal(-1)))
          CFI CFA_SP SP+-2
          CFI CFA_XSP16 add(XSP16, 46)
          CFI Block cfiCond196 Using cfiCommon0
          CFI (cfiCond196) Function afFindSimpleDesc
          CFI (cfiCond196) Conditional ??CrossCallReturnLabel_118
          CFI (cfiCond196) R6 load(1, XDATA, add(CFA_XSP16, literal(-12)))
          CFI (cfiCond196) VB load(1, XDATA, add(CFA_XSP16, literal(-11)))
          CFI (cfiCond196) V0 load(1, XDATA, add(CFA_XSP16, literal(-10)))
          CFI (cfiCond196) V1 load(1, XDATA, add(CFA_XSP16, literal(-9)))
          CFI (cfiCond196) V2 load(1, XDATA, add(CFA_XSP16, literal(-8)))
          CFI (cfiCond196) V3 load(1, XDATA, add(CFA_XSP16, literal(-7)))
          CFI (cfiCond196) R7 load(1, XDATA, add(CFA_XSP16, literal(-6)))
          CFI (cfiCond196) ?RET_LOW load(1, XDATA, add(CFA_XSP16, literal(-5)))
          CFI (cfiCond196) ?RET_HIGH load(1, XDATA, add(CFA_XSP16, literal(-4)))
          CFI (cfiCond196) ?BRET_EXT load(1, XDATA, add(CFA_XSP16, literal(-3)))
          CFI (cfiCond196) DPL0 load(1, XDATA, add(CFA_XSP16, literal(-2)))
          CFI (cfiCond196) DPH0 load(1, XDATA, add(CFA_XSP16, literal(-1)))
          CFI (cfiCond196) CFA_SP SP+-2
          CFI (cfiCond196) CFA_XSP16 add(XSP16, 12)
          CFI Block cfiPicker197 Using cfiCommon1
          CFI (cfiPicker197) NoFunction
          CFI (cfiPicker197) Picker
        INC     DPTR
          CFI EndBlock cfiCond195
          CFI EndBlock cfiCond196
          CFI EndBlock cfiPicker197
        REQUIRE ??Subroutine52_0
        ; // Fall through to label ??Subroutine52_0

        RSEG BANKED_CODE:CODE:NOROOT(0)
??Subroutine52_0:
          CFI Block cfiCond198 Using cfiCommon0
          CFI Function afIncomingData
          CFI Conditional ??CrossCallReturnLabel_116
          CFI R6 load(1, XDATA, add(CFA_XSP16, literal(-16)))
          CFI VB load(1, XDATA, add(CFA_XSP16, literal(-15)))
          CFI V0 load(1, XDATA, add(CFA_XSP16, literal(-14)))
          CFI V1 load(1, XDATA, add(CFA_XSP16, literal(-13)))
          CFI V2 load(1, XDATA, add(CFA_XSP16, literal(-12)))
          CFI V3 load(1, XDATA, add(CFA_XSP16, literal(-11)))
          CFI V4 load(1, XDATA, add(CFA_XSP16, literal(-10)))
          CFI V5 load(1, XDATA, add(CFA_XSP16, literal(-9)))
          CFI V6 load(1, XDATA, add(CFA_XSP16, literal(-8)))
          CFI V7 load(1, XDATA, add(CFA_XSP16, literal(-7)))
          CFI R7 load(1, XDATA, add(CFA_XSP16, literal(-6)))
          CFI ?RET_LOW load(1, XDATA, add(CFA_XSP16, literal(-5)))
          CFI ?RET_HIGH load(1, XDATA, add(CFA_XSP16, literal(-4)))
          CFI ?BRET_EXT load(1, XDATA, add(CFA_XSP16, literal(-3)))
          CFI DPL0 load(1, XDATA, add(CFA_XSP16, literal(-2)))
          CFI DPH0 load(1, XDATA, add(CFA_XSP16, literal(-1)))
          CFI CFA_SP SP+-2
          CFI CFA_XSP16 add(XSP16, 25)
          CFI Block cfiCond199 Using cfiCommon0
          CFI (cfiCond199) Function AF_DataRequest
          CFI (cfiCond199) Conditional ??CrossCallReturnLabel_117
          CFI (cfiCond199) R6 load(1, XDATA, add(CFA_XSP16, literal(-16)))
          CFI (cfiCond199) VB load(1, XDATA, add(CFA_XSP16, literal(-15)))
          CFI (cfiCond199) V0 load(1, XDATA, add(CFA_XSP16, literal(-14)))
          CFI (cfiCond199) V1 load(1, XDATA, add(CFA_XSP16, literal(-13)))
          CFI (cfiCond199) V2 load(1, XDATA, add(CFA_XSP16, literal(-12)))
          CFI (cfiCond199) V3 load(1, XDATA, add(CFA_XSP16, literal(-11)))
          CFI (cfiCond199) V4 load(1, XDATA, add(CFA_XSP16, literal(-10)))
          CFI (cfiCond199) V5 load(1, XDATA, add(CFA_XSP16, literal(-9)))
          CFI (cfiCond199) V6 load(1, XDATA, add(CFA_XSP16, literal(-8)))
          CFI (cfiCond199) V7 load(1, XDATA, add(CFA_XSP16, literal(-7)))
          CFI (cfiCond199) R7 load(1, XDATA, add(CFA_XSP16, literal(-6)))
          CFI (cfiCond199) ?RET_LOW load(1, XDATA, add(CFA_XSP16, literal(-5)))
          CFI (cfiCond199) ?RET_HIGH load(1, XDATA, add(CFA_XSP16, literal(-4)))
          CFI (cfiCond199) ?BRET_EXT load(1, XDATA, add(CFA_XSP16, literal(-3)))
          CFI (cfiCond199) DPL0 load(1, XDATA, add(CFA_XSP16, literal(-2)))
          CFI (cfiCond199) DPH0 load(1, XDATA, add(CFA_XSP16, literal(-1)))
          CFI (cfiCond199) CFA_SP SP+-2
          CFI (cfiCond199) CFA_XSP16 add(XSP16, 46)
          CFI Block cfiCond200 Using cfiCommon0
          CFI (cfiCond200) Function afFindSimpleDesc
          CFI (cfiCond200) Conditional ??CrossCallReturnLabel_118
          CFI (cfiCond200) R6 load(1, XDATA, add(CFA_XSP16, literal(-12)))
          CFI (cfiCond200) VB load(1, XDATA, add(CFA_XSP16, literal(-11)))
          CFI (cfiCond200) V0 load(1, XDATA, add(CFA_XSP16, literal(-10)))
          CFI (cfiCond200) V1 load(1, XDATA, add(CFA_XSP16, literal(-9)))
          CFI (cfiCond200) V2 load(1, XDATA, add(CFA_XSP16, literal(-8)))
          CFI (cfiCond200) V3 load(1, XDATA, add(CFA_XSP16, literal(-7)))
          CFI (cfiCond200) R7 load(1, XDATA, add(CFA_XSP16, literal(-6)))
          CFI (cfiCond200) ?RET_LOW load(1, XDATA, add(CFA_XSP16, literal(-5)))
          CFI (cfiCond200) ?RET_HIGH load(1, XDATA, add(CFA_XSP16, literal(-4)))
          CFI (cfiCond200) ?BRET_EXT load(1, XDATA, add(CFA_XSP16, literal(-3)))
          CFI (cfiCond200) DPL0 load(1, XDATA, add(CFA_XSP16, literal(-2)))
          CFI (cfiCond200) DPH0 load(1, XDATA, add(CFA_XSP16, literal(-1)))
          CFI (cfiCond200) CFA_SP SP+-2
          CFI (cfiCond200) CFA_XSP16 add(XSP16, 12)
          CFI Block cfiPicker201 Using cfiCommon1
          CFI (cfiPicker201) NoFunction
          CFI (cfiPicker201) Picker
        INC     DPTR
          CFI EndBlock cfiCond198
          CFI EndBlock cfiCond199
          CFI EndBlock cfiCond200
          CFI EndBlock cfiPicker201
        REQUIRE ??Subroutine53_0
        ; // Fall through to label ??Subroutine53_0

        RSEG BANKED_CODE:CODE:NOROOT(0)
??Subroutine53_0:
          CFI Block cfiCond202 Using cfiCommon0
          CFI Function afFindEndPointDescList
          CFI Conditional ??CrossCallReturnLabel_114
          CFI DPL0 Frame(CFA_SP, 4)
          CFI DPH0 Frame(CFA_SP, 5)
          CFI CFA_SP SP+-7
          CFI Block cfiCond203 Using cfiCommon0
          CFI (cfiCond203) Function afFindSimpleDesc
          CFI (cfiCond203) Conditional ??CrossCallReturnLabel_115
          CFI (cfiCond203) R6 load(1, XDATA, add(CFA_XSP16, literal(-12)))
          CFI (cfiCond203) VB load(1, XDATA, add(CFA_XSP16, literal(-11)))
          CFI (cfiCond203) V0 load(1, XDATA, add(CFA_XSP16, literal(-10)))
          CFI (cfiCond203) V1 load(1, XDATA, add(CFA_XSP16, literal(-9)))
          CFI (cfiCond203) V2 load(1, XDATA, add(CFA_XSP16, literal(-8)))
          CFI (cfiCond203) V3 load(1, XDATA, add(CFA_XSP16, literal(-7)))
          CFI (cfiCond203) R7 load(1, XDATA, add(CFA_XSP16, literal(-6)))
          CFI (cfiCond203) ?RET_LOW load(1, XDATA, add(CFA_XSP16, literal(-5)))
          CFI (cfiCond203) ?RET_HIGH load(1, XDATA, add(CFA_XSP16, literal(-4)))
          CFI (cfiCond203) ?BRET_EXT load(1, XDATA, add(CFA_XSP16, literal(-3)))
          CFI (cfiCond203) DPL0 load(1, XDATA, add(CFA_XSP16, literal(-2)))
          CFI (cfiCond203) DPH0 load(1, XDATA, add(CFA_XSP16, literal(-1)))
          CFI (cfiCond203) CFA_SP SP+-2
          CFI (cfiCond203) CFA_XSP16 add(XSP16, 12)
          CFI Block cfiCond204 Using cfiCommon0
          CFI (cfiCond204) Function afIncomingData
          CFI (cfiCond204) Conditional ??CrossCallReturnLabel_116
          CFI (cfiCond204) R6 load(1, XDATA, add(CFA_XSP16, literal(-16)))
          CFI (cfiCond204) VB load(1, XDATA, add(CFA_XSP16, literal(-15)))
          CFI (cfiCond204) V0 load(1, XDATA, add(CFA_XSP16, literal(-14)))
          CFI (cfiCond204) V1 load(1, XDATA, add(CFA_XSP16, literal(-13)))
          CFI (cfiCond204) V2 load(1, XDATA, add(CFA_XSP16, literal(-12)))
          CFI (cfiCond204) V3 load(1, XDATA, add(CFA_XSP16, literal(-11)))
          CFI (cfiCond204) V4 load(1, XDATA, add(CFA_XSP16, literal(-10)))
          CFI (cfiCond204) V5 load(1, XDATA, add(CFA_XSP16, literal(-9)))
          CFI (cfiCond204) V6 load(1, XDATA, add(CFA_XSP16, literal(-8)))
          CFI (cfiCond204) V7 load(1, XDATA, add(CFA_XSP16, literal(-7)))
          CFI (cfiCond204) R7 load(1, XDATA, add(CFA_XSP16, literal(-6)))
          CFI (cfiCond204) ?RET_LOW load(1, XDATA, add(CFA_XSP16, literal(-5)))
          CFI (cfiCond204) ?RET_HIGH load(1, XDATA, add(CFA_XSP16, literal(-4)))
          CFI (cfiCond204) ?BRET_EXT load(1, XDATA, add(CFA_XSP16, literal(-3)))
          CFI (cfiCond204) DPL0 load(1, XDATA, add(CFA_XSP16, literal(-2)))
          CFI (cfiCond204) DPH0 load(1, XDATA, add(CFA_XSP16, literal(-1)))
          CFI (cfiCond204) CFA_SP SP+-2
          CFI (cfiCond204) CFA_XSP16 add(XSP16, 25)
          CFI Block cfiCond205 Using cfiCommon0
          CFI (cfiCond205) Function AF_DataRequest
          CFI (cfiCond205) Conditional ??CrossCallReturnLabel_117
          CFI (cfiCond205) R6 load(1, XDATA, add(CFA_XSP16, literal(-16)))
          CFI (cfiCond205) VB load(1, XDATA, add(CFA_XSP16, literal(-15)))
          CFI (cfiCond205) V0 load(1, XDATA, add(CFA_XSP16, literal(-14)))
          CFI (cfiCond205) V1 load(1, XDATA, add(CFA_XSP16, literal(-13)))
          CFI (cfiCond205) V2 load(1, XDATA, add(CFA_XSP16, literal(-12)))
          CFI (cfiCond205) V3 load(1, XDATA, add(CFA_XSP16, literal(-11)))
          CFI (cfiCond205) V4 load(1, XDATA, add(CFA_XSP16, literal(-10)))
          CFI (cfiCond205) V5 load(1, XDATA, add(CFA_XSP16, literal(-9)))
          CFI (cfiCond205) V6 load(1, XDATA, add(CFA_XSP16, literal(-8)))
          CFI (cfiCond205) V7 load(1, XDATA, add(CFA_XSP16, literal(-7)))
          CFI (cfiCond205) R7 load(1, XDATA, add(CFA_XSP16, literal(-6)))
          CFI (cfiCond205) ?RET_LOW load(1, XDATA, add(CFA_XSP16, literal(-5)))
          CFI (cfiCond205) ?RET_HIGH load(1, XDATA, add(CFA_XSP16, literal(-4)))
          CFI (cfiCond205) ?BRET_EXT load(1, XDATA, add(CFA_XSP16, literal(-3)))
          CFI (cfiCond205) DPL0 load(1, XDATA, add(CFA_XSP16, literal(-2)))
          CFI (cfiCond205) DPH0 load(1, XDATA, add(CFA_XSP16, literal(-1)))
          CFI (cfiCond205) CFA_SP SP+-2
          CFI (cfiCond205) CFA_XSP16 add(XSP16, 46)
          CFI Block cfiCond206 Using cfiCommon0
          CFI (cfiCond206) Function afFindSimpleDesc
          CFI (cfiCond206) Conditional ??CrossCallReturnLabel_118
          CFI (cfiCond206) R6 load(1, XDATA, add(CFA_XSP16, literal(-12)))
          CFI (cfiCond206) VB load(1, XDATA, add(CFA_XSP16, literal(-11)))
          CFI (cfiCond206) V0 load(1, XDATA, add(CFA_XSP16, literal(-10)))
          CFI (cfiCond206) V1 load(1, XDATA, add(CFA_XSP16, literal(-9)))
          CFI (cfiCond206) V2 load(1, XDATA, add(CFA_XSP16, literal(-8)))
          CFI (cfiCond206) V3 load(1, XDATA, add(CFA_XSP16, literal(-7)))
          CFI (cfiCond206) R7 load(1, XDATA, add(CFA_XSP16, literal(-6)))
          CFI (cfiCond206) ?RET_LOW load(1, XDATA, add(CFA_XSP16, literal(-5)))
          CFI (cfiCond206) ?RET_HIGH load(1, XDATA, add(CFA_XSP16, literal(-4)))
          CFI (cfiCond206) ?BRET_EXT load(1, XDATA, add(CFA_XSP16, literal(-3)))
          CFI (cfiCond206) DPL0 load(1, XDATA, add(CFA_XSP16, literal(-2)))
          CFI (cfiCond206) DPH0 load(1, XDATA, add(CFA_XSP16, literal(-1)))
          CFI (cfiCond206) CFA_SP SP+-2
          CFI (cfiCond206) CFA_XSP16 add(XSP16, 12)
          CFI Block cfiPicker207 Using cfiCommon1
          CFI (cfiPicker207) NoFunction
          CFI (cfiPicker207) Picker
        INC     DPTR
        INC     DPTR
          CFI EndBlock cfiCond202
          CFI EndBlock cfiCond203
          CFI EndBlock cfiCond204
          CFI EndBlock cfiCond205
          CFI EndBlock cfiCond206
          CFI EndBlock cfiPicker207
        REQUIRE ??Subroutine54_0
        ; // Fall through to label ??Subroutine54_0

        RSEG BANKED_CODE:CODE:NOROOT(0)
??Subroutine54_0:
          CFI Block cfiCond208 Using cfiCommon0
          CFI Function afIncomingData
          CFI Conditional ??CrossCallReturnLabel_113
          CFI R6 load(1, XDATA, add(CFA_XSP16, literal(-16)))
          CFI VB load(1, XDATA, add(CFA_XSP16, literal(-15)))
          CFI V0 load(1, XDATA, add(CFA_XSP16, literal(-14)))
          CFI V1 load(1, XDATA, add(CFA_XSP16, literal(-13)))
          CFI V2 load(1, XDATA, add(CFA_XSP16, literal(-12)))
          CFI V3 load(1, XDATA, add(CFA_XSP16, literal(-11)))
          CFI V4 load(1, XDATA, add(CFA_XSP16, literal(-10)))
          CFI V5 load(1, XDATA, add(CFA_XSP16, literal(-9)))
          CFI V6 load(1, XDATA, add(CFA_XSP16, literal(-8)))
          CFI V7 load(1, XDATA, add(CFA_XSP16, literal(-7)))
          CFI R7 load(1, XDATA, add(CFA_XSP16, literal(-6)))
          CFI ?RET_LOW load(1, XDATA, add(CFA_XSP16, literal(-5)))
          CFI ?RET_HIGH load(1, XDATA, add(CFA_XSP16, literal(-4)))
          CFI ?BRET_EXT load(1, XDATA, add(CFA_XSP16, literal(-3)))
          CFI DPL0 load(1, XDATA, add(CFA_XSP16, literal(-2)))
          CFI DPH0 load(1, XDATA, add(CFA_XSP16, literal(-1)))
          CFI CFA_SP SP+-2
          CFI CFA_XSP16 add(XSP16, 25)
          CFI Block cfiCond209 Using cfiCommon0
          CFI (cfiCond209) Function afFindEndPointDescList
          CFI (cfiCond209) Conditional ??CrossCallReturnLabel_114
          CFI (cfiCond209) DPL0 Frame(CFA_SP, 4)
          CFI (cfiCond209) DPH0 Frame(CFA_SP, 5)
          CFI (cfiCond209) CFA_SP SP+-7
          CFI Block cfiCond210 Using cfiCommon0
          CFI (cfiCond210) Function afFindSimpleDesc
          CFI (cfiCond210) Conditional ??CrossCallReturnLabel_115
          CFI (cfiCond210) R6 load(1, XDATA, add(CFA_XSP16, literal(-12)))
          CFI (cfiCond210) VB load(1, XDATA, add(CFA_XSP16, literal(-11)))
          CFI (cfiCond210) V0 load(1, XDATA, add(CFA_XSP16, literal(-10)))
          CFI (cfiCond210) V1 load(1, XDATA, add(CFA_XSP16, literal(-9)))
          CFI (cfiCond210) V2 load(1, XDATA, add(CFA_XSP16, literal(-8)))
          CFI (cfiCond210) V3 load(1, XDATA, add(CFA_XSP16, literal(-7)))
          CFI (cfiCond210) R7 load(1, XDATA, add(CFA_XSP16, literal(-6)))
          CFI (cfiCond210) ?RET_LOW load(1, XDATA, add(CFA_XSP16, literal(-5)))
          CFI (cfiCond210) ?RET_HIGH load(1, XDATA, add(CFA_XSP16, literal(-4)))
          CFI (cfiCond210) ?BRET_EXT load(1, XDATA, add(CFA_XSP16, literal(-3)))
          CFI (cfiCond210) DPL0 load(1, XDATA, add(CFA_XSP16, literal(-2)))
          CFI (cfiCond210) DPH0 load(1, XDATA, add(CFA_XSP16, literal(-1)))
          CFI (cfiCond210) CFA_SP SP+-2
          CFI (cfiCond210) CFA_XSP16 add(XSP16, 12)
          CFI Block cfiCond211 Using cfiCommon0
          CFI (cfiCond211) Function afIncomingData
          CFI (cfiCond211) Conditional ??CrossCallReturnLabel_116
          CFI (cfiCond211) R6 load(1, XDATA, add(CFA_XSP16, literal(-16)))
          CFI (cfiCond211) VB load(1, XDATA, add(CFA_XSP16, literal(-15)))
          CFI (cfiCond211) V0 load(1, XDATA, add(CFA_XSP16, literal(-14)))
          CFI (cfiCond211) V1 load(1, XDATA, add(CFA_XSP16, literal(-13)))
          CFI (cfiCond211) V2 load(1, XDATA, add(CFA_XSP16, literal(-12)))
          CFI (cfiCond211) V3 load(1, XDATA, add(CFA_XSP16, literal(-11)))
          CFI (cfiCond211) V4 load(1, XDATA, add(CFA_XSP16, literal(-10)))
          CFI (cfiCond211) V5 load(1, XDATA, add(CFA_XSP16, literal(-9)))
          CFI (cfiCond211) V6 load(1, XDATA, add(CFA_XSP16, literal(-8)))
          CFI (cfiCond211) V7 load(1, XDATA, add(CFA_XSP16, literal(-7)))
          CFI (cfiCond211) R7 load(1, XDATA, add(CFA_XSP16, literal(-6)))
          CFI (cfiCond211) ?RET_LOW load(1, XDATA, add(CFA_XSP16, literal(-5)))
          CFI (cfiCond211) ?RET_HIGH load(1, XDATA, add(CFA_XSP16, literal(-4)))
          CFI (cfiCond211) ?BRET_EXT load(1, XDATA, add(CFA_XSP16, literal(-3)))
          CFI (cfiCond211) DPL0 load(1, XDATA, add(CFA_XSP16, literal(-2)))
          CFI (cfiCond211) DPH0 load(1, XDATA, add(CFA_XSP16, literal(-1)))
          CFI (cfiCond211) CFA_SP SP+-2
          CFI (cfiCond211) CFA_XSP16 add(XSP16, 25)
          CFI Block cfiCond212 Using cfiCommon0
          CFI (cfiCond212) Function AF_DataRequest
          CFI (cfiCond212) Conditional ??CrossCallReturnLabel_117
          CFI (cfiCond212) R6 load(1, XDATA, add(CFA_XSP16, literal(-16)))
          CFI (cfiCond212) VB load(1, XDATA, add(CFA_XSP16, literal(-15)))
          CFI (cfiCond212) V0 load(1, XDATA, add(CFA_XSP16, literal(-14)))
          CFI (cfiCond212) V1 load(1, XDATA, add(CFA_XSP16, literal(-13)))
          CFI (cfiCond212) V2 load(1, XDATA, add(CFA_XSP16, literal(-12)))
          CFI (cfiCond212) V3 load(1, XDATA, add(CFA_XSP16, literal(-11)))
          CFI (cfiCond212) V4 load(1, XDATA, add(CFA_XSP16, literal(-10)))
          CFI (cfiCond212) V5 load(1, XDATA, add(CFA_XSP16, literal(-9)))
          CFI (cfiCond212) V6 load(1, XDATA, add(CFA_XSP16, literal(-8)))
          CFI (cfiCond212) V7 load(1, XDATA, add(CFA_XSP16, literal(-7)))
          CFI (cfiCond212) R7 load(1, XDATA, add(CFA_XSP16, literal(-6)))
          CFI (cfiCond212) ?RET_LOW load(1, XDATA, add(CFA_XSP16, literal(-5)))
          CFI (cfiCond212) ?RET_HIGH load(1, XDATA, add(CFA_XSP16, literal(-4)))
          CFI (cfiCond212) ?BRET_EXT load(1, XDATA, add(CFA_XSP16, literal(-3)))
          CFI (cfiCond212) DPL0 load(1, XDATA, add(CFA_XSP16, literal(-2)))
          CFI (cfiCond212) DPH0 load(1, XDATA, add(CFA_XSP16, literal(-1)))
          CFI (cfiCond212) CFA_SP SP+-2
          CFI (cfiCond212) CFA_XSP16 add(XSP16, 46)
          CFI Block cfiCond213 Using cfiCommon0
          CFI (cfiCond213) Function afFindSimpleDesc
          CFI (cfiCond213) Conditional ??CrossCallReturnLabel_118
          CFI (cfiCond213) R6 load(1, XDATA, add(CFA_XSP16, literal(-12)))
          CFI (cfiCond213) VB load(1, XDATA, add(CFA_XSP16, literal(-11)))
          CFI (cfiCond213) V0 load(1, XDATA, add(CFA_XSP16, literal(-10)))
          CFI (cfiCond213) V1 load(1, XDATA, add(CFA_XSP16, literal(-9)))
          CFI (cfiCond213) V2 load(1, XDATA, add(CFA_XSP16, literal(-8)))
          CFI (cfiCond213) V3 load(1, XDATA, add(CFA_XSP16, literal(-7)))
          CFI (cfiCond213) R7 load(1, XDATA, add(CFA_XSP16, literal(-6)))
          CFI (cfiCond213) ?RET_LOW load(1, XDATA, add(CFA_XSP16, literal(-5)))
          CFI (cfiCond213) ?RET_HIGH load(1, XDATA, add(CFA_XSP16, literal(-4)))
          CFI (cfiCond213) ?BRET_EXT load(1, XDATA, add(CFA_XSP16, literal(-3)))
          CFI (cfiCond213) DPL0 load(1, XDATA, add(CFA_XSP16, literal(-2)))
          CFI (cfiCond213) DPH0 load(1, XDATA, add(CFA_XSP16, literal(-1)))
          CFI (cfiCond213) CFA_SP SP+-2
          CFI (cfiCond213) CFA_XSP16 add(XSP16, 12)
          CFI Block cfiPicker214 Using cfiCommon1
          CFI (cfiPicker214) NoFunction
          CFI (cfiPicker214) Picker
        MOVX    A,@DPTR
        MOV     R0,A
        LCALL   ?Subroutine41 & 0xFFFF
??CrossCallReturnLabel_122:
        RET
          CFI EndBlock cfiCond208
          CFI EndBlock cfiCond209
          CFI EndBlock cfiCond210
          CFI EndBlock cfiCond211
          CFI EndBlock cfiCond212
          CFI EndBlock cfiCond213
          CFI EndBlock cfiPicker214

        RSEG BANKED_CODE:CODE:NOROOT(0)
?Subroutine41:
          CFI Block cfiCond215 Using cfiCommon0
          CFI Function afIncomingData
          CFI Conditional ??CrossCallReturnLabel_121, ??CrossCallReturnLabel_96
          CFI R6 load(1, XDATA, add(CFA_XSP16, literal(-16)))
          CFI VB load(1, XDATA, add(CFA_XSP16, literal(-15)))
          CFI V0 load(1, XDATA, add(CFA_XSP16, literal(-14)))
          CFI V1 load(1, XDATA, add(CFA_XSP16, literal(-13)))
          CFI V2 load(1, XDATA, add(CFA_XSP16, literal(-12)))
          CFI V3 load(1, XDATA, add(CFA_XSP16, literal(-11)))
          CFI V4 load(1, XDATA, add(CFA_XSP16, literal(-10)))
          CFI V5 load(1, XDATA, add(CFA_XSP16, literal(-9)))
          CFI V6 load(1, XDATA, add(CFA_XSP16, literal(-8)))
          CFI V7 load(1, XDATA, add(CFA_XSP16, literal(-7)))
          CFI R7 load(1, XDATA, add(CFA_XSP16, literal(-6)))
          CFI ?RET_LOW load(1, XDATA, add(CFA_XSP16, literal(-5)))
          CFI ?RET_HIGH load(1, XDATA, add(CFA_XSP16, literal(-4)))
          CFI ?BRET_EXT load(1, XDATA, add(CFA_XSP16, literal(-3)))
          CFI DPL0 load(1, XDATA, add(CFA_XSP16, literal(-2)))
          CFI DPH0 load(1, XDATA, add(CFA_XSP16, literal(-1)))
          CFI CFA_SP SP+-4
          CFI CFA_XSP16 add(XSP16, 25)
          CFI Block cfiCond216 Using cfiCommon0
          CFI (cfiCond216) Function AF_DataRequest
          CFI (cfiCond216) Conditional ??CrossCallReturnLabel_121, ??CrossCallReturnLabel_97
          CFI (cfiCond216) R6 load(1, XDATA, add(CFA_XSP16, literal(-16)))
          CFI (cfiCond216) VB load(1, XDATA, add(CFA_XSP16, literal(-15)))
          CFI (cfiCond216) V0 load(1, XDATA, add(CFA_XSP16, literal(-14)))
          CFI (cfiCond216) V1 load(1, XDATA, add(CFA_XSP16, literal(-13)))
          CFI (cfiCond216) V2 load(1, XDATA, add(CFA_XSP16, literal(-12)))
          CFI (cfiCond216) V3 load(1, XDATA, add(CFA_XSP16, literal(-11)))
          CFI (cfiCond216) V4 load(1, XDATA, add(CFA_XSP16, literal(-10)))
          CFI (cfiCond216) V5 load(1, XDATA, add(CFA_XSP16, literal(-9)))
          CFI (cfiCond216) V6 load(1, XDATA, add(CFA_XSP16, literal(-8)))
          CFI (cfiCond216) V7 load(1, XDATA, add(CFA_XSP16, literal(-7)))
          CFI (cfiCond216) R7 load(1, XDATA, add(CFA_XSP16, literal(-6)))
          CFI (cfiCond216) ?RET_LOW load(1, XDATA, add(CFA_XSP16, literal(-5)))
          CFI (cfiCond216) ?RET_HIGH load(1, XDATA, add(CFA_XSP16, literal(-4)))
          CFI (cfiCond216) ?BRET_EXT load(1, XDATA, add(CFA_XSP16, literal(-3)))
          CFI (cfiCond216) DPL0 load(1, XDATA, add(CFA_XSP16, literal(-2)))
          CFI (cfiCond216) DPH0 load(1, XDATA, add(CFA_XSP16, literal(-1)))
          CFI (cfiCond216) CFA_SP SP+-4
          CFI (cfiCond216) CFA_XSP16 add(XSP16, 46)
          CFI Block cfiCond217 Using cfiCommon0
          CFI (cfiCond217) Function afIncomingData
          CFI (cfiCond217) Conditional ??CrossCallReturnLabel_121, ??CrossCallReturnLabel_93
          CFI (cfiCond217) R6 load(1, XDATA, add(CFA_XSP16, literal(-16)))
          CFI (cfiCond217) VB load(1, XDATA, add(CFA_XSP16, literal(-15)))
          CFI (cfiCond217) V0 load(1, XDATA, add(CFA_XSP16, literal(-14)))
          CFI (cfiCond217) V1 load(1, XDATA, add(CFA_XSP16, literal(-13)))
          CFI (cfiCond217) V2 load(1, XDATA, add(CFA_XSP16, literal(-12)))
          CFI (cfiCond217) V3 load(1, XDATA, add(CFA_XSP16, literal(-11)))
          CFI (cfiCond217) V4 load(1, XDATA, add(CFA_XSP16, literal(-10)))
          CFI (cfiCond217) V5 load(1, XDATA, add(CFA_XSP16, literal(-9)))
          CFI (cfiCond217) V6 load(1, XDATA, add(CFA_XSP16, literal(-8)))
          CFI (cfiCond217) V7 load(1, XDATA, add(CFA_XSP16, literal(-7)))
          CFI (cfiCond217) R7 load(1, XDATA, add(CFA_XSP16, literal(-6)))
          CFI (cfiCond217) ?RET_LOW load(1, XDATA, add(CFA_XSP16, literal(-5)))
          CFI (cfiCond217) ?RET_HIGH load(1, XDATA, add(CFA_XSP16, literal(-4)))
          CFI (cfiCond217) ?BRET_EXT load(1, XDATA, add(CFA_XSP16, literal(-3)))
          CFI (cfiCond217) DPL0 load(1, XDATA, add(CFA_XSP16, literal(-2)))
          CFI (cfiCond217) DPH0 load(1, XDATA, add(CFA_XSP16, literal(-1)))
          CFI (cfiCond217) CFA_SP SP+-4
          CFI (cfiCond217) CFA_XSP16 add(XSP16, 25)
          CFI Block cfiCond218 Using cfiCommon0
          CFI (cfiCond218) Function afIncomingData
          CFI (cfiCond218) Conditional ??CrossCallReturnLabel_121, ??CrossCallReturnLabel_94
          CFI (cfiCond218) R6 load(1, XDATA, add(CFA_XSP16, literal(-16)))
          CFI (cfiCond218) VB load(1, XDATA, add(CFA_XSP16, literal(-15)))
          CFI (cfiCond218) V0 load(1, XDATA, add(CFA_XSP16, literal(-14)))
          CFI (cfiCond218) V1 load(1, XDATA, add(CFA_XSP16, literal(-13)))
          CFI (cfiCond218) V2 load(1, XDATA, add(CFA_XSP16, literal(-12)))
          CFI (cfiCond218) V3 load(1, XDATA, add(CFA_XSP16, literal(-11)))
          CFI (cfiCond218) V4 load(1, XDATA, add(CFA_XSP16, literal(-10)))
          CFI (cfiCond218) V5 load(1, XDATA, add(CFA_XSP16, literal(-9)))
          CFI (cfiCond218) V6 load(1, XDATA, add(CFA_XSP16, literal(-8)))
          CFI (cfiCond218) V7 load(1, XDATA, add(CFA_XSP16, literal(-7)))
          CFI (cfiCond218) R7 load(1, XDATA, add(CFA_XSP16, literal(-6)))
          CFI (cfiCond218) ?RET_LOW load(1, XDATA, add(CFA_XSP16, literal(-5)))
          CFI (cfiCond218) ?RET_HIGH load(1, XDATA, add(CFA_XSP16, literal(-4)))
          CFI (cfiCond218) ?BRET_EXT load(1, XDATA, add(CFA_XSP16, literal(-3)))
          CFI (cfiCond218) DPL0 load(1, XDATA, add(CFA_XSP16, literal(-2)))
          CFI (cfiCond218) DPH0 load(1, XDATA, add(CFA_XSP16, literal(-1)))
          CFI (cfiCond218) CFA_SP SP+-4
          CFI (cfiCond218) CFA_XSP16 add(XSP16, 25)
          CFI Block cfiCond219 Using cfiCommon0
          CFI (cfiCond219) Function afIncomingData
          CFI (cfiCond219) Conditional ??CrossCallReturnLabel_121, ??CrossCallReturnLabel_95
          CFI (cfiCond219) R6 load(1, XDATA, add(CFA_XSP16, literal(-16)))
          CFI (cfiCond219) VB load(1, XDATA, add(CFA_XSP16, literal(-15)))
          CFI (cfiCond219) V0 load(1, XDATA, add(CFA_XSP16, literal(-14)))
          CFI (cfiCond219) V1 load(1, XDATA, add(CFA_XSP16, literal(-13)))
          CFI (cfiCond219) V2 load(1, XDATA, add(CFA_XSP16, literal(-12)))
          CFI (cfiCond219) V3 load(1, XDATA, add(CFA_XSP16, literal(-11)))
          CFI (cfiCond219) V4 load(1, XDATA, add(CFA_XSP16, literal(-10)))
          CFI (cfiCond219) V5 load(1, XDATA, add(CFA_XSP16, literal(-9)))
          CFI (cfiCond219) V6 load(1, XDATA, add(CFA_XSP16, literal(-8)))
          CFI (cfiCond219) V7 load(1, XDATA, add(CFA_XSP16, literal(-7)))
          CFI (cfiCond219) R7 load(1, XDATA, add(CFA_XSP16, literal(-6)))
          CFI (cfiCond219) ?RET_LOW load(1, XDATA, add(CFA_XSP16, literal(-5)))
          CFI (cfiCond219) ?RET_HIGH load(1, XDATA, add(CFA_XSP16, literal(-4)))
          CFI (cfiCond219) ?BRET_EXT load(1, XDATA, add(CFA_XSP16, literal(-3)))
          CFI (cfiCond219) DPL0 load(1, XDATA, add(CFA_XSP16, literal(-2)))
          CFI (cfiCond219) DPH0 load(1, XDATA, add(CFA_XSP16, literal(-1)))
          CFI (cfiCond219) CFA_SP SP+-4
          CFI (cfiCond219) CFA_XSP16 add(XSP16, 25)
          CFI Block cfiCond220 Using cfiCommon0
          CFI (cfiCond220) Function afIncomingData
          CFI (cfiCond220) Conditional ??CrossCallReturnLabel_120, ??CrossCallReturnLabel_111
          CFI (cfiCond220) R6 load(1, XDATA, add(CFA_XSP16, literal(-16)))
          CFI (cfiCond220) VB load(1, XDATA, add(CFA_XSP16, literal(-15)))
          CFI (cfiCond220) V0 load(1, XDATA, add(CFA_XSP16, literal(-14)))
          CFI (cfiCond220) V1 load(1, XDATA, add(CFA_XSP16, literal(-13)))
          CFI (cfiCond220) V2 load(1, XDATA, add(CFA_XSP16, literal(-12)))
          CFI (cfiCond220) V3 load(1, XDATA, add(CFA_XSP16, literal(-11)))
          CFI (cfiCond220) V4 load(1, XDATA, add(CFA_XSP16, literal(-10)))
          CFI (cfiCond220) V5 load(1, XDATA, add(CFA_XSP16, literal(-9)))
          CFI (cfiCond220) V6 load(1, XDATA, add(CFA_XSP16, literal(-8)))
          CFI (cfiCond220) V7 load(1, XDATA, add(CFA_XSP16, literal(-7)))
          CFI (cfiCond220) R7 load(1, XDATA, add(CFA_XSP16, literal(-6)))
          CFI (cfiCond220) ?RET_LOW load(1, XDATA, add(CFA_XSP16, literal(-5)))
          CFI (cfiCond220) ?RET_HIGH load(1, XDATA, add(CFA_XSP16, literal(-4)))
          CFI (cfiCond220) ?BRET_EXT load(1, XDATA, add(CFA_XSP16, literal(-3)))
          CFI (cfiCond220) DPL0 load(1, XDATA, add(CFA_XSP16, literal(-2)))
          CFI (cfiCond220) DPH0 load(1, XDATA, add(CFA_XSP16, literal(-1)))
          CFI (cfiCond220) CFA_SP SP+-4
          CFI (cfiCond220) CFA_XSP16 add(XSP16, 25)
          CFI Block cfiCond221 Using cfiCommon0
          CFI (cfiCond221) Function afIncomingData
          CFI (cfiCond221) Conditional ??CrossCallReturnLabel_120, ??CrossCallReturnLabel_112
          CFI (cfiCond221) R6 load(1, XDATA, add(CFA_XSP16, literal(-16)))
          CFI (cfiCond221) VB load(1, XDATA, add(CFA_XSP16, literal(-15)))
          CFI (cfiCond221) V0 load(1, XDATA, add(CFA_XSP16, literal(-14)))
          CFI (cfiCond221) V1 load(1, XDATA, add(CFA_XSP16, literal(-13)))
          CFI (cfiCond221) V2 load(1, XDATA, add(CFA_XSP16, literal(-12)))
          CFI (cfiCond221) V3 load(1, XDATA, add(CFA_XSP16, literal(-11)))
          CFI (cfiCond221) V4 load(1, XDATA, add(CFA_XSP16, literal(-10)))
          CFI (cfiCond221) V5 load(1, XDATA, add(CFA_XSP16, literal(-9)))
          CFI (cfiCond221) V6 load(1, XDATA, add(CFA_XSP16, literal(-8)))
          CFI (cfiCond221) V7 load(1, XDATA, add(CFA_XSP16, literal(-7)))
          CFI (cfiCond221) R7 load(1, XDATA, add(CFA_XSP16, literal(-6)))
          CFI (cfiCond221) ?RET_LOW load(1, XDATA, add(CFA_XSP16, literal(-5)))
          CFI (cfiCond221) ?RET_HIGH load(1, XDATA, add(CFA_XSP16, literal(-4)))
          CFI (cfiCond221) ?BRET_EXT load(1, XDATA, add(CFA_XSP16, literal(-3)))
          CFI (cfiCond221) DPL0 load(1, XDATA, add(CFA_XSP16, literal(-2)))
          CFI (cfiCond221) DPH0 load(1, XDATA, add(CFA_XSP16, literal(-1)))
          CFI (cfiCond221) CFA_SP SP+-4
          CFI (cfiCond221) CFA_XSP16 add(XSP16, 25)
          CFI Block cfiCond222 Using cfiCommon0
          CFI (cfiCond222) Function AF_DataRequest
          CFI (cfiCond222) Conditional ??CrossCallReturnLabel_122, ??CrossCallReturnLabel_117
          CFI (cfiCond222) R6 load(1, XDATA, add(CFA_XSP16, literal(-16)))
          CFI (cfiCond222) VB load(1, XDATA, add(CFA_XSP16, literal(-15)))
          CFI (cfiCond222) V0 load(1, XDATA, add(CFA_XSP16, literal(-14)))
          CFI (cfiCond222) V1 load(1, XDATA, add(CFA_XSP16, literal(-13)))
          CFI (cfiCond222) V2 load(1, XDATA, add(CFA_XSP16, literal(-12)))
          CFI (cfiCond222) V3 load(1, XDATA, add(CFA_XSP16, literal(-11)))
          CFI (cfiCond222) V4 load(1, XDATA, add(CFA_XSP16, literal(-10)))
          CFI (cfiCond222) V5 load(1, XDATA, add(CFA_XSP16, literal(-9)))
          CFI (cfiCond222) V6 load(1, XDATA, add(CFA_XSP16, literal(-8)))
          CFI (cfiCond222) V7 load(1, XDATA, add(CFA_XSP16, literal(-7)))
          CFI (cfiCond222) R7 load(1, XDATA, add(CFA_XSP16, literal(-6)))
          CFI (cfiCond222) ?RET_LOW load(1, XDATA, add(CFA_XSP16, literal(-5)))
          CFI (cfiCond222) ?RET_HIGH load(1, XDATA, add(CFA_XSP16, literal(-4)))
          CFI (cfiCond222) ?BRET_EXT load(1, XDATA, add(CFA_XSP16, literal(-3)))
          CFI (cfiCond222) DPL0 load(1, XDATA, add(CFA_XSP16, literal(-2)))
          CFI (cfiCond222) DPH0 load(1, XDATA, add(CFA_XSP16, literal(-1)))
          CFI (cfiCond222) CFA_SP SP+-4
          CFI (cfiCond222) CFA_XSP16 add(XSP16, 46)
          CFI Block cfiCond223 Using cfiCommon0
          CFI (cfiCond223) Function afFindSimpleDesc
          CFI (cfiCond223) Conditional ??CrossCallReturnLabel_122, ??CrossCallReturnLabel_118
          CFI (cfiCond223) R6 load(1, XDATA, add(CFA_XSP16, literal(-12)))
          CFI (cfiCond223) VB load(1, XDATA, add(CFA_XSP16, literal(-11)))
          CFI (cfiCond223) V0 load(1, XDATA, add(CFA_XSP16, literal(-10)))
          CFI (cfiCond223) V1 load(1, XDATA, add(CFA_XSP16, literal(-9)))
          CFI (cfiCond223) V2 load(1, XDATA, add(CFA_XSP16, literal(-8)))
          CFI (cfiCond223) V3 load(1, XDATA, add(CFA_XSP16, literal(-7)))
          CFI (cfiCond223) R7 load(1, XDATA, add(CFA_XSP16, literal(-6)))
          CFI (cfiCond223) ?RET_LOW load(1, XDATA, add(CFA_XSP16, literal(-5)))
          CFI (cfiCond223) ?RET_HIGH load(1, XDATA, add(CFA_XSP16, literal(-4)))
          CFI (cfiCond223) ?BRET_EXT load(1, XDATA, add(CFA_XSP16, literal(-3)))
          CFI (cfiCond223) DPL0 load(1, XDATA, add(CFA_XSP16, literal(-2)))
          CFI (cfiCond223) DPH0 load(1, XDATA, add(CFA_XSP16, literal(-1)))
          CFI (cfiCond223) CFA_SP SP+-4
          CFI (cfiCond223) CFA_XSP16 add(XSP16, 12)
          CFI Block cfiCond224 Using cfiCommon0
          CFI (cfiCond224) Function afIncomingData
          CFI (cfiCond224) Conditional ??CrossCallReturnLabel_122, ??CrossCallReturnLabel_116
          CFI (cfiCond224) R6 load(1, XDATA, add(CFA_XSP16, literal(-16)))
          CFI (cfiCond224) VB load(1, XDATA, add(CFA_XSP16, literal(-15)))
          CFI (cfiCond224) V0 load(1, XDATA, add(CFA_XSP16, literal(-14)))
          CFI (cfiCond224) V1 load(1, XDATA, add(CFA_XSP16, literal(-13)))
          CFI (cfiCond224) V2 load(1, XDATA, add(CFA_XSP16, literal(-12)))
          CFI (cfiCond224) V3 load(1, XDATA, add(CFA_XSP16, literal(-11)))
          CFI (cfiCond224) V4 load(1, XDATA, add(CFA_XSP16, literal(-10)))
          CFI (cfiCond224) V5 load(1, XDATA, add(CFA_XSP16, literal(-9)))
          CFI (cfiCond224) V6 load(1, XDATA, add(CFA_XSP16, literal(-8)))
          CFI (cfiCond224) V7 load(1, XDATA, add(CFA_XSP16, literal(-7)))
          CFI (cfiCond224) R7 load(1, XDATA, add(CFA_XSP16, literal(-6)))
          CFI (cfiCond224) ?RET_LOW load(1, XDATA, add(CFA_XSP16, literal(-5)))
          CFI (cfiCond224) ?RET_HIGH load(1, XDATA, add(CFA_XSP16, literal(-4)))
          CFI (cfiCond224) ?BRET_EXT load(1, XDATA, add(CFA_XSP16, literal(-3)))
          CFI (cfiCond224) DPL0 load(1, XDATA, add(CFA_XSP16, literal(-2)))
          CFI (cfiCond224) DPH0 load(1, XDATA, add(CFA_XSP16, literal(-1)))
          CFI (cfiCond224) CFA_SP SP+-4
          CFI (cfiCond224) CFA_XSP16 add(XSP16, 25)
          CFI Block cfiCond225 Using cfiCommon0
          CFI (cfiCond225) Function afFindEndPointDescList
          CFI (cfiCond225) Conditional ??CrossCallReturnLabel_122, ??CrossCallReturnLabel_114
          CFI (cfiCond225) DPL0 Frame(CFA_SP, 4)
          CFI (cfiCond225) DPH0 Frame(CFA_SP, 5)
          CFI (cfiCond225) CFA_SP SP+-9
          CFI Block cfiCond226 Using cfiCommon0
          CFI (cfiCond226) Function afFindSimpleDesc
          CFI (cfiCond226) Conditional ??CrossCallReturnLabel_122, ??CrossCallReturnLabel_115
          CFI (cfiCond226) R6 load(1, XDATA, add(CFA_XSP16, literal(-12)))
          CFI (cfiCond226) VB load(1, XDATA, add(CFA_XSP16, literal(-11)))
          CFI (cfiCond226) V0 load(1, XDATA, add(CFA_XSP16, literal(-10)))
          CFI (cfiCond226) V1 load(1, XDATA, add(CFA_XSP16, literal(-9)))
          CFI (cfiCond226) V2 load(1, XDATA, add(CFA_XSP16, literal(-8)))
          CFI (cfiCond226) V3 load(1, XDATA, add(CFA_XSP16, literal(-7)))
          CFI (cfiCond226) R7 load(1, XDATA, add(CFA_XSP16, literal(-6)))
          CFI (cfiCond226) ?RET_LOW load(1, XDATA, add(CFA_XSP16, literal(-5)))
          CFI (cfiCond226) ?RET_HIGH load(1, XDATA, add(CFA_XSP16, literal(-4)))
          CFI (cfiCond226) ?BRET_EXT load(1, XDATA, add(CFA_XSP16, literal(-3)))
          CFI (cfiCond226) DPL0 load(1, XDATA, add(CFA_XSP16, literal(-2)))
          CFI (cfiCond226) DPH0 load(1, XDATA, add(CFA_XSP16, literal(-1)))
          CFI (cfiCond226) CFA_SP SP+-4
          CFI (cfiCond226) CFA_XSP16 add(XSP16, 12)
          CFI Block cfiCond227 Using cfiCommon0
          CFI (cfiCond227) Function afIncomingData
          CFI (cfiCond227) Conditional ??CrossCallReturnLabel_122, ??CrossCallReturnLabel_113
          CFI (cfiCond227) R6 load(1, XDATA, add(CFA_XSP16, literal(-16)))
          CFI (cfiCond227) VB load(1, XDATA, add(CFA_XSP16, literal(-15)))
          CFI (cfiCond227) V0 load(1, XDATA, add(CFA_XSP16, literal(-14)))
          CFI (cfiCond227) V1 load(1, XDATA, add(CFA_XSP16, literal(-13)))
          CFI (cfiCond227) V2 load(1, XDATA, add(CFA_XSP16, literal(-12)))
          CFI (cfiCond227) V3 load(1, XDATA, add(CFA_XSP16, literal(-11)))
          CFI (cfiCond227) V4 load(1, XDATA, add(CFA_XSP16, literal(-10)))
          CFI (cfiCond227) V5 load(1, XDATA, add(CFA_XSP16, literal(-9)))
          CFI (cfiCond227) V6 load(1, XDATA, add(CFA_XSP16, literal(-8)))
          CFI (cfiCond227) V7 load(1, XDATA, add(CFA_XSP16, literal(-7)))
          CFI (cfiCond227) R7 load(1, XDATA, add(CFA_XSP16, literal(-6)))
          CFI (cfiCond227) ?RET_LOW load(1, XDATA, add(CFA_XSP16, literal(-5)))
          CFI (cfiCond227) ?RET_HIGH load(1, XDATA, add(CFA_XSP16, literal(-4)))
          CFI (cfiCond227) ?BRET_EXT load(1, XDATA, add(CFA_XSP16, literal(-3)))
          CFI (cfiCond227) DPL0 load(1, XDATA, add(CFA_XSP16, literal(-2)))
          CFI (cfiCond227) DPH0 load(1, XDATA, add(CFA_XSP16, literal(-1)))
          CFI (cfiCond227) CFA_SP SP+-4
          CFI (cfiCond227) CFA_XSP16 add(XSP16, 25)
          CFI Block cfiPicker228 Using cfiCommon1
          CFI (cfiPicker228) NoFunction
          CFI (cfiPicker228) Picker
        INC     DPTR
          CFI EndBlock cfiCond215
          CFI EndBlock cfiCond216
          CFI EndBlock cfiCond217
          CFI EndBlock cfiCond218
          CFI EndBlock cfiCond219
          CFI EndBlock cfiCond220
          CFI EndBlock cfiCond221
          CFI EndBlock cfiCond222
          CFI EndBlock cfiCond223
          CFI EndBlock cfiCond224
          CFI EndBlock cfiCond225
          CFI EndBlock cfiCond226
          CFI EndBlock cfiCond227
          CFI EndBlock cfiPicker228
        REQUIRE ??Subroutine55_0
        ; // Fall through to label ??Subroutine55_0

        RSEG BANKED_CODE:CODE:NOROOT(0)
??Subroutine55_0:
          CFI Block cfiCond229 Using cfiCommon0
          CFI Function AF_DataRequest
          CFI Conditional ??CrossCallReturnLabel_119
          CFI R6 load(1, XDATA, add(CFA_XSP16, literal(-16)))
          CFI VB load(1, XDATA, add(CFA_XSP16, literal(-15)))
          CFI V0 load(1, XDATA, add(CFA_XSP16, literal(-14)))
          CFI V1 load(1, XDATA, add(CFA_XSP16, literal(-13)))
          CFI V2 load(1, XDATA, add(CFA_XSP16, literal(-12)))
          CFI V3 load(1, XDATA, add(CFA_XSP16, literal(-11)))
          CFI V4 load(1, XDATA, add(CFA_XSP16, literal(-10)))
          CFI V5 load(1, XDATA, add(CFA_XSP16, literal(-9)))
          CFI V6 load(1, XDATA, add(CFA_XSP16, literal(-8)))
          CFI V7 load(1, XDATA, add(CFA_XSP16, literal(-7)))
          CFI R7 load(1, XDATA, add(CFA_XSP16, literal(-6)))
          CFI ?RET_LOW load(1, XDATA, add(CFA_XSP16, literal(-5)))
          CFI ?RET_HIGH load(1, XDATA, add(CFA_XSP16, literal(-4)))
          CFI ?BRET_EXT load(1, XDATA, add(CFA_XSP16, literal(-3)))
          CFI DPL0 load(1, XDATA, add(CFA_XSP16, literal(-2)))
          CFI DPH0 load(1, XDATA, add(CFA_XSP16, literal(-1)))
          CFI CFA_SP SP+-2
          CFI CFA_XSP16 add(XSP16, 46)
          CFI Block cfiCond230 Using cfiCommon0
          CFI (cfiCond230) Function afIncomingData
          CFI (cfiCond230) Conditional ??CrossCallReturnLabel_121, ??CrossCallReturnLabel_96
          CFI (cfiCond230) R6 load(1, XDATA, add(CFA_XSP16, literal(-16)))
          CFI (cfiCond230) VB load(1, XDATA, add(CFA_XSP16, literal(-15)))
          CFI (cfiCond230) V0 load(1, XDATA, add(CFA_XSP16, literal(-14)))
          CFI (cfiCond230) V1 load(1, XDATA, add(CFA_XSP16, literal(-13)))
          CFI (cfiCond230) V2 load(1, XDATA, add(CFA_XSP16, literal(-12)))
          CFI (cfiCond230) V3 load(1, XDATA, add(CFA_XSP16, literal(-11)))
          CFI (cfiCond230) V4 load(1, XDATA, add(CFA_XSP16, literal(-10)))
          CFI (cfiCond230) V5 load(1, XDATA, add(CFA_XSP16, literal(-9)))
          CFI (cfiCond230) V6 load(1, XDATA, add(CFA_XSP16, literal(-8)))
          CFI (cfiCond230) V7 load(1, XDATA, add(CFA_XSP16, literal(-7)))
          CFI (cfiCond230) R7 load(1, XDATA, add(CFA_XSP16, literal(-6)))
          CFI (cfiCond230) ?RET_LOW load(1, XDATA, add(CFA_XSP16, literal(-5)))
          CFI (cfiCond230) ?RET_HIGH load(1, XDATA, add(CFA_XSP16, literal(-4)))
          CFI (cfiCond230) ?BRET_EXT load(1, XDATA, add(CFA_XSP16, literal(-3)))
          CFI (cfiCond230) DPL0 load(1, XDATA, add(CFA_XSP16, literal(-2)))
          CFI (cfiCond230) DPH0 load(1, XDATA, add(CFA_XSP16, literal(-1)))
          CFI (cfiCond230) CFA_SP SP+-4
          CFI (cfiCond230) CFA_XSP16 add(XSP16, 25)
          CFI Block cfiCond231 Using cfiCommon0
          CFI (cfiCond231) Function AF_DataRequest
          CFI (cfiCond231) Conditional ??CrossCallReturnLabel_121, ??CrossCallReturnLabel_97
          CFI (cfiCond231) R6 load(1, XDATA, add(CFA_XSP16, literal(-16)))
          CFI (cfiCond231) VB load(1, XDATA, add(CFA_XSP16, literal(-15)))
          CFI (cfiCond231) V0 load(1, XDATA, add(CFA_XSP16, literal(-14)))
          CFI (cfiCond231) V1 load(1, XDATA, add(CFA_XSP16, literal(-13)))
          CFI (cfiCond231) V2 load(1, XDATA, add(CFA_XSP16, literal(-12)))
          CFI (cfiCond231) V3 load(1, XDATA, add(CFA_XSP16, literal(-11)))
          CFI (cfiCond231) V4 load(1, XDATA, add(CFA_XSP16, literal(-10)))
          CFI (cfiCond231) V5 load(1, XDATA, add(CFA_XSP16, literal(-9)))
          CFI (cfiCond231) V6 load(1, XDATA, add(CFA_XSP16, literal(-8)))
          CFI (cfiCond231) V7 load(1, XDATA, add(CFA_XSP16, literal(-7)))
          CFI (cfiCond231) R7 load(1, XDATA, add(CFA_XSP16, literal(-6)))
          CFI (cfiCond231) ?RET_LOW load(1, XDATA, add(CFA_XSP16, literal(-5)))
          CFI (cfiCond231) ?RET_HIGH load(1, XDATA, add(CFA_XSP16, literal(-4)))
          CFI (cfiCond231) ?BRET_EXT load(1, XDATA, add(CFA_XSP16, literal(-3)))
          CFI (cfiCond231) DPL0 load(1, XDATA, add(CFA_XSP16, literal(-2)))
          CFI (cfiCond231) DPH0 load(1, XDATA, add(CFA_XSP16, literal(-1)))
          CFI (cfiCond231) CFA_SP SP+-4
          CFI (cfiCond231) CFA_XSP16 add(XSP16, 46)
          CFI Block cfiCond232 Using cfiCommon0
          CFI (cfiCond232) Function afIncomingData
          CFI (cfiCond232) Conditional ??CrossCallReturnLabel_121, ??CrossCallReturnLabel_93
          CFI (cfiCond232) R6 load(1, XDATA, add(CFA_XSP16, literal(-16)))
          CFI (cfiCond232) VB load(1, XDATA, add(CFA_XSP16, literal(-15)))
          CFI (cfiCond232) V0 load(1, XDATA, add(CFA_XSP16, literal(-14)))
          CFI (cfiCond232) V1 load(1, XDATA, add(CFA_XSP16, literal(-13)))
          CFI (cfiCond232) V2 load(1, XDATA, add(CFA_XSP16, literal(-12)))
          CFI (cfiCond232) V3 load(1, XDATA, add(CFA_XSP16, literal(-11)))
          CFI (cfiCond232) V4 load(1, XDATA, add(CFA_XSP16, literal(-10)))
          CFI (cfiCond232) V5 load(1, XDATA, add(CFA_XSP16, literal(-9)))
          CFI (cfiCond232) V6 load(1, XDATA, add(CFA_XSP16, literal(-8)))
          CFI (cfiCond232) V7 load(1, XDATA, add(CFA_XSP16, literal(-7)))
          CFI (cfiCond232) R7 load(1, XDATA, add(CFA_XSP16, literal(-6)))
          CFI (cfiCond232) ?RET_LOW load(1, XDATA, add(CFA_XSP16, literal(-5)))
          CFI (cfiCond232) ?RET_HIGH load(1, XDATA, add(CFA_XSP16, literal(-4)))
          CFI (cfiCond232) ?BRET_EXT load(1, XDATA, add(CFA_XSP16, literal(-3)))
          CFI (cfiCond232) DPL0 load(1, XDATA, add(CFA_XSP16, literal(-2)))
          CFI (cfiCond232) DPH0 load(1, XDATA, add(CFA_XSP16, literal(-1)))
          CFI (cfiCond232) CFA_SP SP+-4
          CFI (cfiCond232) CFA_XSP16 add(XSP16, 25)
          CFI Block cfiCond233 Using cfiCommon0
          CFI (cfiCond233) Function afIncomingData
          CFI (cfiCond233) Conditional ??CrossCallReturnLabel_121, ??CrossCallReturnLabel_94
          CFI (cfiCond233) R6 load(1, XDATA, add(CFA_XSP16, literal(-16)))
          CFI (cfiCond233) VB load(1, XDATA, add(CFA_XSP16, literal(-15)))
          CFI (cfiCond233) V0 load(1, XDATA, add(CFA_XSP16, literal(-14)))
          CFI (cfiCond233) V1 load(1, XDATA, add(CFA_XSP16, literal(-13)))
          CFI (cfiCond233) V2 load(1, XDATA, add(CFA_XSP16, literal(-12)))
          CFI (cfiCond233) V3 load(1, XDATA, add(CFA_XSP16, literal(-11)))
          CFI (cfiCond233) V4 load(1, XDATA, add(CFA_XSP16, literal(-10)))
          CFI (cfiCond233) V5 load(1, XDATA, add(CFA_XSP16, literal(-9)))
          CFI (cfiCond233) V6 load(1, XDATA, add(CFA_XSP16, literal(-8)))
          CFI (cfiCond233) V7 load(1, XDATA, add(CFA_XSP16, literal(-7)))
          CFI (cfiCond233) R7 load(1, XDATA, add(CFA_XSP16, literal(-6)))
          CFI (cfiCond233) ?RET_LOW load(1, XDATA, add(CFA_XSP16, literal(-5)))
          CFI (cfiCond233) ?RET_HIGH load(1, XDATA, add(CFA_XSP16, literal(-4)))
          CFI (cfiCond233) ?BRET_EXT load(1, XDATA, add(CFA_XSP16, literal(-3)))
          CFI (cfiCond233) DPL0 load(1, XDATA, add(CFA_XSP16, literal(-2)))
          CFI (cfiCond233) DPH0 load(1, XDATA, add(CFA_XSP16, literal(-1)))
          CFI (cfiCond233) CFA_SP SP+-4
          CFI (cfiCond233) CFA_XSP16 add(XSP16, 25)
          CFI Block cfiCond234 Using cfiCommon0
          CFI (cfiCond234) Function afIncomingData
          CFI (cfiCond234) Conditional ??CrossCallReturnLabel_121, ??CrossCallReturnLabel_95
          CFI (cfiCond234) R6 load(1, XDATA, add(CFA_XSP16, literal(-16)))
          CFI (cfiCond234) VB load(1, XDATA, add(CFA_XSP16, literal(-15)))
          CFI (cfiCond234) V0 load(1, XDATA, add(CFA_XSP16, literal(-14)))
          CFI (cfiCond234) V1 load(1, XDATA, add(CFA_XSP16, literal(-13)))
          CFI (cfiCond234) V2 load(1, XDATA, add(CFA_XSP16, literal(-12)))
          CFI (cfiCond234) V3 load(1, XDATA, add(CFA_XSP16, literal(-11)))
          CFI (cfiCond234) V4 load(1, XDATA, add(CFA_XSP16, literal(-10)))
          CFI (cfiCond234) V5 load(1, XDATA, add(CFA_XSP16, literal(-9)))
          CFI (cfiCond234) V6 load(1, XDATA, add(CFA_XSP16, literal(-8)))
          CFI (cfiCond234) V7 load(1, XDATA, add(CFA_XSP16, literal(-7)))
          CFI (cfiCond234) R7 load(1, XDATA, add(CFA_XSP16, literal(-6)))
          CFI (cfiCond234) ?RET_LOW load(1, XDATA, add(CFA_XSP16, literal(-5)))
          CFI (cfiCond234) ?RET_HIGH load(1, XDATA, add(CFA_XSP16, literal(-4)))
          CFI (cfiCond234) ?BRET_EXT load(1, XDATA, add(CFA_XSP16, literal(-3)))
          CFI (cfiCond234) DPL0 load(1, XDATA, add(CFA_XSP16, literal(-2)))
          CFI (cfiCond234) DPH0 load(1, XDATA, add(CFA_XSP16, literal(-1)))
          CFI (cfiCond234) CFA_SP SP+-4
          CFI (cfiCond234) CFA_XSP16 add(XSP16, 25)
          CFI Block cfiCond235 Using cfiCommon0
          CFI (cfiCond235) Function afIncomingData
          CFI (cfiCond235) Conditional ??CrossCallReturnLabel_120, ??CrossCallReturnLabel_111
          CFI (cfiCond235) R6 load(1, XDATA, add(CFA_XSP16, literal(-16)))
          CFI (cfiCond235) VB load(1, XDATA, add(CFA_XSP16, literal(-15)))
          CFI (cfiCond235) V0 load(1, XDATA, add(CFA_XSP16, literal(-14)))
          CFI (cfiCond235) V1 load(1, XDATA, add(CFA_XSP16, literal(-13)))
          CFI (cfiCond235) V2 load(1, XDATA, add(CFA_XSP16, literal(-12)))
          CFI (cfiCond235) V3 load(1, XDATA, add(CFA_XSP16, literal(-11)))
          CFI (cfiCond235) V4 load(1, XDATA, add(CFA_XSP16, literal(-10)))
          CFI (cfiCond235) V5 load(1, XDATA, add(CFA_XSP16, literal(-9)))
          CFI (cfiCond235) V6 load(1, XDATA, add(CFA_XSP16, literal(-8)))
          CFI (cfiCond235) V7 load(1, XDATA, add(CFA_XSP16, literal(-7)))
          CFI (cfiCond235) R7 load(1, XDATA, add(CFA_XSP16, literal(-6)))
          CFI (cfiCond235) ?RET_LOW load(1, XDATA, add(CFA_XSP16, literal(-5)))
          CFI (cfiCond235) ?RET_HIGH load(1, XDATA, add(CFA_XSP16, literal(-4)))
          CFI (cfiCond235) ?BRET_EXT load(1, XDATA, add(CFA_XSP16, literal(-3)))
          CFI (cfiCond235) DPL0 load(1, XDATA, add(CFA_XSP16, literal(-2)))
          CFI (cfiCond235) DPH0 load(1, XDATA, add(CFA_XSP16, literal(-1)))
          CFI (cfiCond235) CFA_SP SP+-4
          CFI (cfiCond235) CFA_XSP16 add(XSP16, 25)
          CFI Block cfiCond236 Using cfiCommon0
          CFI (cfiCond236) Function afIncomingData
          CFI (cfiCond236) Conditional ??CrossCallReturnLabel_120, ??CrossCallReturnLabel_112
          CFI (cfiCond236) R6 load(1, XDATA, add(CFA_XSP16, literal(-16)))
          CFI (cfiCond236) VB load(1, XDATA, add(CFA_XSP16, literal(-15)))
          CFI (cfiCond236) V0 load(1, XDATA, add(CFA_XSP16, literal(-14)))
          CFI (cfiCond236) V1 load(1, XDATA, add(CFA_XSP16, literal(-13)))
          CFI (cfiCond236) V2 load(1, XDATA, add(CFA_XSP16, literal(-12)))
          CFI (cfiCond236) V3 load(1, XDATA, add(CFA_XSP16, literal(-11)))
          CFI (cfiCond236) V4 load(1, XDATA, add(CFA_XSP16, literal(-10)))
          CFI (cfiCond236) V5 load(1, XDATA, add(CFA_XSP16, literal(-9)))
          CFI (cfiCond236) V6 load(1, XDATA, add(CFA_XSP16, literal(-8)))
          CFI (cfiCond236) V7 load(1, XDATA, add(CFA_XSP16, literal(-7)))
          CFI (cfiCond236) R7 load(1, XDATA, add(CFA_XSP16, literal(-6)))
          CFI (cfiCond236) ?RET_LOW load(1, XDATA, add(CFA_XSP16, literal(-5)))
          CFI (cfiCond236) ?RET_HIGH load(1, XDATA, add(CFA_XSP16, literal(-4)))
          CFI (cfiCond236) ?BRET_EXT load(1, XDATA, add(CFA_XSP16, literal(-3)))
          CFI (cfiCond236) DPL0 load(1, XDATA, add(CFA_XSP16, literal(-2)))
          CFI (cfiCond236) DPH0 load(1, XDATA, add(CFA_XSP16, literal(-1)))
          CFI (cfiCond236) CFA_SP SP+-4
          CFI (cfiCond236) CFA_XSP16 add(XSP16, 25)
          CFI Block cfiCond237 Using cfiCommon0
          CFI (cfiCond237) Function AF_DataRequest
          CFI (cfiCond237) Conditional ??CrossCallReturnLabel_122, ??CrossCallReturnLabel_117
          CFI (cfiCond237) R6 load(1, XDATA, add(CFA_XSP16, literal(-16)))
          CFI (cfiCond237) VB load(1, XDATA, add(CFA_XSP16, literal(-15)))
          CFI (cfiCond237) V0 load(1, XDATA, add(CFA_XSP16, literal(-14)))
          CFI (cfiCond237) V1 load(1, XDATA, add(CFA_XSP16, literal(-13)))
          CFI (cfiCond237) V2 load(1, XDATA, add(CFA_XSP16, literal(-12)))
          CFI (cfiCond237) V3 load(1, XDATA, add(CFA_XSP16, literal(-11)))
          CFI (cfiCond237) V4 load(1, XDATA, add(CFA_XSP16, literal(-10)))
          CFI (cfiCond237) V5 load(1, XDATA, add(CFA_XSP16, literal(-9)))
          CFI (cfiCond237) V6 load(1, XDATA, add(CFA_XSP16, literal(-8)))
          CFI (cfiCond237) V7 load(1, XDATA, add(CFA_XSP16, literal(-7)))
          CFI (cfiCond237) R7 load(1, XDATA, add(CFA_XSP16, literal(-6)))
          CFI (cfiCond237) ?RET_LOW load(1, XDATA, add(CFA_XSP16, literal(-5)))
          CFI (cfiCond237) ?RET_HIGH load(1, XDATA, add(CFA_XSP16, literal(-4)))
          CFI (cfiCond237) ?BRET_EXT load(1, XDATA, add(CFA_XSP16, literal(-3)))
          CFI (cfiCond237) DPL0 load(1, XDATA, add(CFA_XSP16, literal(-2)))
          CFI (cfiCond237) DPH0 load(1, XDATA, add(CFA_XSP16, literal(-1)))
          CFI (cfiCond237) CFA_SP SP+-4
          CFI (cfiCond237) CFA_XSP16 add(XSP16, 46)
          CFI Block cfiCond238 Using cfiCommon0
          CFI (cfiCond238) Function afFindSimpleDesc
          CFI (cfiCond238) Conditional ??CrossCallReturnLabel_122, ??CrossCallReturnLabel_118
          CFI (cfiCond238) R6 load(1, XDATA, add(CFA_XSP16, literal(-12)))
          CFI (cfiCond238) VB load(1, XDATA, add(CFA_XSP16, literal(-11)))
          CFI (cfiCond238) V0 load(1, XDATA, add(CFA_XSP16, literal(-10)))
          CFI (cfiCond238) V1 load(1, XDATA, add(CFA_XSP16, literal(-9)))
          CFI (cfiCond238) V2 load(1, XDATA, add(CFA_XSP16, literal(-8)))
          CFI (cfiCond238) V3 load(1, XDATA, add(CFA_XSP16, literal(-7)))
          CFI (cfiCond238) R7 load(1, XDATA, add(CFA_XSP16, literal(-6)))
          CFI (cfiCond238) ?RET_LOW load(1, XDATA, add(CFA_XSP16, literal(-5)))
          CFI (cfiCond238) ?RET_HIGH load(1, XDATA, add(CFA_XSP16, literal(-4)))
          CFI (cfiCond238) ?BRET_EXT load(1, XDATA, add(CFA_XSP16, literal(-3)))
          CFI (cfiCond238) DPL0 load(1, XDATA, add(CFA_XSP16, literal(-2)))
          CFI (cfiCond238) DPH0 load(1, XDATA, add(CFA_XSP16, literal(-1)))
          CFI (cfiCond238) CFA_SP SP+-4
          CFI (cfiCond238) CFA_XSP16 add(XSP16, 12)
          CFI Block cfiCond239 Using cfiCommon0
          CFI (cfiCond239) Function afIncomingData
          CFI (cfiCond239) Conditional ??CrossCallReturnLabel_122, ??CrossCallReturnLabel_116
          CFI (cfiCond239) R6 load(1, XDATA, add(CFA_XSP16, literal(-16)))
          CFI (cfiCond239) VB load(1, XDATA, add(CFA_XSP16, literal(-15)))
          CFI (cfiCond239) V0 load(1, XDATA, add(CFA_XSP16, literal(-14)))
          CFI (cfiCond239) V1 load(1, XDATA, add(CFA_XSP16, literal(-13)))
          CFI (cfiCond239) V2 load(1, XDATA, add(CFA_XSP16, literal(-12)))
          CFI (cfiCond239) V3 load(1, XDATA, add(CFA_XSP16, literal(-11)))
          CFI (cfiCond239) V4 load(1, XDATA, add(CFA_XSP16, literal(-10)))
          CFI (cfiCond239) V5 load(1, XDATA, add(CFA_XSP16, literal(-9)))
          CFI (cfiCond239) V6 load(1, XDATA, add(CFA_XSP16, literal(-8)))
          CFI (cfiCond239) V7 load(1, XDATA, add(CFA_XSP16, literal(-7)))
          CFI (cfiCond239) R7 load(1, XDATA, add(CFA_XSP16, literal(-6)))
          CFI (cfiCond239) ?RET_LOW load(1, XDATA, add(CFA_XSP16, literal(-5)))
          CFI (cfiCond239) ?RET_HIGH load(1, XDATA, add(CFA_XSP16, literal(-4)))
          CFI (cfiCond239) ?BRET_EXT load(1, XDATA, add(CFA_XSP16, literal(-3)))
          CFI (cfiCond239) DPL0 load(1, XDATA, add(CFA_XSP16, literal(-2)))
          CFI (cfiCond239) DPH0 load(1, XDATA, add(CFA_XSP16, literal(-1)))
          CFI (cfiCond239) CFA_SP SP+-4
          CFI (cfiCond239) CFA_XSP16 add(XSP16, 25)
          CFI Block cfiCond240 Using cfiCommon0
          CFI (cfiCond240) Function afFindEndPointDescList
          CFI (cfiCond240) Conditional ??CrossCallReturnLabel_122, ??CrossCallReturnLabel_114
          CFI (cfiCond240) DPL0 Frame(CFA_SP, 4)
          CFI (cfiCond240) DPH0 Frame(CFA_SP, 5)
          CFI (cfiCond240) CFA_SP SP+-9
          CFI Block cfiCond241 Using cfiCommon0
          CFI (cfiCond241) Function afFindSimpleDesc
          CFI (cfiCond241) Conditional ??CrossCallReturnLabel_122, ??CrossCallReturnLabel_115
          CFI (cfiCond241) R6 load(1, XDATA, add(CFA_XSP16, literal(-12)))
          CFI (cfiCond241) VB load(1, XDATA, add(CFA_XSP16, literal(-11)))
          CFI (cfiCond241) V0 load(1, XDATA, add(CFA_XSP16, literal(-10)))
          CFI (cfiCond241) V1 load(1, XDATA, add(CFA_XSP16, literal(-9)))
          CFI (cfiCond241) V2 load(1, XDATA, add(CFA_XSP16, literal(-8)))
          CFI (cfiCond241) V3 load(1, XDATA, add(CFA_XSP16, literal(-7)))
          CFI (cfiCond241) R7 load(1, XDATA, add(CFA_XSP16, literal(-6)))
          CFI (cfiCond241) ?RET_LOW load(1, XDATA, add(CFA_XSP16, literal(-5)))
          CFI (cfiCond241) ?RET_HIGH load(1, XDATA, add(CFA_XSP16, literal(-4)))
          CFI (cfiCond241) ?BRET_EXT load(1, XDATA, add(CFA_XSP16, literal(-3)))
          CFI (cfiCond241) DPL0 load(1, XDATA, add(CFA_XSP16, literal(-2)))
          CFI (cfiCond241) DPH0 load(1, XDATA, add(CFA_XSP16, literal(-1)))
          CFI (cfiCond241) CFA_SP SP+-4
          CFI (cfiCond241) CFA_XSP16 add(XSP16, 12)
          CFI Block cfiCond242 Using cfiCommon0
          CFI (cfiCond242) Function afIncomingData
          CFI (cfiCond242) Conditional ??CrossCallReturnLabel_122, ??CrossCallReturnLabel_113
          CFI (cfiCond242) R6 load(1, XDATA, add(CFA_XSP16, literal(-16)))
          CFI (cfiCond242) VB load(1, XDATA, add(CFA_XSP16, literal(-15)))
          CFI (cfiCond242) V0 load(1, XDATA, add(CFA_XSP16, literal(-14)))
          CFI (cfiCond242) V1 load(1, XDATA, add(CFA_XSP16, literal(-13)))
          CFI (cfiCond242) V2 load(1, XDATA, add(CFA_XSP16, literal(-12)))
          CFI (cfiCond242) V3 load(1, XDATA, add(CFA_XSP16, literal(-11)))
          CFI (cfiCond242) V4 load(1, XDATA, add(CFA_XSP16, literal(-10)))
          CFI (cfiCond242) V5 load(1, XDATA, add(CFA_XSP16, literal(-9)))
          CFI (cfiCond242) V6 load(1, XDATA, add(CFA_XSP16, literal(-8)))
          CFI (cfiCond242) V7 load(1, XDATA, add(CFA_XSP16, literal(-7)))
          CFI (cfiCond242) R7 load(1, XDATA, add(CFA_XSP16, literal(-6)))
          CFI (cfiCond242) ?RET_LOW load(1, XDATA, add(CFA_XSP16, literal(-5)))
          CFI (cfiCond242) ?RET_HIGH load(1, XDATA, add(CFA_XSP16, literal(-4)))
          CFI (cfiCond242) ?BRET_EXT load(1, XDATA, add(CFA_XSP16, literal(-3)))
          CFI (cfiCond242) DPL0 load(1, XDATA, add(CFA_XSP16, literal(-2)))
          CFI (cfiCond242) DPH0 load(1, XDATA, add(CFA_XSP16, literal(-1)))
          CFI (cfiCond242) CFA_SP SP+-4
          CFI (cfiCond242) CFA_XSP16 add(XSP16, 25)
          CFI Block cfiPicker243 Using cfiCommon1
          CFI (cfiPicker243) NoFunction
          CFI (cfiPicker243) Picker
        MOVX    A,@DPTR
        MOV     DPH,A
        MOV     DPL,R0
        RET
          CFI EndBlock cfiCond229
          CFI EndBlock cfiCond230
          CFI EndBlock cfiCond231
          CFI EndBlock cfiCond232
          CFI EndBlock cfiCond233
          CFI EndBlock cfiCond234
          CFI EndBlock cfiCond235
          CFI EndBlock cfiCond236
          CFI EndBlock cfiCond237
          CFI EndBlock cfiCond238
          CFI EndBlock cfiCond239
          CFI EndBlock cfiCond240
          CFI EndBlock cfiCond241
          CFI EndBlock cfiCond242
          CFI EndBlock cfiPicker243
//  918 
//  919 /*********************************************************************
//  920  * @fn      afGetDescCB
//  921  *
//  922  * @brief   Get the Descriptor callback function.
//  923  *
//  924  * @param   epDesc - pointer to the endpoint descriptor
//  925  *
//  926  * @return  function pointer or NULL
//  927  */
//  928 static pDescCB afGetDescCB( endPointDesc_t *epDesc )
//  929 {
//  930   epList_t *epSearch;
//  931 
//  932   // Start at the beginning
//  933   epSearch = epList;
//  934 
//  935   // Look through the list until the end
//  936   while ( epSearch )
//  937   {
//  938     // Is there a match?
//  939     if ( epSearch->epDesc == epDesc )
//  940     {
//  941       return ( epSearch->pfnDescCB );
//  942     }
//  943     else
//  944       epSearch = epSearch->nextDesc;  // Next entry
//  945   }
//  946 
//  947   return ( (pDescCB)NULL );
//  948 }
//  949 
//  950 /*********************************************************************
//  951  * @fn      afDataReqMTU
//  952  *
//  953  * @brief   Get the Data Request MTU(Max Transport Unit).
//  954  *
//  955  * @param   fields - afDataReqMTU_t
//  956  *
//  957  * @return  uint8(MTU)
//  958  */

        RSEG BANKED_CODE:CODE:NOROOT(0)
//  959 uint8 afDataReqMTU( afDataReqMTU_t* fields )
afDataReqMTU:
          CFI Block cfiBlock244 Using cfiCommon0
          CFI Function afDataReqMTU
        CODE
//  960 {
        FUNCALL afDataReqMTU, APSDE_DataReqMTU
        LOCFRAME ISTACK, 0, STACK
        LOCFRAME PSTACK, 0, STACK
        LOCFRAME XSTACK, 9, STACK
        LOCFRAME IOVERLAY, 0, STATIC
        LOCFRAME DOVERLAY, 0, STATIC
        ARGFRAME ISTACK, 0, STACK
        ARGFRAME PSTACK, 0, STACK
        ARGFRAME XSTACK, 9, STACK
        ARGFRAME IOVERLAY, 0, STATIC
        ARGFRAME DOVERLAY, 0, STATIC
        MOV     A,#-0x9
        LCALL   ?BANKED_ENTER_XDATA
          CFI DPH0 load(1, XDATA, add(CFA_XSP16, literal(-1)))
          CFI DPL0 load(1, XDATA, add(CFA_XSP16, literal(-2)))
          CFI ?BRET_EXT load(1, XDATA, add(CFA_XSP16, literal(-3)))
          CFI ?RET_HIGH load(1, XDATA, add(CFA_XSP16, literal(-4)))
          CFI ?RET_LOW load(1, XDATA, add(CFA_XSP16, literal(-5)))
          CFI R7 load(1, XDATA, add(CFA_XSP16, literal(-6)))
          CFI V0 load(1, XDATA, add(CFA_XSP16, literal(-7)))
          CFI VB load(1, XDATA, add(CFA_XSP16, literal(-8)))
          CFI R6 load(1, XDATA, add(CFA_XSP16, literal(-9)))
          CFI CFA_SP SP+0
          CFI CFA_XSP16 add(XSP16, 9)
        ; Saved register size: 9
        ; Auto size: 0
//  961   uint8 len;
//  962   uint8 hdr;
//  963 
//  964   if ( fields->kvp == TRUE )
        MOV     DPL,R2
        MOV     DPH,R3
        MOVX    A,@DPTR
        XRL     A,#0x1
        JNZ     ??afDataReqMTU_0
//  965   {
//  966     hdr = AF_HDR_KVP_MAX_LEN;
        MOV     R6,#0x8
        SJMP    ??afDataReqMTU_1
//  967   }
//  968   else
//  969   {
//  970     hdr = AF_HDR_V1_1_MAX_LEN;
??afDataReqMTU_0:
        MOV     R6,#0x0
//  971   }
//  972 
//  973   len = (uint8)(APSDE_DataReqMTU(&fields->aps) - hdr);
//  974 
//  975   return len;
??afDataReqMTU_1:
        ; Setup parameters for call to function APSDE_DataReqMTU
        INC     DPTR
        MOV     R2,DPL
        MOV     R3,DPH
        LCALL   `??APSDE_DataReqMTU::?relay`; Banked call to: APSDE_DataReqMTU
        MOV     A,R1
        CLR     C
        SUBB    A,R6
        MOV     R1,A
        LJMP    ?Subroutine2 & 0xFFFF
//  976 }
          CFI EndBlock cfiBlock244
//  977 
//  978 /*********************************************************************
//  979  * @fn      afGetMatch
//  980  *
//  981  * @brief   Set the allow response flag.
//  982  *
//  983  * @param   ep - Application Endpoint to look for
//  984  * @param   action - true - allow response, false - no response
//  985  *
//  986  * @return  TRUE allow responses, FALSE no response
//  987  */

        RSEG BANKED_CODE:CODE:NOROOT(0)
//  988 uint8 afGetMatch( uint8 ep )
afGetMatch:
          CFI Block cfiBlock245 Using cfiCommon0
          CFI Function afGetMatch
        CODE
//  989 {
        FUNCALL afGetMatch, afFindEndPointDescList
        LOCFRAME ISTACK, 0, STACK
        LOCFRAME PSTACK, 0, STACK
        LOCFRAME XSTACK, 10, STACK
        LOCFRAME IOVERLAY, 0, STATIC
        LOCFRAME DOVERLAY, 0, STATIC
        ARGFRAME ISTACK, 0, STACK
        ARGFRAME PSTACK, 0, STACK
        ARGFRAME XSTACK, 10, STACK
        ARGFRAME IOVERLAY, 0, STATIC
        ARGFRAME DOVERLAY, 0, STATIC
        REQUIRE ?V0
        REQUIRE ?V1
        MOV     A,#-0xa
        LCALL   ?BANKED_ENTER_XDATA
          CFI DPH0 load(1, XDATA, add(CFA_XSP16, literal(-1)))
          CFI DPL0 load(1, XDATA, add(CFA_XSP16, literal(-2)))
          CFI ?BRET_EXT load(1, XDATA, add(CFA_XSP16, literal(-3)))
          CFI ?RET_HIGH load(1, XDATA, add(CFA_XSP16, literal(-4)))
          CFI ?RET_LOW load(1, XDATA, add(CFA_XSP16, literal(-5)))
          CFI R7 load(1, XDATA, add(CFA_XSP16, literal(-6)))
          CFI V1 load(1, XDATA, add(CFA_XSP16, literal(-7)))
          CFI V0 load(1, XDATA, add(CFA_XSP16, literal(-8)))
          CFI VB load(1, XDATA, add(CFA_XSP16, literal(-9)))
          CFI R6 load(1, XDATA, add(CFA_XSP16, literal(-10)))
          CFI CFA_SP SP+0
          CFI CFA_XSP16 add(XSP16, 10)
        ; Saved register size: 10
        ; Auto size: 0
//  990   epList_t *epSearch;
//  991 
//  992   // Look for the endpoint
//  993   epSearch = afFindEndPointDescList( ep );
        ; Setup parameters for call to function afFindEndPointDescList
        LCALL   `??afFindEndPointDescList::?relay`; Banked call to: afFindEndPointDescList
        MOV     DPL,R2
        MOV     DPH,R3
//  994 
//  995   if ( epSearch )
        MOV     A,DPL
        ORL     A,DPH
        JZ      ??afGetMatch_0
//  996   {
//  997     if ( epSearch->flags & eEP_AllowMatch )
        INC     DPTR
        INC     DPTR
        INC     DPTR
        INC     DPTR
        INC     DPTR
        INC     DPTR
        INC     DPTR
        INC     DPTR
        MOVX    A,@DPTR
        MOV     C,0xE0 /* A   */.0
        JNC     ??afGetMatch_0
//  998       return ( TRUE );
        MOV     R1,#0x1
        SJMP    ??afGetMatch_1
//  999     else
// 1000       return ( FALSE );
// 1001   }
// 1002   else
// 1003     return ( FALSE );
??afGetMatch_0:
        MOV     R1,#0x0
??afGetMatch_1:
          CFI EndBlock cfiBlock245
        REQUIRE ?Subroutine1
        ; // Fall through to label ?Subroutine1
// 1004 }

        RSEG BANKED_CODE:CODE:NOROOT(0)
?Subroutine1:
          CFI Block cfiBlock246 Using cfiCommon0
          CFI NoFunction
          CFI CFA_SP SP+0
          CFI CFA_XSP16 add(XSP16, 10)
          CFI VB load(1, XDATA, add(CFA_XSP16, literal(-9)))
          CFI DPL0 load(1, XDATA, add(CFA_XSP16, literal(-2)))
          CFI DPH0 load(1, XDATA, add(CFA_XSP16, literal(-1)))
          CFI R6 load(1, XDATA, add(CFA_XSP16, literal(-10)))
          CFI R7 load(1, XDATA, add(CFA_XSP16, literal(-6)))
          CFI V0 load(1, XDATA, add(CFA_XSP16, literal(-8)))
          CFI V1 load(1, XDATA, add(CFA_XSP16, literal(-7)))
          CFI ?BRET_EXT load(1, XDATA, add(CFA_XSP16, literal(-3)))
          CFI ?RET_HIGH load(1, XDATA, add(CFA_XSP16, literal(-4)))
          CFI ?RET_LOW load(1, XDATA, add(CFA_XSP16, literal(-5)))
        MOV     R7,#0x2
        LJMP    ?BANKED_LEAVE_XDATA
          CFI EndBlock cfiBlock246
// 1005 
// 1006 /*********************************************************************
// 1007  * @fn      afSetMatch
// 1008  *
// 1009  * @brief   Set the allow response flag.
// 1010  *
// 1011  * @param   ep - Application Endpoint to look for
// 1012  * @param   action - true - allow response, false - no response
// 1013  *
// 1014  * @return  TRUE if success, FALSE if endpoint not found
// 1015  */

        RSEG BANKED_CODE:CODE:NOROOT(0)
// 1016 uint8 afSetMatch( uint8 ep, uint8 action )
afSetMatch:
          CFI Block cfiBlock247 Using cfiCommon0
          CFI Function afSetMatch
        CODE
// 1017 {
        FUNCALL afSetMatch, afFindEndPointDescList
        LOCFRAME ISTACK, 0, STACK
        LOCFRAME PSTACK, 0, STACK
        LOCFRAME XSTACK, 10, STACK
        LOCFRAME IOVERLAY, 0, STATIC
        LOCFRAME DOVERLAY, 0, STATIC
        ARGFRAME ISTACK, 0, STACK
        ARGFRAME PSTACK, 0, STACK
        ARGFRAME XSTACK, 10, STACK
        ARGFRAME IOVERLAY, 0, STATIC
        ARGFRAME DOVERLAY, 0, STATIC
        REQUIRE ?V0
        REQUIRE ?V1
        MOV     A,#-0xa
        LCALL   ?BANKED_ENTER_XDATA
          CFI DPH0 load(1, XDATA, add(CFA_XSP16, literal(-1)))
          CFI DPL0 load(1, XDATA, add(CFA_XSP16, literal(-2)))
          CFI ?BRET_EXT load(1, XDATA, add(CFA_XSP16, literal(-3)))
          CFI ?RET_HIGH load(1, XDATA, add(CFA_XSP16, literal(-4)))
          CFI ?RET_LOW load(1, XDATA, add(CFA_XSP16, literal(-5)))
          CFI R7 load(1, XDATA, add(CFA_XSP16, literal(-6)))
          CFI V1 load(1, XDATA, add(CFA_XSP16, literal(-7)))
          CFI V0 load(1, XDATA, add(CFA_XSP16, literal(-8)))
          CFI VB load(1, XDATA, add(CFA_XSP16, literal(-9)))
          CFI R6 load(1, XDATA, add(CFA_XSP16, literal(-10)))
          CFI CFA_SP SP+0
          CFI CFA_XSP16 add(XSP16, 10)
        ; Saved register size: 10
        ; Auto size: 0
        MOV     A,R2
        MOV     R7,A
// 1018   epList_t *epSearch;
// 1019 
// 1020   // Look for the endpoint
// 1021   epSearch = afFindEndPointDescList( ep );
        ; Setup parameters for call to function afFindEndPointDescList
        LCALL   `??afFindEndPointDescList::?relay`; Banked call to: afFindEndPointDescList
        MOV     DPL,R2
        MOV     DPH,R3
// 1022 
// 1023   if ( epSearch )
        MOV     A,DPL
        ORL     A,DPH
        JZ      ??afSetMatch_0
// 1024   {
// 1025     if ( action )
        MOV     A,R7
        INC     DPTR
        INC     DPTR
        INC     DPTR
        INC     DPTR
        INC     DPTR
        INC     DPTR
        INC     DPTR
        INC     DPTR
        JZ      ??afSetMatch_1
// 1026     {
// 1027       epSearch->flags |= eEP_AllowMatch;
        MOVX    A,@DPTR
        SETB    0xE0 /* A   */.0
        SJMP    ??afSetMatch_2
// 1028     }
// 1029     else
// 1030     {
// 1031       epSearch->flags &= (eEP_AllowMatch ^ 0xFFFF);
??afSetMatch_1:
        MOVX    A,@DPTR
        CLR     0xE0 /* A   */.0
??afSetMatch_2:
        MOVX    @DPTR,A
// 1032     }
// 1033     return ( TRUE );
        MOV     R1,#0x1
        SJMP    ??afSetMatch_3
// 1034   }
// 1035   else
// 1036     return ( FALSE );
??afSetMatch_0:
        MOV     R1,#0x0
??afSetMatch_3:
        SJMP    ?Subroutine1
// 1037 }
          CFI EndBlock cfiBlock247
// 1038 
// 1039 /*********************************************************************
// 1040  * @fn      afNumEndPoints
// 1041  *
// 1042  * @brief   Returns the number of endpoints defined (including 0)
// 1043  *
// 1044  * @param   none
// 1045  *
// 1046  * @return  number of endpoints
// 1047  */

        RSEG BANKED_CODE:CODE:NOROOT(0)
// 1048 uint8 afNumEndPoints( void )
afNumEndPoints:
          CFI Block cfiBlock248 Using cfiCommon0
          CFI Function afNumEndPoints
        CODE
// 1049 {
        PUSH    DPL
          CFI DPL0 Frame(CFA_SP, 4)
          CFI CFA_SP SP+-4
        PUSH    DPH
          CFI DPH0 Frame(CFA_SP, 5)
          CFI CFA_SP SP+-5
        ; Saved register size: 2
        ; Auto size: 0
// 1050   epList_t *epSearch;
// 1051   uint8 endpoints;
// 1052 
// 1053   // Start at the beginning
// 1054   epSearch = epList;
        MOV     DPTR,#epList
        LCALL   ?Subroutine16 & 0xFFFF
// 1055   endpoints = 0;
??CrossCallReturnLabel_17:
        MOV     R1,#0x0
        SJMP    ??afNumEndPoints_0
// 1056 
// 1057   while ( epSearch )
// 1058   {
// 1059     endpoints++;
??afNumEndPoints_1:
        INC     R1
// 1060     epSearch = epSearch->nextDesc;
        LCALL   ??Subroutine51_0 & 0xFFFF
// 1061   }
??CrossCallReturnLabel_107:
        MOV     DPL,R2
        MOV     DPH,R3
??afNumEndPoints_0:
        MOV     A,DPL
        ORL     A,DPH
        JNZ     ??afNumEndPoints_1
// 1062 
// 1063   return ( endpoints );
        LJMP    ?Subroutine4 & 0xFFFF
// 1064 }
          CFI EndBlock cfiBlock248

        RSEG BANKED_CODE:CODE:NOROOT(0)
?Subroutine16:
          CFI Block cfiCond249 Using cfiCommon0
          CFI Function afBuildMSGIncoming
          CFI Conditional ??CrossCallReturnLabel_16
          CFI R6 load(1, XDATA, add(CFA_XSP16, literal(-16)))
          CFI VB load(1, XDATA, add(CFA_XSP16, literal(-15)))
          CFI V0 load(1, XDATA, add(CFA_XSP16, literal(-14)))
          CFI V1 load(1, XDATA, add(CFA_XSP16, literal(-13)))
          CFI V2 load(1, XDATA, add(CFA_XSP16, literal(-12)))
          CFI V3 load(1, XDATA, add(CFA_XSP16, literal(-11)))
          CFI V4 load(1, XDATA, add(CFA_XSP16, literal(-10)))
          CFI V5 load(1, XDATA, add(CFA_XSP16, literal(-9)))
          CFI V6 load(1, XDATA, add(CFA_XSP16, literal(-8)))
          CFI V7 load(1, XDATA, add(CFA_XSP16, literal(-7)))
          CFI R7 load(1, XDATA, add(CFA_XSP16, literal(-6)))
          CFI ?RET_LOW load(1, XDATA, add(CFA_XSP16, literal(-5)))
          CFI ?RET_HIGH load(1, XDATA, add(CFA_XSP16, literal(-4)))
          CFI ?BRET_EXT load(1, XDATA, add(CFA_XSP16, literal(-3)))
          CFI DPL0 load(1, XDATA, add(CFA_XSP16, literal(-2)))
          CFI DPH0 load(1, XDATA, add(CFA_XSP16, literal(-1)))
          CFI CFA_SP SP+-2
          CFI CFA_XSP16 add(XSP16, 17)
          CFI Block cfiCond250 Using cfiCommon0
          CFI (cfiCond250) Function afNumEndPoints
          CFI (cfiCond250) Conditional ??CrossCallReturnLabel_17
          CFI (cfiCond250) DPL0 Frame(CFA_SP, 4)
          CFI (cfiCond250) DPH0 Frame(CFA_SP, 5)
          CFI (cfiCond250) CFA_SP SP+-7
          CFI Block cfiPicker251 Using cfiCommon1
          CFI (cfiPicker251) NoFunction
          CFI (cfiPicker251) Picker
        LCALL   ?Subroutine37 & 0xFFFF
??CrossCallReturnLabel_135:
        MOV     DPL,R0
        MOV     DPH,R1
        RET
          CFI EndBlock cfiCond249
          CFI EndBlock cfiCond250
          CFI EndBlock cfiPicker251
// 1065 
// 1066 /*********************************************************************
// 1067  * @fn      afEndPoints
// 1068  *
// 1069  * @brief   Fills in the passed in buffer with the endpoint (numbers).
// 1070  *          Use afNumEndPoints to find out how big a buffer to supply.
// 1071  *
// 1072  * @param   epBuf - pointer to mem used
// 1073  *
// 1074  * @return  void
// 1075  */

        RSEG BANKED_CODE:CODE:NOROOT(0)
// 1076 void afEndPoints( uint8 *epBuf, uint8 skipZDO )
afEndPoints:
          CFI Block cfiBlock252 Using cfiCommon0
          CFI Function afEndPoints
        CODE
// 1077 {
        PUSH    DPL
          CFI DPL0 Frame(CFA_SP, 4)
          CFI CFA_SP SP+-4
        PUSH    DPH
          CFI DPH0 Frame(CFA_SP, 5)
          CFI CFA_SP SP+-5
        ; Saved register size: 2
        ; Auto size: 0
        MOV     A,R1
        MOV     R4,A
// 1078   epList_t *epSearch;
// 1079   uint8 endPoint;
// 1080 
// 1081   // Start at the beginning
// 1082   epSearch = epList;
        MOV     DPTR,#epList
        SJMP    ??afEndPoints_0
// 1083 
// 1084   while ( epSearch )
// 1085   {
// 1086     endPoint = epSearch->epDesc->endPoint;
??afEndPoints_1:
        MOV     DPL,R0
        MOV     DPH,R1
        INC     DPTR
        INC     DPTR
        MOVX    A,@DPTR
        MOV     R5,A
        INC     DPTR
        MOVX    A,@DPTR
        MOV     DPH,A
        MOV     DPL,R5
        MOVX    A,@DPTR
        MOV     R5,A
// 1087 
// 1088     if ( !skipZDO || endPoint != 0 )
        MOV     A,R4
        JZ      ??afEndPoints_2
        MOV     A,R5
        JZ      ??afEndPoints_3
// 1089       *epBuf++ = endPoint;
??afEndPoints_2:
        MOV     A,R5
        MOV     DPL,R2
        MOV     DPH,R3
        MOVX    @DPTR,A
        INC     DPTR
        MOV     R2,DPL
        MOV     R3,DPH
// 1090 
// 1091     epSearch = epSearch->nextDesc;
??afEndPoints_3:
        MOV     DPL,R0
        MOV     DPH,R1
// 1092   }
??afEndPoints_0:
        LCALL   ??Subroutine45_0 & 0xFFFF
??CrossCallReturnLabel_84:
        JNZ     ??afEndPoints_1
// 1093 }
        LJMP    ?Subroutine4 & 0xFFFF
          CFI EndBlock cfiBlock252
// 1094 
// 1095 /*********************************************************************
// 1096  * @fn      afCopyAddress
// 1097  *
// 1098  * @brief   Fills in the passed in afAddrType_t parameter with the corresponding information
// 1099  *          from the zAddrType_t parameter.
// 1100  *
// 1101  * @param   epBuf - pointer to mem used
// 1102  *
// 1103  * @return  void
// 1104  */

        RSEG BANKED_CODE:CODE:NOROOT(0)
// 1105 void afCopyAddress( afAddrType_t *afAddr, zAddrType_t *zAddr )
afCopyAddress:
          CFI Block cfiBlock253 Using cfiCommon0
          CFI Function afCopyAddress
        CODE
// 1106 {
        FUNCALL afCopyAddress, sAddrExtCpy
        LOCFRAME ISTACK, 0, STACK
        LOCFRAME PSTACK, 0, STACK
        LOCFRAME XSTACK, 9, STACK
        LOCFRAME IOVERLAY, 0, STATIC
        LOCFRAME DOVERLAY, 0, STATIC
        ARGFRAME ISTACK, 0, STACK
        ARGFRAME PSTACK, 0, STACK
        ARGFRAME XSTACK, 9, STACK
        ARGFRAME IOVERLAY, 0, STATIC
        ARGFRAME DOVERLAY, 0, STATIC
        MOV     A,#-0x9
        LCALL   ?BANKED_ENTER_XDATA
          CFI DPH0 load(1, XDATA, add(CFA_XSP16, literal(-1)))
          CFI DPL0 load(1, XDATA, add(CFA_XSP16, literal(-2)))
          CFI ?BRET_EXT load(1, XDATA, add(CFA_XSP16, literal(-3)))
          CFI ?RET_HIGH load(1, XDATA, add(CFA_XSP16, literal(-4)))
          CFI ?RET_LOW load(1, XDATA, add(CFA_XSP16, literal(-5)))
          CFI R7 load(1, XDATA, add(CFA_XSP16, literal(-6)))
          CFI V0 load(1, XDATA, add(CFA_XSP16, literal(-7)))
          CFI VB load(1, XDATA, add(CFA_XSP16, literal(-8)))
          CFI R6 load(1, XDATA, add(CFA_XSP16, literal(-9)))
          CFI CFA_SP SP+0
          CFI CFA_XSP16 add(XSP16, 9)
        ; Saved register size: 9
        ; Auto size: 0
        MOV     A,R2
        MOV     R6,A
        MOV     A,R3
        MOV     R7,A
// 1107   afAddr->addrMode = (afAddrMode_t)zAddr->addrMode;
        MOV     A,R4
        ADD     A,#0x8
        MOV     R0,A
        CLR     A
        ADDC    A,R5
        MOV     R1,A
        MOV     DPL,R0
        MOV     DPH,R1
        MOVX    A,@DPTR
        MOV     DPL,R6
        MOV     DPH,R7
        INC     DPTR
        INC     DPTR
        INC     DPTR
        INC     DPTR
        INC     DPTR
        INC     DPTR
        INC     DPTR
        INC     DPTR
        LCALL   ?Subroutine31 & 0xFFFF
// 1108   if ( zAddr->addrMode == Addr64Bit )
??CrossCallReturnLabel_46:
        JNZ     ??afCopyAddress_0
// 1109   {
// 1110     (void)osal_cpyExtAddr( afAddr->addr.extAddr, zAddr->addr.extAddr );
        ; Setup parameters for call to function sAddrExtCpy
        LCALL   `??sAddrExtCpy::?relay`; Banked call to: sAddrExtCpy
        SJMP    ??CrossCallReturnLabel_80
// 1111   }
// 1112   else
// 1113   {
// 1114     afAddr->addr.shortAddr = zAddr->addr.shortAddr;
??afCopyAddress_0:
        MOV     DPL,R4
        MOV     DPH,R5
        LCALL   ??Subroutine56_0 & 0xFFFF
// 1115   }
??CrossCallReturnLabel_130:
        MOV     DPL,R6
        MOV     DPH,R7
        LCALL   ??Subroutine44_0 & 0xFFFF
// 1116 
// 1117   // Since zAddrType_t has no INTER-PAN information, set the panId member to zero.
// 1118   afAddr->panId = 0;
??CrossCallReturnLabel_80:
        MOV     DPL,R6
        MOV     DPH,R7
        INC     DPTR
        INC     DPTR
        INC     DPTR
        INC     DPTR
        INC     DPTR
        INC     DPTR
        INC     DPTR
        INC     DPTR
        INC     DPTR
        INC     DPTR
        CLR     A
        MOVX    @DPTR,A
        INC     DPTR
        MOVX    @DPTR,A
// 1119 }
        LJMP    ?Subroutine2 & 0xFFFF
          CFI EndBlock cfiBlock253

        RSEG BANKED_CODE:CODE:NOROOT(0)
?Subroutine31:
          CFI Block cfiCond254 Using cfiCommon0
          CFI Function AF_DataRequest
          CFI Conditional ??CrossCallReturnLabel_45
          CFI R6 load(1, XDATA, add(CFA_XSP16, literal(-16)))
          CFI VB load(1, XDATA, add(CFA_XSP16, literal(-15)))
          CFI V0 load(1, XDATA, add(CFA_XSP16, literal(-14)))
          CFI V1 load(1, XDATA, add(CFA_XSP16, literal(-13)))
          CFI V2 load(1, XDATA, add(CFA_XSP16, literal(-12)))
          CFI V3 load(1, XDATA, add(CFA_XSP16, literal(-11)))
          CFI V4 load(1, XDATA, add(CFA_XSP16, literal(-10)))
          CFI V5 load(1, XDATA, add(CFA_XSP16, literal(-9)))
          CFI V6 load(1, XDATA, add(CFA_XSP16, literal(-8)))
          CFI V7 load(1, XDATA, add(CFA_XSP16, literal(-7)))
          CFI R7 load(1, XDATA, add(CFA_XSP16, literal(-6)))
          CFI ?RET_LOW load(1, XDATA, add(CFA_XSP16, literal(-5)))
          CFI ?RET_HIGH load(1, XDATA, add(CFA_XSP16, literal(-4)))
          CFI ?BRET_EXT load(1, XDATA, add(CFA_XSP16, literal(-3)))
          CFI DPL0 load(1, XDATA, add(CFA_XSP16, literal(-2)))
          CFI DPH0 load(1, XDATA, add(CFA_XSP16, literal(-1)))
          CFI CFA_SP SP+-2
          CFI CFA_XSP16 add(XSP16, 46)
          CFI Block cfiCond255 Using cfiCommon0
          CFI (cfiCond255) Function afCopyAddress
          CFI (cfiCond255) Conditional ??CrossCallReturnLabel_46
          CFI (cfiCond255) R6 load(1, XDATA, add(CFA_XSP16, literal(-9)))
          CFI (cfiCond255) VB load(1, XDATA, add(CFA_XSP16, literal(-8)))
          CFI (cfiCond255) V0 load(1, XDATA, add(CFA_XSP16, literal(-7)))
          CFI (cfiCond255) R7 load(1, XDATA, add(CFA_XSP16, literal(-6)))
          CFI (cfiCond255) ?RET_LOW load(1, XDATA, add(CFA_XSP16, literal(-5)))
          CFI (cfiCond255) ?RET_HIGH load(1, XDATA, add(CFA_XSP16, literal(-4)))
          CFI (cfiCond255) ?BRET_EXT load(1, XDATA, add(CFA_XSP16, literal(-3)))
          CFI (cfiCond255) DPL0 load(1, XDATA, add(CFA_XSP16, literal(-2)))
          CFI (cfiCond255) DPH0 load(1, XDATA, add(CFA_XSP16, literal(-1)))
          CFI (cfiCond255) CFA_SP SP+-2
          CFI (cfiCond255) CFA_XSP16 add(XSP16, 9)
          CFI Block cfiPicker256 Using cfiCommon1
          CFI (cfiPicker256) NoFunction
          CFI (cfiPicker256) Picker
        LCALL   ?Subroutine36 & 0xFFFF
??CrossCallReturnLabel_59:
        MOVX    A,@DPTR
        XRL     A,#0x3
        RET
          CFI EndBlock cfiCond254
          CFI EndBlock cfiCond255
          CFI EndBlock cfiPicker256

        RSEG BANKED_CODE:CODE:NOROOT(0)
?Subroutine36:
          CFI Block cfiCond257 Using cfiCommon0
          CFI Function afBuildMSGIncoming
          CFI Conditional ??CrossCallReturnLabel_56
          CFI R6 load(1, XDATA, add(CFA_XSP16, literal(-16)))
          CFI VB load(1, XDATA, add(CFA_XSP16, literal(-15)))
          CFI V0 load(1, XDATA, add(CFA_XSP16, literal(-14)))
          CFI V1 load(1, XDATA, add(CFA_XSP16, literal(-13)))
          CFI V2 load(1, XDATA, add(CFA_XSP16, literal(-12)))
          CFI V3 load(1, XDATA, add(CFA_XSP16, literal(-11)))
          CFI V4 load(1, XDATA, add(CFA_XSP16, literal(-10)))
          CFI V5 load(1, XDATA, add(CFA_XSP16, literal(-9)))
          CFI V6 load(1, XDATA, add(CFA_XSP16, literal(-8)))
          CFI V7 load(1, XDATA, add(CFA_XSP16, literal(-7)))
          CFI R7 load(1, XDATA, add(CFA_XSP16, literal(-6)))
          CFI ?RET_LOW load(1, XDATA, add(CFA_XSP16, literal(-5)))
          CFI ?RET_HIGH load(1, XDATA, add(CFA_XSP16, literal(-4)))
          CFI ?BRET_EXT load(1, XDATA, add(CFA_XSP16, literal(-3)))
          CFI DPL0 load(1, XDATA, add(CFA_XSP16, literal(-2)))
          CFI DPH0 load(1, XDATA, add(CFA_XSP16, literal(-1)))
          CFI CFA_SP SP+-2
          CFI CFA_XSP16 add(XSP16, 17)
          CFI Block cfiCond258 Using cfiCommon0
          CFI (cfiCond258) Function afBuildMSGIncoming
          CFI (cfiCond258) Conditional ??CrossCallReturnLabel_57
          CFI (cfiCond258) R6 load(1, XDATA, add(CFA_XSP16, literal(-16)))
          CFI (cfiCond258) VB load(1, XDATA, add(CFA_XSP16, literal(-15)))
          CFI (cfiCond258) V0 load(1, XDATA, add(CFA_XSP16, literal(-14)))
          CFI (cfiCond258) V1 load(1, XDATA, add(CFA_XSP16, literal(-13)))
          CFI (cfiCond258) V2 load(1, XDATA, add(CFA_XSP16, literal(-12)))
          CFI (cfiCond258) V3 load(1, XDATA, add(CFA_XSP16, literal(-11)))
          CFI (cfiCond258) V4 load(1, XDATA, add(CFA_XSP16, literal(-10)))
          CFI (cfiCond258) V5 load(1, XDATA, add(CFA_XSP16, literal(-9)))
          CFI (cfiCond258) V6 load(1, XDATA, add(CFA_XSP16, literal(-8)))
          CFI (cfiCond258) V7 load(1, XDATA, add(CFA_XSP16, literal(-7)))
          CFI (cfiCond258) R7 load(1, XDATA, add(CFA_XSP16, literal(-6)))
          CFI (cfiCond258) ?RET_LOW load(1, XDATA, add(CFA_XSP16, literal(-5)))
          CFI (cfiCond258) ?RET_HIGH load(1, XDATA, add(CFA_XSP16, literal(-4)))
          CFI (cfiCond258) ?BRET_EXT load(1, XDATA, add(CFA_XSP16, literal(-3)))
          CFI (cfiCond258) DPL0 load(1, XDATA, add(CFA_XSP16, literal(-2)))
          CFI (cfiCond258) DPH0 load(1, XDATA, add(CFA_XSP16, literal(-1)))
          CFI (cfiCond258) CFA_SP SP+-2
          CFI (cfiCond258) CFA_XSP16 add(XSP16, 17)
          CFI Block cfiCond259 Using cfiCommon0
          CFI (cfiCond259) Function afBuildMSGIncoming
          CFI (cfiCond259) Conditional ??CrossCallReturnLabel_58
          CFI (cfiCond259) R6 load(1, XDATA, add(CFA_XSP16, literal(-16)))
          CFI (cfiCond259) VB load(1, XDATA, add(CFA_XSP16, literal(-15)))
          CFI (cfiCond259) V0 load(1, XDATA, add(CFA_XSP16, literal(-14)))
          CFI (cfiCond259) V1 load(1, XDATA, add(CFA_XSP16, literal(-13)))
          CFI (cfiCond259) V2 load(1, XDATA, add(CFA_XSP16, literal(-12)))
          CFI (cfiCond259) V3 load(1, XDATA, add(CFA_XSP16, literal(-11)))
          CFI (cfiCond259) V4 load(1, XDATA, add(CFA_XSP16, literal(-10)))
          CFI (cfiCond259) V5 load(1, XDATA, add(CFA_XSP16, literal(-9)))
          CFI (cfiCond259) V6 load(1, XDATA, add(CFA_XSP16, literal(-8)))
          CFI (cfiCond259) V7 load(1, XDATA, add(CFA_XSP16, literal(-7)))
          CFI (cfiCond259) R7 load(1, XDATA, add(CFA_XSP16, literal(-6)))
          CFI (cfiCond259) ?RET_LOW load(1, XDATA, add(CFA_XSP16, literal(-5)))
          CFI (cfiCond259) ?RET_HIGH load(1, XDATA, add(CFA_XSP16, literal(-4)))
          CFI (cfiCond259) ?BRET_EXT load(1, XDATA, add(CFA_XSP16, literal(-3)))
          CFI (cfiCond259) DPL0 load(1, XDATA, add(CFA_XSP16, literal(-2)))
          CFI (cfiCond259) DPH0 load(1, XDATA, add(CFA_XSP16, literal(-1)))
          CFI (cfiCond259) CFA_SP SP+-2
          CFI (cfiCond259) CFA_XSP16 add(XSP16, 17)
          CFI Block cfiCond260 Using cfiCommon0
          CFI (cfiCond260) Function AF_DataRequest
          CFI (cfiCond260) Conditional ??CrossCallReturnLabel_59, ??CrossCallReturnLabel_45
          CFI (cfiCond260) R6 load(1, XDATA, add(CFA_XSP16, literal(-16)))
          CFI (cfiCond260) VB load(1, XDATA, add(CFA_XSP16, literal(-15)))
          CFI (cfiCond260) V0 load(1, XDATA, add(CFA_XSP16, literal(-14)))
          CFI (cfiCond260) V1 load(1, XDATA, add(CFA_XSP16, literal(-13)))
          CFI (cfiCond260) V2 load(1, XDATA, add(CFA_XSP16, literal(-12)))
          CFI (cfiCond260) V3 load(1, XDATA, add(CFA_XSP16, literal(-11)))
          CFI (cfiCond260) V4 load(1, XDATA, add(CFA_XSP16, literal(-10)))
          CFI (cfiCond260) V5 load(1, XDATA, add(CFA_XSP16, literal(-9)))
          CFI (cfiCond260) V6 load(1, XDATA, add(CFA_XSP16, literal(-8)))
          CFI (cfiCond260) V7 load(1, XDATA, add(CFA_XSP16, literal(-7)))
          CFI (cfiCond260) R7 load(1, XDATA, add(CFA_XSP16, literal(-6)))
          CFI (cfiCond260) ?RET_LOW load(1, XDATA, add(CFA_XSP16, literal(-5)))
          CFI (cfiCond260) ?RET_HIGH load(1, XDATA, add(CFA_XSP16, literal(-4)))
          CFI (cfiCond260) ?BRET_EXT load(1, XDATA, add(CFA_XSP16, literal(-3)))
          CFI (cfiCond260) DPL0 load(1, XDATA, add(CFA_XSP16, literal(-2)))
          CFI (cfiCond260) DPH0 load(1, XDATA, add(CFA_XSP16, literal(-1)))
          CFI (cfiCond260) CFA_SP SP+-4
          CFI (cfiCond260) CFA_XSP16 add(XSP16, 46)
          CFI Block cfiCond261 Using cfiCommon0
          CFI (cfiCond261) Function afCopyAddress
          CFI (cfiCond261) Conditional ??CrossCallReturnLabel_59, ??CrossCallReturnLabel_46
          CFI (cfiCond261) R6 load(1, XDATA, add(CFA_XSP16, literal(-9)))
          CFI (cfiCond261) VB load(1, XDATA, add(CFA_XSP16, literal(-8)))
          CFI (cfiCond261) V0 load(1, XDATA, add(CFA_XSP16, literal(-7)))
          CFI (cfiCond261) R7 load(1, XDATA, add(CFA_XSP16, literal(-6)))
          CFI (cfiCond261) ?RET_LOW load(1, XDATA, add(CFA_XSP16, literal(-5)))
          CFI (cfiCond261) ?RET_HIGH load(1, XDATA, add(CFA_XSP16, literal(-4)))
          CFI (cfiCond261) ?BRET_EXT load(1, XDATA, add(CFA_XSP16, literal(-3)))
          CFI (cfiCond261) DPL0 load(1, XDATA, add(CFA_XSP16, literal(-2)))
          CFI (cfiCond261) DPH0 load(1, XDATA, add(CFA_XSP16, literal(-1)))
          CFI (cfiCond261) CFA_SP SP+-4
          CFI (cfiCond261) CFA_XSP16 add(XSP16, 9)
          CFI Block cfiPicker262 Using cfiCommon1
          CFI (cfiPicker262) NoFunction
          CFI (cfiPicker262) Picker
        MOVX    @DPTR,A
        MOV     DPL,R0
        MOV     DPH,R1
        RET
          CFI EndBlock cfiCond257
          CFI EndBlock cfiCond258
          CFI EndBlock cfiCond259
          CFI EndBlock cfiCond260
          CFI EndBlock cfiCond261
          CFI EndBlock cfiPicker262

        RSEG BANKED_CODE:CODE:NOROOT(0)
?Subroutine18:
          CFI Block cfiCond263 Using cfiCommon0
          CFI Function afDelete
          CFI Conditional ??CrossCallReturnLabel_131
          CFI R6 load(1, XDATA, add(CFA_XSP16, literal(-9)))
          CFI VB load(1, XDATA, add(CFA_XSP16, literal(-8)))
          CFI V0 load(1, XDATA, add(CFA_XSP16, literal(-7)))
          CFI R7 load(1, XDATA, add(CFA_XSP16, literal(-6)))
          CFI ?RET_LOW load(1, XDATA, add(CFA_XSP16, literal(-5)))
          CFI ?RET_HIGH load(1, XDATA, add(CFA_XSP16, literal(-4)))
          CFI ?BRET_EXT load(1, XDATA, add(CFA_XSP16, literal(-3)))
          CFI DPL0 load(1, XDATA, add(CFA_XSP16, literal(-2)))
          CFI DPH0 load(1, XDATA, add(CFA_XSP16, literal(-1)))
          CFI CFA_SP SP+-2
          CFI CFA_XSP16 add(XSP16, 9)
          CFI Block cfiCond264 Using cfiCommon0
          CFI (cfiCond264) Function AF_DataRequest
          CFI (cfiCond264) Conditional ??CrossCallReturnLabel_132
          CFI (cfiCond264) R6 load(1, XDATA, add(CFA_XSP16, literal(-16)))
          CFI (cfiCond264) VB load(1, XDATA, add(CFA_XSP16, literal(-15)))
          CFI (cfiCond264) V0 load(1, XDATA, add(CFA_XSP16, literal(-14)))
          CFI (cfiCond264) V1 load(1, XDATA, add(CFA_XSP16, literal(-13)))
          CFI (cfiCond264) V2 load(1, XDATA, add(CFA_XSP16, literal(-12)))
          CFI (cfiCond264) V3 load(1, XDATA, add(CFA_XSP16, literal(-11)))
          CFI (cfiCond264) V4 load(1, XDATA, add(CFA_XSP16, literal(-10)))
          CFI (cfiCond264) V5 load(1, XDATA, add(CFA_XSP16, literal(-9)))
          CFI (cfiCond264) V6 load(1, XDATA, add(CFA_XSP16, literal(-8)))
          CFI (cfiCond264) V7 load(1, XDATA, add(CFA_XSP16, literal(-7)))
          CFI (cfiCond264) R7 load(1, XDATA, add(CFA_XSP16, literal(-6)))
          CFI (cfiCond264) ?RET_LOW load(1, XDATA, add(CFA_XSP16, literal(-5)))
          CFI (cfiCond264) ?RET_HIGH load(1, XDATA, add(CFA_XSP16, literal(-4)))
          CFI (cfiCond264) ?BRET_EXT load(1, XDATA, add(CFA_XSP16, literal(-3)))
          CFI (cfiCond264) DPL0 load(1, XDATA, add(CFA_XSP16, literal(-2)))
          CFI (cfiCond264) DPH0 load(1, XDATA, add(CFA_XSP16, literal(-1)))
          CFI (cfiCond264) CFA_SP SP+-2
          CFI (cfiCond264) CFA_XSP16 add(XSP16, 46)
          CFI Block cfiPicker265 Using cfiCommon1
          CFI (cfiPicker265) NoFunction
          CFI (cfiPicker265) Picker
        MOV     DPL,R2
        MOV     DPH,R3
          CFI EndBlock cfiCond263
          CFI EndBlock cfiCond264
          CFI EndBlock cfiPicker265
        REQUIRE ??Subroutine56_0
        ; // Fall through to label ??Subroutine56_0

        RSEG BANKED_CODE:CODE:NOROOT(0)
??Subroutine56_0:
          CFI Block cfiCond266 Using cfiCommon0
          CFI Function afIncomingData
          CFI Conditional ??CrossCallReturnLabel_123
          CFI R6 load(1, XDATA, add(CFA_XSP16, literal(-16)))
          CFI VB load(1, XDATA, add(CFA_XSP16, literal(-15)))
          CFI V0 load(1, XDATA, add(CFA_XSP16, literal(-14)))
          CFI V1 load(1, XDATA, add(CFA_XSP16, literal(-13)))
          CFI V2 load(1, XDATA, add(CFA_XSP16, literal(-12)))
          CFI V3 load(1, XDATA, add(CFA_XSP16, literal(-11)))
          CFI V4 load(1, XDATA, add(CFA_XSP16, literal(-10)))
          CFI V5 load(1, XDATA, add(CFA_XSP16, literal(-9)))
          CFI V6 load(1, XDATA, add(CFA_XSP16, literal(-8)))
          CFI V7 load(1, XDATA, add(CFA_XSP16, literal(-7)))
          CFI R7 load(1, XDATA, add(CFA_XSP16, literal(-6)))
          CFI ?RET_LOW load(1, XDATA, add(CFA_XSP16, literal(-5)))
          CFI ?RET_HIGH load(1, XDATA, add(CFA_XSP16, literal(-4)))
          CFI ?BRET_EXT load(1, XDATA, add(CFA_XSP16, literal(-3)))
          CFI DPL0 load(1, XDATA, add(CFA_XSP16, literal(-2)))
          CFI DPH0 load(1, XDATA, add(CFA_XSP16, literal(-1)))
          CFI CFA_SP SP+-2
          CFI CFA_XSP16 add(XSP16, 25)
          CFI Block cfiCond267 Using cfiCommon0
          CFI (cfiCond267) Function afIncomingData
          CFI (cfiCond267) Conditional ??CrossCallReturnLabel_124
          CFI (cfiCond267) R6 load(1, XDATA, add(CFA_XSP16, literal(-16)))
          CFI (cfiCond267) VB load(1, XDATA, add(CFA_XSP16, literal(-15)))
          CFI (cfiCond267) V0 load(1, XDATA, add(CFA_XSP16, literal(-14)))
          CFI (cfiCond267) V1 load(1, XDATA, add(CFA_XSP16, literal(-13)))
          CFI (cfiCond267) V2 load(1, XDATA, add(CFA_XSP16, literal(-12)))
          CFI (cfiCond267) V3 load(1, XDATA, add(CFA_XSP16, literal(-11)))
          CFI (cfiCond267) V4 load(1, XDATA, add(CFA_XSP16, literal(-10)))
          CFI (cfiCond267) V5 load(1, XDATA, add(CFA_XSP16, literal(-9)))
          CFI (cfiCond267) V6 load(1, XDATA, add(CFA_XSP16, literal(-8)))
          CFI (cfiCond267) V7 load(1, XDATA, add(CFA_XSP16, literal(-7)))
          CFI (cfiCond267) R7 load(1, XDATA, add(CFA_XSP16, literal(-6)))
          CFI (cfiCond267) ?RET_LOW load(1, XDATA, add(CFA_XSP16, literal(-5)))
          CFI (cfiCond267) ?RET_HIGH load(1, XDATA, add(CFA_XSP16, literal(-4)))
          CFI (cfiCond267) ?BRET_EXT load(1, XDATA, add(CFA_XSP16, literal(-3)))
          CFI (cfiCond267) DPL0 load(1, XDATA, add(CFA_XSP16, literal(-2)))
          CFI (cfiCond267) DPH0 load(1, XDATA, add(CFA_XSP16, literal(-1)))
          CFI (cfiCond267) CFA_SP SP+-2
          CFI (cfiCond267) CFA_XSP16 add(XSP16, 25)
          CFI Block cfiCond268 Using cfiCommon0
          CFI (cfiCond268) Function AF_DataRequest
          CFI (cfiCond268) Conditional ??CrossCallReturnLabel_125
          CFI (cfiCond268) R6 load(1, XDATA, add(CFA_XSP16, literal(-16)))
          CFI (cfiCond268) VB load(1, XDATA, add(CFA_XSP16, literal(-15)))
          CFI (cfiCond268) V0 load(1, XDATA, add(CFA_XSP16, literal(-14)))
          CFI (cfiCond268) V1 load(1, XDATA, add(CFA_XSP16, literal(-13)))
          CFI (cfiCond268) V2 load(1, XDATA, add(CFA_XSP16, literal(-12)))
          CFI (cfiCond268) V3 load(1, XDATA, add(CFA_XSP16, literal(-11)))
          CFI (cfiCond268) V4 load(1, XDATA, add(CFA_XSP16, literal(-10)))
          CFI (cfiCond268) V5 load(1, XDATA, add(CFA_XSP16, literal(-9)))
          CFI (cfiCond268) V6 load(1, XDATA, add(CFA_XSP16, literal(-8)))
          CFI (cfiCond268) V7 load(1, XDATA, add(CFA_XSP16, literal(-7)))
          CFI (cfiCond268) R7 load(1, XDATA, add(CFA_XSP16, literal(-6)))
          CFI (cfiCond268) ?RET_LOW load(1, XDATA, add(CFA_XSP16, literal(-5)))
          CFI (cfiCond268) ?RET_HIGH load(1, XDATA, add(CFA_XSP16, literal(-4)))
          CFI (cfiCond268) ?BRET_EXT load(1, XDATA, add(CFA_XSP16, literal(-3)))
          CFI (cfiCond268) DPL0 load(1, XDATA, add(CFA_XSP16, literal(-2)))
          CFI (cfiCond268) DPH0 load(1, XDATA, add(CFA_XSP16, literal(-1)))
          CFI (cfiCond268) CFA_SP SP+-2
          CFI (cfiCond268) CFA_XSP16 add(XSP16, 46)
          CFI Block cfiCond269 Using cfiCommon0
          CFI (cfiCond269) Function AF_DataRequest
          CFI (cfiCond269) Conditional ??CrossCallReturnLabel_126
          CFI (cfiCond269) R6 load(1, XDATA, add(CFA_XSP16, literal(-16)))
          CFI (cfiCond269) VB load(1, XDATA, add(CFA_XSP16, literal(-15)))
          CFI (cfiCond269) V0 load(1, XDATA, add(CFA_XSP16, literal(-14)))
          CFI (cfiCond269) V1 load(1, XDATA, add(CFA_XSP16, literal(-13)))
          CFI (cfiCond269) V2 load(1, XDATA, add(CFA_XSP16, literal(-12)))
          CFI (cfiCond269) V3 load(1, XDATA, add(CFA_XSP16, literal(-11)))
          CFI (cfiCond269) V4 load(1, XDATA, add(CFA_XSP16, literal(-10)))
          CFI (cfiCond269) V5 load(1, XDATA, add(CFA_XSP16, literal(-9)))
          CFI (cfiCond269) V6 load(1, XDATA, add(CFA_XSP16, literal(-8)))
          CFI (cfiCond269) V7 load(1, XDATA, add(CFA_XSP16, literal(-7)))
          CFI (cfiCond269) R7 load(1, XDATA, add(CFA_XSP16, literal(-6)))
          CFI (cfiCond269) ?RET_LOW load(1, XDATA, add(CFA_XSP16, literal(-5)))
          CFI (cfiCond269) ?RET_HIGH load(1, XDATA, add(CFA_XSP16, literal(-4)))
          CFI (cfiCond269) ?BRET_EXT load(1, XDATA, add(CFA_XSP16, literal(-3)))
          CFI (cfiCond269) DPL0 load(1, XDATA, add(CFA_XSP16, literal(-2)))
          CFI (cfiCond269) DPH0 load(1, XDATA, add(CFA_XSP16, literal(-1)))
          CFI (cfiCond269) CFA_SP SP+-2
          CFI (cfiCond269) CFA_XSP16 add(XSP16, 46)
          CFI Block cfiCond270 Using cfiCommon0
          CFI (cfiCond270) Function AF_DataRequest
          CFI (cfiCond270) Conditional ??CrossCallReturnLabel_127
          CFI (cfiCond270) R6 load(1, XDATA, add(CFA_XSP16, literal(-16)))
          CFI (cfiCond270) VB load(1, XDATA, add(CFA_XSP16, literal(-15)))
          CFI (cfiCond270) V0 load(1, XDATA, add(CFA_XSP16, literal(-14)))
          CFI (cfiCond270) V1 load(1, XDATA, add(CFA_XSP16, literal(-13)))
          CFI (cfiCond270) V2 load(1, XDATA, add(CFA_XSP16, literal(-12)))
          CFI (cfiCond270) V3 load(1, XDATA, add(CFA_XSP16, literal(-11)))
          CFI (cfiCond270) V4 load(1, XDATA, add(CFA_XSP16, literal(-10)))
          CFI (cfiCond270) V5 load(1, XDATA, add(CFA_XSP16, literal(-9)))
          CFI (cfiCond270) V6 load(1, XDATA, add(CFA_XSP16, literal(-8)))
          CFI (cfiCond270) V7 load(1, XDATA, add(CFA_XSP16, literal(-7)))
          CFI (cfiCond270) R7 load(1, XDATA, add(CFA_XSP16, literal(-6)))
          CFI (cfiCond270) ?RET_LOW load(1, XDATA, add(CFA_XSP16, literal(-5)))
          CFI (cfiCond270) ?RET_HIGH load(1, XDATA, add(CFA_XSP16, literal(-4)))
          CFI (cfiCond270) ?BRET_EXT load(1, XDATA, add(CFA_XSP16, literal(-3)))
          CFI (cfiCond270) DPL0 load(1, XDATA, add(CFA_XSP16, literal(-2)))
          CFI (cfiCond270) DPH0 load(1, XDATA, add(CFA_XSP16, literal(-1)))
          CFI (cfiCond270) CFA_SP SP+-2
          CFI (cfiCond270) CFA_XSP16 add(XSP16, 46)
          CFI Block cfiCond271 Using cfiCommon0
          CFI (cfiCond271) Function AF_DataRequest
          CFI (cfiCond271) Conditional ??CrossCallReturnLabel_128
          CFI (cfiCond271) R6 load(1, XDATA, add(CFA_XSP16, literal(-16)))
          CFI (cfiCond271) VB load(1, XDATA, add(CFA_XSP16, literal(-15)))
          CFI (cfiCond271) V0 load(1, XDATA, add(CFA_XSP16, literal(-14)))
          CFI (cfiCond271) V1 load(1, XDATA, add(CFA_XSP16, literal(-13)))
          CFI (cfiCond271) V2 load(1, XDATA, add(CFA_XSP16, literal(-12)))
          CFI (cfiCond271) V3 load(1, XDATA, add(CFA_XSP16, literal(-11)))
          CFI (cfiCond271) V4 load(1, XDATA, add(CFA_XSP16, literal(-10)))
          CFI (cfiCond271) V5 load(1, XDATA, add(CFA_XSP16, literal(-9)))
          CFI (cfiCond271) V6 load(1, XDATA, add(CFA_XSP16, literal(-8)))
          CFI (cfiCond271) V7 load(1, XDATA, add(CFA_XSP16, literal(-7)))
          CFI (cfiCond271) R7 load(1, XDATA, add(CFA_XSP16, literal(-6)))
          CFI (cfiCond271) ?RET_LOW load(1, XDATA, add(CFA_XSP16, literal(-5)))
          CFI (cfiCond271) ?RET_HIGH load(1, XDATA, add(CFA_XSP16, literal(-4)))
          CFI (cfiCond271) ?BRET_EXT load(1, XDATA, add(CFA_XSP16, literal(-3)))
          CFI (cfiCond271) DPL0 load(1, XDATA, add(CFA_XSP16, literal(-2)))
          CFI (cfiCond271) DPH0 load(1, XDATA, add(CFA_XSP16, literal(-1)))
          CFI (cfiCond271) CFA_SP SP+-2
          CFI (cfiCond271) CFA_XSP16 add(XSP16, 46)
          CFI Block cfiCond272 Using cfiCommon0
          CFI (cfiCond272) Function AF_DataRequest
          CFI (cfiCond272) Conditional ??CrossCallReturnLabel_129
          CFI (cfiCond272) R6 load(1, XDATA, add(CFA_XSP16, literal(-16)))
          CFI (cfiCond272) VB load(1, XDATA, add(CFA_XSP16, literal(-15)))
          CFI (cfiCond272) V0 load(1, XDATA, add(CFA_XSP16, literal(-14)))
          CFI (cfiCond272) V1 load(1, XDATA, add(CFA_XSP16, literal(-13)))
          CFI (cfiCond272) V2 load(1, XDATA, add(CFA_XSP16, literal(-12)))
          CFI (cfiCond272) V3 load(1, XDATA, add(CFA_XSP16, literal(-11)))
          CFI (cfiCond272) V4 load(1, XDATA, add(CFA_XSP16, literal(-10)))
          CFI (cfiCond272) V5 load(1, XDATA, add(CFA_XSP16, literal(-9)))
          CFI (cfiCond272) V6 load(1, XDATA, add(CFA_XSP16, literal(-8)))
          CFI (cfiCond272) V7 load(1, XDATA, add(CFA_XSP16, literal(-7)))
          CFI (cfiCond272) R7 load(1, XDATA, add(CFA_XSP16, literal(-6)))
          CFI (cfiCond272) ?RET_LOW load(1, XDATA, add(CFA_XSP16, literal(-5)))
          CFI (cfiCond272) ?RET_HIGH load(1, XDATA, add(CFA_XSP16, literal(-4)))
          CFI (cfiCond272) ?BRET_EXT load(1, XDATA, add(CFA_XSP16, literal(-3)))
          CFI (cfiCond272) DPL0 load(1, XDATA, add(CFA_XSP16, literal(-2)))
          CFI (cfiCond272) DPH0 load(1, XDATA, add(CFA_XSP16, literal(-1)))
          CFI (cfiCond272) CFA_SP SP+-2
          CFI (cfiCond272) CFA_XSP16 add(XSP16, 46)
          CFI Block cfiCond273 Using cfiCommon0
          CFI (cfiCond273) Function afCopyAddress
          CFI (cfiCond273) Conditional ??CrossCallReturnLabel_130
          CFI (cfiCond273) R6 load(1, XDATA, add(CFA_XSP16, literal(-9)))
          CFI (cfiCond273) VB load(1, XDATA, add(CFA_XSP16, literal(-8)))
          CFI (cfiCond273) V0 load(1, XDATA, add(CFA_XSP16, literal(-7)))
          CFI (cfiCond273) R7 load(1, XDATA, add(CFA_XSP16, literal(-6)))
          CFI (cfiCond273) ?RET_LOW load(1, XDATA, add(CFA_XSP16, literal(-5)))
          CFI (cfiCond273) ?RET_HIGH load(1, XDATA, add(CFA_XSP16, literal(-4)))
          CFI (cfiCond273) ?BRET_EXT load(1, XDATA, add(CFA_XSP16, literal(-3)))
          CFI (cfiCond273) DPL0 load(1, XDATA, add(CFA_XSP16, literal(-2)))
          CFI (cfiCond273) DPH0 load(1, XDATA, add(CFA_XSP16, literal(-1)))
          CFI (cfiCond273) CFA_SP SP+-2
          CFI (cfiCond273) CFA_XSP16 add(XSP16, 9)
          CFI Block cfiCond274 Using cfiCommon0
          CFI (cfiCond274) Function afDelete
          CFI (cfiCond274) Conditional ??CrossCallReturnLabel_131
          CFI (cfiCond274) R6 load(1, XDATA, add(CFA_XSP16, literal(-9)))
          CFI (cfiCond274) VB load(1, XDATA, add(CFA_XSP16, literal(-8)))
          CFI (cfiCond274) V0 load(1, XDATA, add(CFA_XSP16, literal(-7)))
          CFI (cfiCond274) R7 load(1, XDATA, add(CFA_XSP16, literal(-6)))
          CFI (cfiCond274) ?RET_LOW load(1, XDATA, add(CFA_XSP16, literal(-5)))
          CFI (cfiCond274) ?RET_HIGH load(1, XDATA, add(CFA_XSP16, literal(-4)))
          CFI (cfiCond274) ?BRET_EXT load(1, XDATA, add(CFA_XSP16, literal(-3)))
          CFI (cfiCond274) DPL0 load(1, XDATA, add(CFA_XSP16, literal(-2)))
          CFI (cfiCond274) DPH0 load(1, XDATA, add(CFA_XSP16, literal(-1)))
          CFI (cfiCond274) CFA_SP SP+-2
          CFI (cfiCond274) CFA_XSP16 add(XSP16, 9)
          CFI Block cfiCond275 Using cfiCommon0
          CFI (cfiCond275) Function AF_DataRequest
          CFI (cfiCond275) Conditional ??CrossCallReturnLabel_132
          CFI (cfiCond275) R6 load(1, XDATA, add(CFA_XSP16, literal(-16)))
          CFI (cfiCond275) VB load(1, XDATA, add(CFA_XSP16, literal(-15)))
          CFI (cfiCond275) V0 load(1, XDATA, add(CFA_XSP16, literal(-14)))
          CFI (cfiCond275) V1 load(1, XDATA, add(CFA_XSP16, literal(-13)))
          CFI (cfiCond275) V2 load(1, XDATA, add(CFA_XSP16, literal(-12)))
          CFI (cfiCond275) V3 load(1, XDATA, add(CFA_XSP16, literal(-11)))
          CFI (cfiCond275) V4 load(1, XDATA, add(CFA_XSP16, literal(-10)))
          CFI (cfiCond275) V5 load(1, XDATA, add(CFA_XSP16, literal(-9)))
          CFI (cfiCond275) V6 load(1, XDATA, add(CFA_XSP16, literal(-8)))
          CFI (cfiCond275) V7 load(1, XDATA, add(CFA_XSP16, literal(-7)))
          CFI (cfiCond275) R7 load(1, XDATA, add(CFA_XSP16, literal(-6)))
          CFI (cfiCond275) ?RET_LOW load(1, XDATA, add(CFA_XSP16, literal(-5)))
          CFI (cfiCond275) ?RET_HIGH load(1, XDATA, add(CFA_XSP16, literal(-4)))
          CFI (cfiCond275) ?BRET_EXT load(1, XDATA, add(CFA_XSP16, literal(-3)))
          CFI (cfiCond275) DPL0 load(1, XDATA, add(CFA_XSP16, literal(-2)))
          CFI (cfiCond275) DPH0 load(1, XDATA, add(CFA_XSP16, literal(-1)))
          CFI (cfiCond275) CFA_SP SP+-2
          CFI (cfiCond275) CFA_XSP16 add(XSP16, 46)
          CFI Block cfiPicker276 Using cfiCommon1
          CFI (cfiPicker276) NoFunction
          CFI (cfiPicker276) Picker
        LCALL   ?Subroutine37 & 0xFFFF
??CrossCallReturnLabel_138:
        RET
          CFI EndBlock cfiCond266
          CFI EndBlock cfiCond267
          CFI EndBlock cfiCond268
          CFI EndBlock cfiCond269
          CFI EndBlock cfiCond270
          CFI EndBlock cfiCond271
          CFI EndBlock cfiCond272
          CFI EndBlock cfiCond273
          CFI EndBlock cfiCond274
          CFI EndBlock cfiCond275
          CFI EndBlock cfiPicker276

        RSEG BANKED_CODE:CODE:NOROOT(0)
?Subroutine37:
          CFI Block cfiCond277 Using cfiCommon0
          CFI Function afRegisterExtended
          CFI Conditional ??CrossCallReturnLabel_134, ??CrossCallReturnLabel_14
          CFI R6 load(1, XDATA, add(CFA_XSP16, literal(-12)))
          CFI VB load(1, XDATA, add(CFA_XSP16, literal(-11)))
          CFI V0 load(1, XDATA, add(CFA_XSP16, literal(-10)))
          CFI V1 load(1, XDATA, add(CFA_XSP16, literal(-9)))
          CFI V2 load(1, XDATA, add(CFA_XSP16, literal(-8)))
          CFI V3 load(1, XDATA, add(CFA_XSP16, literal(-7)))
          CFI R7 load(1, XDATA, add(CFA_XSP16, literal(-6)))
          CFI ?RET_LOW load(1, XDATA, add(CFA_XSP16, literal(-5)))
          CFI ?RET_HIGH load(1, XDATA, add(CFA_XSP16, literal(-4)))
          CFI ?BRET_EXT load(1, XDATA, add(CFA_XSP16, literal(-3)))
          CFI DPL0 load(1, XDATA, add(CFA_XSP16, literal(-2)))
          CFI DPH0 load(1, XDATA, add(CFA_XSP16, literal(-1)))
          CFI CFA_SP SP+-4
          CFI CFA_XSP16 add(XSP16, 12)
          CFI Block cfiCond278 Using cfiCommon0
          CFI (cfiCond278) Function afRegisterExtended
          CFI (cfiCond278) Conditional ??CrossCallReturnLabel_134, ??CrossCallReturnLabel_15
          CFI (cfiCond278) R6 load(1, XDATA, add(CFA_XSP16, literal(-12)))
          CFI (cfiCond278) VB load(1, XDATA, add(CFA_XSP16, literal(-11)))
          CFI (cfiCond278) V0 load(1, XDATA, add(CFA_XSP16, literal(-10)))
          CFI (cfiCond278) V1 load(1, XDATA, add(CFA_XSP16, literal(-9)))
          CFI (cfiCond278) V2 load(1, XDATA, add(CFA_XSP16, literal(-8)))
          CFI (cfiCond278) V3 load(1, XDATA, add(CFA_XSP16, literal(-7)))
          CFI (cfiCond278) R7 load(1, XDATA, add(CFA_XSP16, literal(-6)))
          CFI (cfiCond278) ?RET_LOW load(1, XDATA, add(CFA_XSP16, literal(-5)))
          CFI (cfiCond278) ?RET_HIGH load(1, XDATA, add(CFA_XSP16, literal(-4)))
          CFI (cfiCond278) ?BRET_EXT load(1, XDATA, add(CFA_XSP16, literal(-3)))
          CFI (cfiCond278) DPL0 load(1, XDATA, add(CFA_XSP16, literal(-2)))
          CFI (cfiCond278) DPH0 load(1, XDATA, add(CFA_XSP16, literal(-1)))
          CFI (cfiCond278) CFA_SP SP+-4
          CFI (cfiCond278) CFA_XSP16 add(XSP16, 12)
          CFI Block cfiCond279 Using cfiCommon0
          CFI (cfiCond279) Function afBuildMSGIncoming
          CFI (cfiCond279) Conditional ??CrossCallReturnLabel_136, ??CrossCallReturnLabel_18
          CFI (cfiCond279) R6 load(1, XDATA, add(CFA_XSP16, literal(-16)))
          CFI (cfiCond279) VB load(1, XDATA, add(CFA_XSP16, literal(-15)))
          CFI (cfiCond279) V0 load(1, XDATA, add(CFA_XSP16, literal(-14)))
          CFI (cfiCond279) V1 load(1, XDATA, add(CFA_XSP16, literal(-13)))
          CFI (cfiCond279) V2 load(1, XDATA, add(CFA_XSP16, literal(-12)))
          CFI (cfiCond279) V3 load(1, XDATA, add(CFA_XSP16, literal(-11)))
          CFI (cfiCond279) V4 load(1, XDATA, add(CFA_XSP16, literal(-10)))
          CFI (cfiCond279) V5 load(1, XDATA, add(CFA_XSP16, literal(-9)))
          CFI (cfiCond279) V6 load(1, XDATA, add(CFA_XSP16, literal(-8)))
          CFI (cfiCond279) V7 load(1, XDATA, add(CFA_XSP16, literal(-7)))
          CFI (cfiCond279) R7 load(1, XDATA, add(CFA_XSP16, literal(-6)))
          CFI (cfiCond279) ?RET_LOW load(1, XDATA, add(CFA_XSP16, literal(-5)))
          CFI (cfiCond279) ?RET_HIGH load(1, XDATA, add(CFA_XSP16, literal(-4)))
          CFI (cfiCond279) ?BRET_EXT load(1, XDATA, add(CFA_XSP16, literal(-3)))
          CFI (cfiCond279) DPL0 load(1, XDATA, add(CFA_XSP16, literal(-2)))
          CFI (cfiCond279) DPH0 load(1, XDATA, add(CFA_XSP16, literal(-1)))
          CFI (cfiCond279) CFA_SP SP+-4
          CFI (cfiCond279) CFA_XSP16 add(XSP16, 17)
          CFI Block cfiCond280 Using cfiCommon0
          CFI (cfiCond280) Function afBuildMSGIncoming
          CFI (cfiCond280) Conditional ??CrossCallReturnLabel_136, ??CrossCallReturnLabel_19
          CFI (cfiCond280) R6 load(1, XDATA, add(CFA_XSP16, literal(-16)))
          CFI (cfiCond280) VB load(1, XDATA, add(CFA_XSP16, literal(-15)))
          CFI (cfiCond280) V0 load(1, XDATA, add(CFA_XSP16, literal(-14)))
          CFI (cfiCond280) V1 load(1, XDATA, add(CFA_XSP16, literal(-13)))
          CFI (cfiCond280) V2 load(1, XDATA, add(CFA_XSP16, literal(-12)))
          CFI (cfiCond280) V3 load(1, XDATA, add(CFA_XSP16, literal(-11)))
          CFI (cfiCond280) V4 load(1, XDATA, add(CFA_XSP16, literal(-10)))
          CFI (cfiCond280) V5 load(1, XDATA, add(CFA_XSP16, literal(-9)))
          CFI (cfiCond280) V6 load(1, XDATA, add(CFA_XSP16, literal(-8)))
          CFI (cfiCond280) V7 load(1, XDATA, add(CFA_XSP16, literal(-7)))
          CFI (cfiCond280) R7 load(1, XDATA, add(CFA_XSP16, literal(-6)))
          CFI (cfiCond280) ?RET_LOW load(1, XDATA, add(CFA_XSP16, literal(-5)))
          CFI (cfiCond280) ?RET_HIGH load(1, XDATA, add(CFA_XSP16, literal(-4)))
          CFI (cfiCond280) ?BRET_EXT load(1, XDATA, add(CFA_XSP16, literal(-3)))
          CFI (cfiCond280) DPL0 load(1, XDATA, add(CFA_XSP16, literal(-2)))
          CFI (cfiCond280) DPH0 load(1, XDATA, add(CFA_XSP16, literal(-1)))
          CFI (cfiCond280) CFA_SP SP+-4
          CFI (cfiCond280) CFA_XSP16 add(XSP16, 17)
          CFI Block cfiCond281 Using cfiCommon0
          CFI (cfiCond281) Function afBuildMSGIncoming
          CFI (cfiCond281) Conditional ??CrossCallReturnLabel_136, ??CrossCallReturnLabel_20
          CFI (cfiCond281) R6 load(1, XDATA, add(CFA_XSP16, literal(-16)))
          CFI (cfiCond281) VB load(1, XDATA, add(CFA_XSP16, literal(-15)))
          CFI (cfiCond281) V0 load(1, XDATA, add(CFA_XSP16, literal(-14)))
          CFI (cfiCond281) V1 load(1, XDATA, add(CFA_XSP16, literal(-13)))
          CFI (cfiCond281) V2 load(1, XDATA, add(CFA_XSP16, literal(-12)))
          CFI (cfiCond281) V3 load(1, XDATA, add(CFA_XSP16, literal(-11)))
          CFI (cfiCond281) V4 load(1, XDATA, add(CFA_XSP16, literal(-10)))
          CFI (cfiCond281) V5 load(1, XDATA, add(CFA_XSP16, literal(-9)))
          CFI (cfiCond281) V6 load(1, XDATA, add(CFA_XSP16, literal(-8)))
          CFI (cfiCond281) V7 load(1, XDATA, add(CFA_XSP16, literal(-7)))
          CFI (cfiCond281) R7 load(1, XDATA, add(CFA_XSP16, literal(-6)))
          CFI (cfiCond281) ?RET_LOW load(1, XDATA, add(CFA_XSP16, literal(-5)))
          CFI (cfiCond281) ?RET_HIGH load(1, XDATA, add(CFA_XSP16, literal(-4)))
          CFI (cfiCond281) ?BRET_EXT load(1, XDATA, add(CFA_XSP16, literal(-3)))
          CFI (cfiCond281) DPL0 load(1, XDATA, add(CFA_XSP16, literal(-2)))
          CFI (cfiCond281) DPH0 load(1, XDATA, add(CFA_XSP16, literal(-1)))
          CFI (cfiCond281) CFA_SP SP+-4
          CFI (cfiCond281) CFA_XSP16 add(XSP16, 17)
          CFI Block cfiCond282 Using cfiCommon0
          CFI (cfiCond282) Function afBuildMSGIncoming
          CFI (cfiCond282) Conditional ??CrossCallReturnLabel_133, ??CrossCallReturnLabel_10
          CFI (cfiCond282) R6 load(1, XDATA, add(CFA_XSP16, literal(-16)))
          CFI (cfiCond282) VB load(1, XDATA, add(CFA_XSP16, literal(-15)))
          CFI (cfiCond282) V0 load(1, XDATA, add(CFA_XSP16, literal(-14)))
          CFI (cfiCond282) V1 load(1, XDATA, add(CFA_XSP16, literal(-13)))
          CFI (cfiCond282) V2 load(1, XDATA, add(CFA_XSP16, literal(-12)))
          CFI (cfiCond282) V3 load(1, XDATA, add(CFA_XSP16, literal(-11)))
          CFI (cfiCond282) V4 load(1, XDATA, add(CFA_XSP16, literal(-10)))
          CFI (cfiCond282) V5 load(1, XDATA, add(CFA_XSP16, literal(-9)))
          CFI (cfiCond282) V6 load(1, XDATA, add(CFA_XSP16, literal(-8)))
          CFI (cfiCond282) V7 load(1, XDATA, add(CFA_XSP16, literal(-7)))
          CFI (cfiCond282) R7 load(1, XDATA, add(CFA_XSP16, literal(-6)))
          CFI (cfiCond282) ?RET_LOW load(1, XDATA, add(CFA_XSP16, literal(-5)))
          CFI (cfiCond282) ?RET_HIGH load(1, XDATA, add(CFA_XSP16, literal(-4)))
          CFI (cfiCond282) ?BRET_EXT load(1, XDATA, add(CFA_XSP16, literal(-3)))
          CFI (cfiCond282) DPL0 load(1, XDATA, add(CFA_XSP16, literal(-2)))
          CFI (cfiCond282) DPH0 load(1, XDATA, add(CFA_XSP16, literal(-1)))
          CFI (cfiCond282) CFA_SP SP+-4
          CFI (cfiCond282) CFA_XSP16 add(XSP16, 17)
          CFI Block cfiCond283 Using cfiCommon0
          CFI (cfiCond283) Function afBuildMSGIncoming
          CFI (cfiCond283) Conditional ??CrossCallReturnLabel_133, ??CrossCallReturnLabel_11
          CFI (cfiCond283) R6 load(1, XDATA, add(CFA_XSP16, literal(-16)))
          CFI (cfiCond283) VB load(1, XDATA, add(CFA_XSP16, literal(-15)))
          CFI (cfiCond283) V0 load(1, XDATA, add(CFA_XSP16, literal(-14)))
          CFI (cfiCond283) V1 load(1, XDATA, add(CFA_XSP16, literal(-13)))
          CFI (cfiCond283) V2 load(1, XDATA, add(CFA_XSP16, literal(-12)))
          CFI (cfiCond283) V3 load(1, XDATA, add(CFA_XSP16, literal(-11)))
          CFI (cfiCond283) V4 load(1, XDATA, add(CFA_XSP16, literal(-10)))
          CFI (cfiCond283) V5 load(1, XDATA, add(CFA_XSP16, literal(-9)))
          CFI (cfiCond283) V6 load(1, XDATA, add(CFA_XSP16, literal(-8)))
          CFI (cfiCond283) V7 load(1, XDATA, add(CFA_XSP16, literal(-7)))
          CFI (cfiCond283) R7 load(1, XDATA, add(CFA_XSP16, literal(-6)))
          CFI (cfiCond283) ?RET_LOW load(1, XDATA, add(CFA_XSP16, literal(-5)))
          CFI (cfiCond283) ?RET_HIGH load(1, XDATA, add(CFA_XSP16, literal(-4)))
          CFI (cfiCond283) ?BRET_EXT load(1, XDATA, add(CFA_XSP16, literal(-3)))
          CFI (cfiCond283) DPL0 load(1, XDATA, add(CFA_XSP16, literal(-2)))
          CFI (cfiCond283) DPH0 load(1, XDATA, add(CFA_XSP16, literal(-1)))
          CFI (cfiCond283) CFA_SP SP+-4
          CFI (cfiCond283) CFA_XSP16 add(XSP16, 17)
          CFI Block cfiCond284 Using cfiCommon0
          CFI (cfiCond284) Function afIncomingData
          CFI (cfiCond284) Conditional ??CrossCallReturnLabel_137, ??CrossCallReturnLabel_90
          CFI (cfiCond284) R6 load(1, XDATA, add(CFA_XSP16, literal(-16)))
          CFI (cfiCond284) VB load(1, XDATA, add(CFA_XSP16, literal(-15)))
          CFI (cfiCond284) V0 load(1, XDATA, add(CFA_XSP16, literal(-14)))
          CFI (cfiCond284) V1 load(1, XDATA, add(CFA_XSP16, literal(-13)))
          CFI (cfiCond284) V2 load(1, XDATA, add(CFA_XSP16, literal(-12)))
          CFI (cfiCond284) V3 load(1, XDATA, add(CFA_XSP16, literal(-11)))
          CFI (cfiCond284) V4 load(1, XDATA, add(CFA_XSP16, literal(-10)))
          CFI (cfiCond284) V5 load(1, XDATA, add(CFA_XSP16, literal(-9)))
          CFI (cfiCond284) V6 load(1, XDATA, add(CFA_XSP16, literal(-8)))
          CFI (cfiCond284) V7 load(1, XDATA, add(CFA_XSP16, literal(-7)))
          CFI (cfiCond284) R7 load(1, XDATA, add(CFA_XSP16, literal(-6)))
          CFI (cfiCond284) ?RET_LOW load(1, XDATA, add(CFA_XSP16, literal(-5)))
          CFI (cfiCond284) ?RET_HIGH load(1, XDATA, add(CFA_XSP16, literal(-4)))
          CFI (cfiCond284) ?BRET_EXT load(1, XDATA, add(CFA_XSP16, literal(-3)))
          CFI (cfiCond284) DPL0 load(1, XDATA, add(CFA_XSP16, literal(-2)))
          CFI (cfiCond284) DPH0 load(1, XDATA, add(CFA_XSP16, literal(-1)))
          CFI (cfiCond284) CFA_SP SP+-4
          CFI (cfiCond284) CFA_XSP16 add(XSP16, 25)
          CFI Block cfiCond285 Using cfiCommon0
          CFI (cfiCond285) Function afIncomingData
          CFI (cfiCond285) Conditional ??CrossCallReturnLabel_137, ??CrossCallReturnLabel_91
          CFI (cfiCond285) R6 load(1, XDATA, add(CFA_XSP16, literal(-16)))
          CFI (cfiCond285) VB load(1, XDATA, add(CFA_XSP16, literal(-15)))
          CFI (cfiCond285) V0 load(1, XDATA, add(CFA_XSP16, literal(-14)))
          CFI (cfiCond285) V1 load(1, XDATA, add(CFA_XSP16, literal(-13)))
          CFI (cfiCond285) V2 load(1, XDATA, add(CFA_XSP16, literal(-12)))
          CFI (cfiCond285) V3 load(1, XDATA, add(CFA_XSP16, literal(-11)))
          CFI (cfiCond285) V4 load(1, XDATA, add(CFA_XSP16, literal(-10)))
          CFI (cfiCond285) V5 load(1, XDATA, add(CFA_XSP16, literal(-9)))
          CFI (cfiCond285) V6 load(1, XDATA, add(CFA_XSP16, literal(-8)))
          CFI (cfiCond285) V7 load(1, XDATA, add(CFA_XSP16, literal(-7)))
          CFI (cfiCond285) R7 load(1, XDATA, add(CFA_XSP16, literal(-6)))
          CFI (cfiCond285) ?RET_LOW load(1, XDATA, add(CFA_XSP16, literal(-5)))
          CFI (cfiCond285) ?RET_HIGH load(1, XDATA, add(CFA_XSP16, literal(-4)))
          CFI (cfiCond285) ?BRET_EXT load(1, XDATA, add(CFA_XSP16, literal(-3)))
          CFI (cfiCond285) DPL0 load(1, XDATA, add(CFA_XSP16, literal(-2)))
          CFI (cfiCond285) DPH0 load(1, XDATA, add(CFA_XSP16, literal(-1)))
          CFI (cfiCond285) CFA_SP SP+-4
          CFI (cfiCond285) CFA_XSP16 add(XSP16, 25)
          CFI Block cfiCond286 Using cfiCommon0
          CFI (cfiCond286) Function AF_DataRequest
          CFI (cfiCond286) Conditional ??CrossCallReturnLabel_137, ??CrossCallReturnLabel_92
          CFI (cfiCond286) R6 load(1, XDATA, add(CFA_XSP16, literal(-16)))
          CFI (cfiCond286) VB load(1, XDATA, add(CFA_XSP16, literal(-15)))
          CFI (cfiCond286) V0 load(1, XDATA, add(CFA_XSP16, literal(-14)))
          CFI (cfiCond286) V1 load(1, XDATA, add(CFA_XSP16, literal(-13)))
          CFI (cfiCond286) V2 load(1, XDATA, add(CFA_XSP16, literal(-12)))
          CFI (cfiCond286) V3 load(1, XDATA, add(CFA_XSP16, literal(-11)))
          CFI (cfiCond286) V4 load(1, XDATA, add(CFA_XSP16, literal(-10)))
          CFI (cfiCond286) V5 load(1, XDATA, add(CFA_XSP16, literal(-9)))
          CFI (cfiCond286) V6 load(1, XDATA, add(CFA_XSP16, literal(-8)))
          CFI (cfiCond286) V7 load(1, XDATA, add(CFA_XSP16, literal(-7)))
          CFI (cfiCond286) R7 load(1, XDATA, add(CFA_XSP16, literal(-6)))
          CFI (cfiCond286) ?RET_LOW load(1, XDATA, add(CFA_XSP16, literal(-5)))
          CFI (cfiCond286) ?RET_HIGH load(1, XDATA, add(CFA_XSP16, literal(-4)))
          CFI (cfiCond286) ?BRET_EXT load(1, XDATA, add(CFA_XSP16, literal(-3)))
          CFI (cfiCond286) DPL0 load(1, XDATA, add(CFA_XSP16, literal(-2)))
          CFI (cfiCond286) DPH0 load(1, XDATA, add(CFA_XSP16, literal(-1)))
          CFI (cfiCond286) CFA_SP SP+-4
          CFI (cfiCond286) CFA_XSP16 add(XSP16, 46)
          CFI Block cfiCond287 Using cfiCommon0
          CFI (cfiCond287) Function afDelete
          CFI (cfiCond287) Conditional ??CrossCallReturnLabel_137, ??CrossCallReturnLabel_85
          CFI (cfiCond287) R6 load(1, XDATA, add(CFA_XSP16, literal(-9)))
          CFI (cfiCond287) VB load(1, XDATA, add(CFA_XSP16, literal(-8)))
          CFI (cfiCond287) V0 load(1, XDATA, add(CFA_XSP16, literal(-7)))
          CFI (cfiCond287) R7 load(1, XDATA, add(CFA_XSP16, literal(-6)))
          CFI (cfiCond287) ?RET_LOW load(1, XDATA, add(CFA_XSP16, literal(-5)))
          CFI (cfiCond287) ?RET_HIGH load(1, XDATA, add(CFA_XSP16, literal(-4)))
          CFI (cfiCond287) ?BRET_EXT load(1, XDATA, add(CFA_XSP16, literal(-3)))
          CFI (cfiCond287) DPL0 load(1, XDATA, add(CFA_XSP16, literal(-2)))
          CFI (cfiCond287) DPH0 load(1, XDATA, add(CFA_XSP16, literal(-1)))
          CFI (cfiCond287) CFA_SP SP+-4
          CFI (cfiCond287) CFA_XSP16 add(XSP16, 9)
          CFI Block cfiCond288 Using cfiCommon0
          CFI (cfiCond288) Function afIncomingData
          CFI (cfiCond288) Conditional ??CrossCallReturnLabel_137, ??CrossCallReturnLabel_86
          CFI (cfiCond288) R6 load(1, XDATA, add(CFA_XSP16, literal(-16)))
          CFI (cfiCond288) VB load(1, XDATA, add(CFA_XSP16, literal(-15)))
          CFI (cfiCond288) V0 load(1, XDATA, add(CFA_XSP16, literal(-14)))
          CFI (cfiCond288) V1 load(1, XDATA, add(CFA_XSP16, literal(-13)))
          CFI (cfiCond288) V2 load(1, XDATA, add(CFA_XSP16, literal(-12)))
          CFI (cfiCond288) V3 load(1, XDATA, add(CFA_XSP16, literal(-11)))
          CFI (cfiCond288) V4 load(1, XDATA, add(CFA_XSP16, literal(-10)))
          CFI (cfiCond288) V5 load(1, XDATA, add(CFA_XSP16, literal(-9)))
          CFI (cfiCond288) V6 load(1, XDATA, add(CFA_XSP16, literal(-8)))
          CFI (cfiCond288) V7 load(1, XDATA, add(CFA_XSP16, literal(-7)))
          CFI (cfiCond288) R7 load(1, XDATA, add(CFA_XSP16, literal(-6)))
          CFI (cfiCond288) ?RET_LOW load(1, XDATA, add(CFA_XSP16, literal(-5)))
          CFI (cfiCond288) ?RET_HIGH load(1, XDATA, add(CFA_XSP16, literal(-4)))
          CFI (cfiCond288) ?BRET_EXT load(1, XDATA, add(CFA_XSP16, literal(-3)))
          CFI (cfiCond288) DPL0 load(1, XDATA, add(CFA_XSP16, literal(-2)))
          CFI (cfiCond288) DPH0 load(1, XDATA, add(CFA_XSP16, literal(-1)))
          CFI (cfiCond288) CFA_SP SP+-4
          CFI (cfiCond288) CFA_XSP16 add(XSP16, 25)
          CFI Block cfiCond289 Using cfiCommon0
          CFI (cfiCond289) Function afIncomingData
          CFI (cfiCond289) Conditional ??CrossCallReturnLabel_137, ??CrossCallReturnLabel_87
          CFI (cfiCond289) R6 load(1, XDATA, add(CFA_XSP16, literal(-16)))
          CFI (cfiCond289) VB load(1, XDATA, add(CFA_XSP16, literal(-15)))
          CFI (cfiCond289) V0 load(1, XDATA, add(CFA_XSP16, literal(-14)))
          CFI (cfiCond289) V1 load(1, XDATA, add(CFA_XSP16, literal(-13)))
          CFI (cfiCond289) V2 load(1, XDATA, add(CFA_XSP16, literal(-12)))
          CFI (cfiCond289) V3 load(1, XDATA, add(CFA_XSP16, literal(-11)))
          CFI (cfiCond289) V4 load(1, XDATA, add(CFA_XSP16, literal(-10)))
          CFI (cfiCond289) V5 load(1, XDATA, add(CFA_XSP16, literal(-9)))
          CFI (cfiCond289) V6 load(1, XDATA, add(CFA_XSP16, literal(-8)))
          CFI (cfiCond289) V7 load(1, XDATA, add(CFA_XSP16, literal(-7)))
          CFI (cfiCond289) R7 load(1, XDATA, add(CFA_XSP16, literal(-6)))
          CFI (cfiCond289) ?RET_LOW load(1, XDATA, add(CFA_XSP16, literal(-5)))
          CFI (cfiCond289) ?RET_HIGH load(1, XDATA, add(CFA_XSP16, literal(-4)))
          CFI (cfiCond289) ?BRET_EXT load(1, XDATA, add(CFA_XSP16, literal(-3)))
          CFI (cfiCond289) DPL0 load(1, XDATA, add(CFA_XSP16, literal(-2)))
          CFI (cfiCond289) DPH0 load(1, XDATA, add(CFA_XSP16, literal(-1)))
          CFI (cfiCond289) CFA_SP SP+-4
          CFI (cfiCond289) CFA_XSP16 add(XSP16, 25)
          CFI Block cfiCond290 Using cfiCommon0
          CFI (cfiCond290) Function afBuildMSGIncoming
          CFI (cfiCond290) Conditional ??CrossCallReturnLabel_137, ??CrossCallReturnLabel_88
          CFI (cfiCond290) R6 load(1, XDATA, add(CFA_XSP16, literal(-16)))
          CFI (cfiCond290) VB load(1, XDATA, add(CFA_XSP16, literal(-15)))
          CFI (cfiCond290) V0 load(1, XDATA, add(CFA_XSP16, literal(-14)))
          CFI (cfiCond290) V1 load(1, XDATA, add(CFA_XSP16, literal(-13)))
          CFI (cfiCond290) V2 load(1, XDATA, add(CFA_XSP16, literal(-12)))
          CFI (cfiCond290) V3 load(1, XDATA, add(CFA_XSP16, literal(-11)))
          CFI (cfiCond290) V4 load(1, XDATA, add(CFA_XSP16, literal(-10)))
          CFI (cfiCond290) V5 load(1, XDATA, add(CFA_XSP16, literal(-9)))
          CFI (cfiCond290) V6 load(1, XDATA, add(CFA_XSP16, literal(-8)))
          CFI (cfiCond290) V7 load(1, XDATA, add(CFA_XSP16, literal(-7)))
          CFI (cfiCond290) R7 load(1, XDATA, add(CFA_XSP16, literal(-6)))
          CFI (cfiCond290) ?RET_LOW load(1, XDATA, add(CFA_XSP16, literal(-5)))
          CFI (cfiCond290) ?RET_HIGH load(1, XDATA, add(CFA_XSP16, literal(-4)))
          CFI (cfiCond290) ?BRET_EXT load(1, XDATA, add(CFA_XSP16, literal(-3)))
          CFI (cfiCond290) DPL0 load(1, XDATA, add(CFA_XSP16, literal(-2)))
          CFI (cfiCond290) DPH0 load(1, XDATA, add(CFA_XSP16, literal(-1)))
          CFI (cfiCond290) CFA_SP SP+-4
          CFI (cfiCond290) CFA_XSP16 add(XSP16, 17)
          CFI Block cfiCond291 Using cfiCommon0
          CFI (cfiCond291) Function AF_DataRequest
          CFI (cfiCond291) Conditional ??CrossCallReturnLabel_137, ??CrossCallReturnLabel_83
          CFI (cfiCond291) R6 load(1, XDATA, add(CFA_XSP16, literal(-16)))
          CFI (cfiCond291) VB load(1, XDATA, add(CFA_XSP16, literal(-15)))
          CFI (cfiCond291) V0 load(1, XDATA, add(CFA_XSP16, literal(-14)))
          CFI (cfiCond291) V1 load(1, XDATA, add(CFA_XSP16, literal(-13)))
          CFI (cfiCond291) V2 load(1, XDATA, add(CFA_XSP16, literal(-12)))
          CFI (cfiCond291) V3 load(1, XDATA, add(CFA_XSP16, literal(-11)))
          CFI (cfiCond291) V4 load(1, XDATA, add(CFA_XSP16, literal(-10)))
          CFI (cfiCond291) V5 load(1, XDATA, add(CFA_XSP16, literal(-9)))
          CFI (cfiCond291) V6 load(1, XDATA, add(CFA_XSP16, literal(-8)))
          CFI (cfiCond291) V7 load(1, XDATA, add(CFA_XSP16, literal(-7)))
          CFI (cfiCond291) R7 load(1, XDATA, add(CFA_XSP16, literal(-6)))
          CFI (cfiCond291) ?RET_LOW load(1, XDATA, add(CFA_XSP16, literal(-5)))
          CFI (cfiCond291) ?RET_HIGH load(1, XDATA, add(CFA_XSP16, literal(-4)))
          CFI (cfiCond291) ?BRET_EXT load(1, XDATA, add(CFA_XSP16, literal(-3)))
          CFI (cfiCond291) DPL0 load(1, XDATA, add(CFA_XSP16, literal(-2)))
          CFI (cfiCond291) DPH0 load(1, XDATA, add(CFA_XSP16, literal(-1)))
          CFI (cfiCond291) CFA_SP SP+-4
          CFI (cfiCond291) CFA_XSP16 add(XSP16, 46)
          CFI Block cfiCond292 Using cfiCommon0
          CFI (cfiCond292) Function AF_DataRequest
          CFI (cfiCond292) Conditional ??CrossCallReturnLabel_137, ??CrossCallReturnLabel_89
          CFI (cfiCond292) R6 load(1, XDATA, add(CFA_XSP16, literal(-16)))
          CFI (cfiCond292) VB load(1, XDATA, add(CFA_XSP16, literal(-15)))
          CFI (cfiCond292) V0 load(1, XDATA, add(CFA_XSP16, literal(-14)))
          CFI (cfiCond292) V1 load(1, XDATA, add(CFA_XSP16, literal(-13)))
          CFI (cfiCond292) V2 load(1, XDATA, add(CFA_XSP16, literal(-12)))
          CFI (cfiCond292) V3 load(1, XDATA, add(CFA_XSP16, literal(-11)))
          CFI (cfiCond292) V4 load(1, XDATA, add(CFA_XSP16, literal(-10)))
          CFI (cfiCond292) V5 load(1, XDATA, add(CFA_XSP16, literal(-9)))
          CFI (cfiCond292) V6 load(1, XDATA, add(CFA_XSP16, literal(-8)))
          CFI (cfiCond292) V7 load(1, XDATA, add(CFA_XSP16, literal(-7)))
          CFI (cfiCond292) R7 load(1, XDATA, add(CFA_XSP16, literal(-6)))
          CFI (cfiCond292) ?RET_LOW load(1, XDATA, add(CFA_XSP16, literal(-5)))
          CFI (cfiCond292) ?RET_HIGH load(1, XDATA, add(CFA_XSP16, literal(-4)))
          CFI (cfiCond292) ?BRET_EXT load(1, XDATA, add(CFA_XSP16, literal(-3)))
          CFI (cfiCond292) DPL0 load(1, XDATA, add(CFA_XSP16, literal(-2)))
          CFI (cfiCond292) DPH0 load(1, XDATA, add(CFA_XSP16, literal(-1)))
          CFI (cfiCond292) CFA_SP SP+-4
          CFI (cfiCond292) CFA_XSP16 add(XSP16, 46)
          CFI Block cfiCond293 Using cfiCommon0
          CFI (cfiCond293) Function afEndPoints
          CFI (cfiCond293) Conditional ??CrossCallReturnLabel_137, ??CrossCallReturnLabel_84
          CFI (cfiCond293) DPL0 Frame(CFA_SP, 4)
          CFI (cfiCond293) DPH0 Frame(CFA_SP, 5)
          CFI (cfiCond293) CFA_SP SP+-9
          CFI Block cfiCond294 Using cfiCommon0
          CFI (cfiCond294) Function afBuildMSGIncoming
          CFI (cfiCond294) Conditional ??CrossCallReturnLabel_135, ??CrossCallReturnLabel_16
          CFI (cfiCond294) R6 load(1, XDATA, add(CFA_XSP16, literal(-16)))
          CFI (cfiCond294) VB load(1, XDATA, add(CFA_XSP16, literal(-15)))
          CFI (cfiCond294) V0 load(1, XDATA, add(CFA_XSP16, literal(-14)))
          CFI (cfiCond294) V1 load(1, XDATA, add(CFA_XSP16, literal(-13)))
          CFI (cfiCond294) V2 load(1, XDATA, add(CFA_XSP16, literal(-12)))
          CFI (cfiCond294) V3 load(1, XDATA, add(CFA_XSP16, literal(-11)))
          CFI (cfiCond294) V4 load(1, XDATA, add(CFA_XSP16, literal(-10)))
          CFI (cfiCond294) V5 load(1, XDATA, add(CFA_XSP16, literal(-9)))
          CFI (cfiCond294) V6 load(1, XDATA, add(CFA_XSP16, literal(-8)))
          CFI (cfiCond294) V7 load(1, XDATA, add(CFA_XSP16, literal(-7)))
          CFI (cfiCond294) R7 load(1, XDATA, add(CFA_XSP16, literal(-6)))
          CFI (cfiCond294) ?RET_LOW load(1, XDATA, add(CFA_XSP16, literal(-5)))
          CFI (cfiCond294) ?RET_HIGH load(1, XDATA, add(CFA_XSP16, literal(-4)))
          CFI (cfiCond294) ?BRET_EXT load(1, XDATA, add(CFA_XSP16, literal(-3)))
          CFI (cfiCond294) DPL0 load(1, XDATA, add(CFA_XSP16, literal(-2)))
          CFI (cfiCond294) DPH0 load(1, XDATA, add(CFA_XSP16, literal(-1)))
          CFI (cfiCond294) CFA_SP SP+-4
          CFI (cfiCond294) CFA_XSP16 add(XSP16, 17)
          CFI Block cfiCond295 Using cfiCommon0
          CFI (cfiCond295) Function afNumEndPoints
          CFI (cfiCond295) Conditional ??CrossCallReturnLabel_135, ??CrossCallReturnLabel_17
          CFI (cfiCond295) DPL0 Frame(CFA_SP, 4)
          CFI (cfiCond295) DPH0 Frame(CFA_SP, 5)
          CFI (cfiCond295) CFA_SP SP+-9
          CFI Block cfiCond296 Using cfiCommon0
          CFI (cfiCond296) Function afDelete
          CFI (cfiCond296) Conditional ??CrossCallReturnLabel_138, ??CrossCallReturnLabel_131
          CFI (cfiCond296) R6 load(1, XDATA, add(CFA_XSP16, literal(-9)))
          CFI (cfiCond296) VB load(1, XDATA, add(CFA_XSP16, literal(-8)))
          CFI (cfiCond296) V0 load(1, XDATA, add(CFA_XSP16, literal(-7)))
          CFI (cfiCond296) R7 load(1, XDATA, add(CFA_XSP16, literal(-6)))
          CFI (cfiCond296) ?RET_LOW load(1, XDATA, add(CFA_XSP16, literal(-5)))
          CFI (cfiCond296) ?RET_HIGH load(1, XDATA, add(CFA_XSP16, literal(-4)))
          CFI (cfiCond296) ?BRET_EXT load(1, XDATA, add(CFA_XSP16, literal(-3)))
          CFI (cfiCond296) DPL0 load(1, XDATA, add(CFA_XSP16, literal(-2)))
          CFI (cfiCond296) DPH0 load(1, XDATA, add(CFA_XSP16, literal(-1)))
          CFI (cfiCond296) CFA_SP SP+-4
          CFI (cfiCond296) CFA_XSP16 add(XSP16, 9)
          CFI Block cfiCond297 Using cfiCommon0
          CFI (cfiCond297) Function AF_DataRequest
          CFI (cfiCond297) Conditional ??CrossCallReturnLabel_138, ??CrossCallReturnLabel_132
          CFI (cfiCond297) R6 load(1, XDATA, add(CFA_XSP16, literal(-16)))
          CFI (cfiCond297) VB load(1, XDATA, add(CFA_XSP16, literal(-15)))
          CFI (cfiCond297) V0 load(1, XDATA, add(CFA_XSP16, literal(-14)))
          CFI (cfiCond297) V1 load(1, XDATA, add(CFA_XSP16, literal(-13)))
          CFI (cfiCond297) V2 load(1, XDATA, add(CFA_XSP16, literal(-12)))
          CFI (cfiCond297) V3 load(1, XDATA, add(CFA_XSP16, literal(-11)))
          CFI (cfiCond297) V4 load(1, XDATA, add(CFA_XSP16, literal(-10)))
          CFI (cfiCond297) V5 load(1, XDATA, add(CFA_XSP16, literal(-9)))
          CFI (cfiCond297) V6 load(1, XDATA, add(CFA_XSP16, literal(-8)))
          CFI (cfiCond297) V7 load(1, XDATA, add(CFA_XSP16, literal(-7)))
          CFI (cfiCond297) R7 load(1, XDATA, add(CFA_XSP16, literal(-6)))
          CFI (cfiCond297) ?RET_LOW load(1, XDATA, add(CFA_XSP16, literal(-5)))
          CFI (cfiCond297) ?RET_HIGH load(1, XDATA, add(CFA_XSP16, literal(-4)))
          CFI (cfiCond297) ?BRET_EXT load(1, XDATA, add(CFA_XSP16, literal(-3)))
          CFI (cfiCond297) DPL0 load(1, XDATA, add(CFA_XSP16, literal(-2)))
          CFI (cfiCond297) DPH0 load(1, XDATA, add(CFA_XSP16, literal(-1)))
          CFI (cfiCond297) CFA_SP SP+-4
          CFI (cfiCond297) CFA_XSP16 add(XSP16, 46)
          CFI Block cfiCond298 Using cfiCommon0
          CFI (cfiCond298) Function afIncomingData
          CFI (cfiCond298) Conditional ??CrossCallReturnLabel_138, ??CrossCallReturnLabel_123
          CFI (cfiCond298) R6 load(1, XDATA, add(CFA_XSP16, literal(-16)))
          CFI (cfiCond298) VB load(1, XDATA, add(CFA_XSP16, literal(-15)))
          CFI (cfiCond298) V0 load(1, XDATA, add(CFA_XSP16, literal(-14)))
          CFI (cfiCond298) V1 load(1, XDATA, add(CFA_XSP16, literal(-13)))
          CFI (cfiCond298) V2 load(1, XDATA, add(CFA_XSP16, literal(-12)))
          CFI (cfiCond298) V3 load(1, XDATA, add(CFA_XSP16, literal(-11)))
          CFI (cfiCond298) V4 load(1, XDATA, add(CFA_XSP16, literal(-10)))
          CFI (cfiCond298) V5 load(1, XDATA, add(CFA_XSP16, literal(-9)))
          CFI (cfiCond298) V6 load(1, XDATA, add(CFA_XSP16, literal(-8)))
          CFI (cfiCond298) V7 load(1, XDATA, add(CFA_XSP16, literal(-7)))
          CFI (cfiCond298) R7 load(1, XDATA, add(CFA_XSP16, literal(-6)))
          CFI (cfiCond298) ?RET_LOW load(1, XDATA, add(CFA_XSP16, literal(-5)))
          CFI (cfiCond298) ?RET_HIGH load(1, XDATA, add(CFA_XSP16, literal(-4)))
          CFI (cfiCond298) ?BRET_EXT load(1, XDATA, add(CFA_XSP16, literal(-3)))
          CFI (cfiCond298) DPL0 load(1, XDATA, add(CFA_XSP16, literal(-2)))
          CFI (cfiCond298) DPH0 load(1, XDATA, add(CFA_XSP16, literal(-1)))
          CFI (cfiCond298) CFA_SP SP+-4
          CFI (cfiCond298) CFA_XSP16 add(XSP16, 25)
          CFI Block cfiCond299 Using cfiCommon0
          CFI (cfiCond299) Function afIncomingData
          CFI (cfiCond299) Conditional ??CrossCallReturnLabel_138, ??CrossCallReturnLabel_124
          CFI (cfiCond299) R6 load(1, XDATA, add(CFA_XSP16, literal(-16)))
          CFI (cfiCond299) VB load(1, XDATA, add(CFA_XSP16, literal(-15)))
          CFI (cfiCond299) V0 load(1, XDATA, add(CFA_XSP16, literal(-14)))
          CFI (cfiCond299) V1 load(1, XDATA, add(CFA_XSP16, literal(-13)))
          CFI (cfiCond299) V2 load(1, XDATA, add(CFA_XSP16, literal(-12)))
          CFI (cfiCond299) V3 load(1, XDATA, add(CFA_XSP16, literal(-11)))
          CFI (cfiCond299) V4 load(1, XDATA, add(CFA_XSP16, literal(-10)))
          CFI (cfiCond299) V5 load(1, XDATA, add(CFA_XSP16, literal(-9)))
          CFI (cfiCond299) V6 load(1, XDATA, add(CFA_XSP16, literal(-8)))
          CFI (cfiCond299) V7 load(1, XDATA, add(CFA_XSP16, literal(-7)))
          CFI (cfiCond299) R7 load(1, XDATA, add(CFA_XSP16, literal(-6)))
          CFI (cfiCond299) ?RET_LOW load(1, XDATA, add(CFA_XSP16, literal(-5)))
          CFI (cfiCond299) ?RET_HIGH load(1, XDATA, add(CFA_XSP16, literal(-4)))
          CFI (cfiCond299) ?BRET_EXT load(1, XDATA, add(CFA_XSP16, literal(-3)))
          CFI (cfiCond299) DPL0 load(1, XDATA, add(CFA_XSP16, literal(-2)))
          CFI (cfiCond299) DPH0 load(1, XDATA, add(CFA_XSP16, literal(-1)))
          CFI (cfiCond299) CFA_SP SP+-4
          CFI (cfiCond299) CFA_XSP16 add(XSP16, 25)
          CFI Block cfiCond300 Using cfiCommon0
          CFI (cfiCond300) Function AF_DataRequest
          CFI (cfiCond300) Conditional ??CrossCallReturnLabel_138, ??CrossCallReturnLabel_125
          CFI (cfiCond300) R6 load(1, XDATA, add(CFA_XSP16, literal(-16)))
          CFI (cfiCond300) VB load(1, XDATA, add(CFA_XSP16, literal(-15)))
          CFI (cfiCond300) V0 load(1, XDATA, add(CFA_XSP16, literal(-14)))
          CFI (cfiCond300) V1 load(1, XDATA, add(CFA_XSP16, literal(-13)))
          CFI (cfiCond300) V2 load(1, XDATA, add(CFA_XSP16, literal(-12)))
          CFI (cfiCond300) V3 load(1, XDATA, add(CFA_XSP16, literal(-11)))
          CFI (cfiCond300) V4 load(1, XDATA, add(CFA_XSP16, literal(-10)))
          CFI (cfiCond300) V5 load(1, XDATA, add(CFA_XSP16, literal(-9)))
          CFI (cfiCond300) V6 load(1, XDATA, add(CFA_XSP16, literal(-8)))
          CFI (cfiCond300) V7 load(1, XDATA, add(CFA_XSP16, literal(-7)))
          CFI (cfiCond300) R7 load(1, XDATA, add(CFA_XSP16, literal(-6)))
          CFI (cfiCond300) ?RET_LOW load(1, XDATA, add(CFA_XSP16, literal(-5)))
          CFI (cfiCond300) ?RET_HIGH load(1, XDATA, add(CFA_XSP16, literal(-4)))
          CFI (cfiCond300) ?BRET_EXT load(1, XDATA, add(CFA_XSP16, literal(-3)))
          CFI (cfiCond300) DPL0 load(1, XDATA, add(CFA_XSP16, literal(-2)))
          CFI (cfiCond300) DPH0 load(1, XDATA, add(CFA_XSP16, literal(-1)))
          CFI (cfiCond300) CFA_SP SP+-4
          CFI (cfiCond300) CFA_XSP16 add(XSP16, 46)
          CFI Block cfiCond301 Using cfiCommon0
          CFI (cfiCond301) Function AF_DataRequest
          CFI (cfiCond301) Conditional ??CrossCallReturnLabel_138, ??CrossCallReturnLabel_126
          CFI (cfiCond301) R6 load(1, XDATA, add(CFA_XSP16, literal(-16)))
          CFI (cfiCond301) VB load(1, XDATA, add(CFA_XSP16, literal(-15)))
          CFI (cfiCond301) V0 load(1, XDATA, add(CFA_XSP16, literal(-14)))
          CFI (cfiCond301) V1 load(1, XDATA, add(CFA_XSP16, literal(-13)))
          CFI (cfiCond301) V2 load(1, XDATA, add(CFA_XSP16, literal(-12)))
          CFI (cfiCond301) V3 load(1, XDATA, add(CFA_XSP16, literal(-11)))
          CFI (cfiCond301) V4 load(1, XDATA, add(CFA_XSP16, literal(-10)))
          CFI (cfiCond301) V5 load(1, XDATA, add(CFA_XSP16, literal(-9)))
          CFI (cfiCond301) V6 load(1, XDATA, add(CFA_XSP16, literal(-8)))
          CFI (cfiCond301) V7 load(1, XDATA, add(CFA_XSP16, literal(-7)))
          CFI (cfiCond301) R7 load(1, XDATA, add(CFA_XSP16, literal(-6)))
          CFI (cfiCond301) ?RET_LOW load(1, XDATA, add(CFA_XSP16, literal(-5)))
          CFI (cfiCond301) ?RET_HIGH load(1, XDATA, add(CFA_XSP16, literal(-4)))
          CFI (cfiCond301) ?BRET_EXT load(1, XDATA, add(CFA_XSP16, literal(-3)))
          CFI (cfiCond301) DPL0 load(1, XDATA, add(CFA_XSP16, literal(-2)))
          CFI (cfiCond301) DPH0 load(1, XDATA, add(CFA_XSP16, literal(-1)))
          CFI (cfiCond301) CFA_SP SP+-4
          CFI (cfiCond301) CFA_XSP16 add(XSP16, 46)
          CFI Block cfiCond302 Using cfiCommon0
          CFI (cfiCond302) Function AF_DataRequest
          CFI (cfiCond302) Conditional ??CrossCallReturnLabel_138, ??CrossCallReturnLabel_127
          CFI (cfiCond302) R6 load(1, XDATA, add(CFA_XSP16, literal(-16)))
          CFI (cfiCond302) VB load(1, XDATA, add(CFA_XSP16, literal(-15)))
          CFI (cfiCond302) V0 load(1, XDATA, add(CFA_XSP16, literal(-14)))
          CFI (cfiCond302) V1 load(1, XDATA, add(CFA_XSP16, literal(-13)))
          CFI (cfiCond302) V2 load(1, XDATA, add(CFA_XSP16, literal(-12)))
          CFI (cfiCond302) V3 load(1, XDATA, add(CFA_XSP16, literal(-11)))
          CFI (cfiCond302) V4 load(1, XDATA, add(CFA_XSP16, literal(-10)))
          CFI (cfiCond302) V5 load(1, XDATA, add(CFA_XSP16, literal(-9)))
          CFI (cfiCond302) V6 load(1, XDATA, add(CFA_XSP16, literal(-8)))
          CFI (cfiCond302) V7 load(1, XDATA, add(CFA_XSP16, literal(-7)))
          CFI (cfiCond302) R7 load(1, XDATA, add(CFA_XSP16, literal(-6)))
          CFI (cfiCond302) ?RET_LOW load(1, XDATA, add(CFA_XSP16, literal(-5)))
          CFI (cfiCond302) ?RET_HIGH load(1, XDATA, add(CFA_XSP16, literal(-4)))
          CFI (cfiCond302) ?BRET_EXT load(1, XDATA, add(CFA_XSP16, literal(-3)))
          CFI (cfiCond302) DPL0 load(1, XDATA, add(CFA_XSP16, literal(-2)))
          CFI (cfiCond302) DPH0 load(1, XDATA, add(CFA_XSP16, literal(-1)))
          CFI (cfiCond302) CFA_SP SP+-4
          CFI (cfiCond302) CFA_XSP16 add(XSP16, 46)
          CFI Block cfiCond303 Using cfiCommon0
          CFI (cfiCond303) Function AF_DataRequest
          CFI (cfiCond303) Conditional ??CrossCallReturnLabel_138, ??CrossCallReturnLabel_128
          CFI (cfiCond303) R6 load(1, XDATA, add(CFA_XSP16, literal(-16)))
          CFI (cfiCond303) VB load(1, XDATA, add(CFA_XSP16, literal(-15)))
          CFI (cfiCond303) V0 load(1, XDATA, add(CFA_XSP16, literal(-14)))
          CFI (cfiCond303) V1 load(1, XDATA, add(CFA_XSP16, literal(-13)))
          CFI (cfiCond303) V2 load(1, XDATA, add(CFA_XSP16, literal(-12)))
          CFI (cfiCond303) V3 load(1, XDATA, add(CFA_XSP16, literal(-11)))
          CFI (cfiCond303) V4 load(1, XDATA, add(CFA_XSP16, literal(-10)))
          CFI (cfiCond303) V5 load(1, XDATA, add(CFA_XSP16, literal(-9)))
          CFI (cfiCond303) V6 load(1, XDATA, add(CFA_XSP16, literal(-8)))
          CFI (cfiCond303) V7 load(1, XDATA, add(CFA_XSP16, literal(-7)))
          CFI (cfiCond303) R7 load(1, XDATA, add(CFA_XSP16, literal(-6)))
          CFI (cfiCond303) ?RET_LOW load(1, XDATA, add(CFA_XSP16, literal(-5)))
          CFI (cfiCond303) ?RET_HIGH load(1, XDATA, add(CFA_XSP16, literal(-4)))
          CFI (cfiCond303) ?BRET_EXT load(1, XDATA, add(CFA_XSP16, literal(-3)))
          CFI (cfiCond303) DPL0 load(1, XDATA, add(CFA_XSP16, literal(-2)))
          CFI (cfiCond303) DPH0 load(1, XDATA, add(CFA_XSP16, literal(-1)))
          CFI (cfiCond303) CFA_SP SP+-4
          CFI (cfiCond303) CFA_XSP16 add(XSP16, 46)
          CFI Block cfiCond304 Using cfiCommon0
          CFI (cfiCond304) Function AF_DataRequest
          CFI (cfiCond304) Conditional ??CrossCallReturnLabel_138, ??CrossCallReturnLabel_129
          CFI (cfiCond304) R6 load(1, XDATA, add(CFA_XSP16, literal(-16)))
          CFI (cfiCond304) VB load(1, XDATA, add(CFA_XSP16, literal(-15)))
          CFI (cfiCond304) V0 load(1, XDATA, add(CFA_XSP16, literal(-14)))
          CFI (cfiCond304) V1 load(1, XDATA, add(CFA_XSP16, literal(-13)))
          CFI (cfiCond304) V2 load(1, XDATA, add(CFA_XSP16, literal(-12)))
          CFI (cfiCond304) V3 load(1, XDATA, add(CFA_XSP16, literal(-11)))
          CFI (cfiCond304) V4 load(1, XDATA, add(CFA_XSP16, literal(-10)))
          CFI (cfiCond304) V5 load(1, XDATA, add(CFA_XSP16, literal(-9)))
          CFI (cfiCond304) V6 load(1, XDATA, add(CFA_XSP16, literal(-8)))
          CFI (cfiCond304) V7 load(1, XDATA, add(CFA_XSP16, literal(-7)))
          CFI (cfiCond304) R7 load(1, XDATA, add(CFA_XSP16, literal(-6)))
          CFI (cfiCond304) ?RET_LOW load(1, XDATA, add(CFA_XSP16, literal(-5)))
          CFI (cfiCond304) ?RET_HIGH load(1, XDATA, add(CFA_XSP16, literal(-4)))
          CFI (cfiCond304) ?BRET_EXT load(1, XDATA, add(CFA_XSP16, literal(-3)))
          CFI (cfiCond304) DPL0 load(1, XDATA, add(CFA_XSP16, literal(-2)))
          CFI (cfiCond304) DPH0 load(1, XDATA, add(CFA_XSP16, literal(-1)))
          CFI (cfiCond304) CFA_SP SP+-4
          CFI (cfiCond304) CFA_XSP16 add(XSP16, 46)
          CFI Block cfiCond305 Using cfiCommon0
          CFI (cfiCond305) Function afCopyAddress
          CFI (cfiCond305) Conditional ??CrossCallReturnLabel_138, ??CrossCallReturnLabel_130
          CFI (cfiCond305) R6 load(1, XDATA, add(CFA_XSP16, literal(-9)))
          CFI (cfiCond305) VB load(1, XDATA, add(CFA_XSP16, literal(-8)))
          CFI (cfiCond305) V0 load(1, XDATA, add(CFA_XSP16, literal(-7)))
          CFI (cfiCond305) R7 load(1, XDATA, add(CFA_XSP16, literal(-6)))
          CFI (cfiCond305) ?RET_LOW load(1, XDATA, add(CFA_XSP16, literal(-5)))
          CFI (cfiCond305) ?RET_HIGH load(1, XDATA, add(CFA_XSP16, literal(-4)))
          CFI (cfiCond305) ?BRET_EXT load(1, XDATA, add(CFA_XSP16, literal(-3)))
          CFI (cfiCond305) DPL0 load(1, XDATA, add(CFA_XSP16, literal(-2)))
          CFI (cfiCond305) DPH0 load(1, XDATA, add(CFA_XSP16, literal(-1)))
          CFI (cfiCond305) CFA_SP SP+-4
          CFI (cfiCond305) CFA_XSP16 add(XSP16, 9)
          CFI Block cfiPicker306 Using cfiCommon1
          CFI (cfiPicker306) NoFunction
          CFI (cfiPicker306) Picker
        MOVX    A,@DPTR
        MOV     R0,A
        INC     DPTR
        MOVX    A,@DPTR
        MOV     R1,A
        RET
          CFI EndBlock cfiCond277
          CFI EndBlock cfiCond278
          CFI EndBlock cfiCond279
          CFI EndBlock cfiCond280
          CFI EndBlock cfiCond281
          CFI EndBlock cfiCond282
          CFI EndBlock cfiCond283
          CFI EndBlock cfiCond284
          CFI EndBlock cfiCond285
          CFI EndBlock cfiCond286
          CFI EndBlock cfiCond287
          CFI EndBlock cfiCond288
          CFI EndBlock cfiCond289
          CFI EndBlock cfiCond290
          CFI EndBlock cfiCond291
          CFI EndBlock cfiCond292
          CFI EndBlock cfiCond293
          CFI EndBlock cfiCond294
          CFI EndBlock cfiCond295
          CFI EndBlock cfiCond296
          CFI EndBlock cfiCond297
          CFI EndBlock cfiCond298
          CFI EndBlock cfiCond299
          CFI EndBlock cfiCond300
          CFI EndBlock cfiCond301
          CFI EndBlock cfiCond302
          CFI EndBlock cfiCond303
          CFI EndBlock cfiCond304
          CFI EndBlock cfiCond305
          CFI EndBlock cfiPicker306
// 1120 
// 1121 /**************************************************************************************************
// 1122  * @fn          afAPSF_ConfigGet
// 1123  *
// 1124  * @brief       This function ascertains the fragmentation configuration that corresponds to
// 1125  *              the specified EndPoint.
// 1126  *
// 1127  * input parameters
// 1128  *
// 1129  * @param       endPoint - The source EP of a Tx or destination EP of a Rx fragmented message.
// 1130  *
// 1131  * output parameters
// 1132  *
// 1133  * @param       pCfg - A pointer to an APSF configuration structure to fill with values.
// 1134  *
// 1135  * @return      None.
// 1136  */

        RSEG BANKED_CODE:CODE:NOROOT(0)
// 1137 void afAPSF_ConfigGet(uint8 endPoint, afAPSF_Config_t *pCfg)
afAPSF_ConfigGet:
          CFI Block cfiBlock307 Using cfiCommon0
          CFI Function afAPSF_ConfigGet
        CODE
// 1138 {
        FUNCALL afAPSF_ConfigGet, afFindEndPointDescList
        LOCFRAME ISTACK, 0, STACK
        LOCFRAME PSTACK, 0, STACK
        LOCFRAME XSTACK, 12, STACK
        LOCFRAME IOVERLAY, 0, STATIC
        LOCFRAME DOVERLAY, 0, STATIC
        ARGFRAME ISTACK, 0, STACK
        ARGFRAME PSTACK, 0, STACK
        ARGFRAME XSTACK, 12, STACK
        ARGFRAME IOVERLAY, 0, STATIC
        ARGFRAME DOVERLAY, 0, STATIC
        FUNCALL afAPSF_ConfigGet, osal_memcpy
        LOCFRAME ISTACK, 0, STACK
        LOCFRAME PSTACK, 0, STACK
        LOCFRAME XSTACK, 15, STACK
        LOCFRAME IOVERLAY, 0, STATIC
        LOCFRAME DOVERLAY, 0, STATIC
        ARGFRAME ISTACK, 0, STACK
        ARGFRAME PSTACK, 0, STACK
        ARGFRAME XSTACK, 15, STACK
        ARGFRAME IOVERLAY, 0, STATIC
        ARGFRAME DOVERLAY, 0, STATIC
        REQUIRE ?V0
        REQUIRE ?V1
        REQUIRE ?V2
        REQUIRE ?V3
        MOV     A,#-0xc
        LCALL   ?BANKED_ENTER_XDATA
          CFI DPH0 load(1, XDATA, add(CFA_XSP16, literal(-1)))
          CFI DPL0 load(1, XDATA, add(CFA_XSP16, literal(-2)))
          CFI ?BRET_EXT load(1, XDATA, add(CFA_XSP16, literal(-3)))
          CFI ?RET_HIGH load(1, XDATA, add(CFA_XSP16, literal(-4)))
          CFI ?RET_LOW load(1, XDATA, add(CFA_XSP16, literal(-5)))
          CFI R7 load(1, XDATA, add(CFA_XSP16, literal(-6)))
          CFI V3 load(1, XDATA, add(CFA_XSP16, literal(-7)))
          CFI V2 load(1, XDATA, add(CFA_XSP16, literal(-8)))
          CFI V1 load(1, XDATA, add(CFA_XSP16, literal(-9)))
          CFI V0 load(1, XDATA, add(CFA_XSP16, literal(-10)))
          CFI VB load(1, XDATA, add(CFA_XSP16, literal(-11)))
          CFI R6 load(1, XDATA, add(CFA_XSP16, literal(-12)))
          CFI CFA_SP SP+0
          CFI CFA_XSP16 add(XSP16, 12)
        ; Saved register size: 12
        ; Auto size: 0
        MOV     A,R2
        MOV     R6,A
        MOV     A,R3
        MOV     R7,A
// 1139   epList_t *pList = afFindEndPointDescList(endPoint);
        ; Setup parameters for call to function afFindEndPointDescList
        LCALL   `??afFindEndPointDescList::?relay`; Banked call to: afFindEndPointDescList
        MOV     ?V0,R2
        MOV     ?V1,R3
        MOV     R0,?V0
        MOV     R1,?V1
// 1140 
// 1141   if (pList == NULL)
        MOV     A,R0
        ORL     A,R1
        JNZ     ??afAPSF_ConfigGet_0
// 1142   {
// 1143     pCfg->frameDelay = APSF_DEFAULT_INTERFRAME_DELAY;
        MOV     DPL,R6
        MOV     DPH,R7
        MOV     A,#0x32
        MOVX    @DPTR,A
// 1144     pCfg->windowSize = APSF_DEFAULT_WINDOW_SIZE;
        INC     DPTR
        MOV     A,#0x1
        MOVX    @DPTR,A
        SJMP    ??afAPSF_ConfigGet_1
// 1145   }
// 1146   else
// 1147   {
// 1148     (void)osal_memcpy(pCfg, &pList->apsfCfg, sizeof(afAPSF_Config_t));
??afAPSF_ConfigGet_0:
        ; Setup parameters for call to function osal_memcpy
        MOV     A,R0
        ADD     A,#0x6
        MOV     ?V0,A
        CLR     A
        ADDC    A,R1
        MOV     ?V1,A
        MOV     ?V2,#0x0
        MOV     R0,#?V0
        LCALL   ?PUSH_XSTACK_I_THREE
          CFI CFA_XSP16 add(XSP16, 15)
        MOV     R4,#0x2
        MOV     R5,#0x0
        MOV     A,R6
        MOV     R2,A
        MOV     A,R7
        MOV     R3,A
        LCALL   `??osal_memcpy::?relay`; Banked call to: osal_memcpy
        MOV     A,#0x3
        LCALL   ?DEALLOC_XSTACK8
          CFI CFA_XSP16 add(XSP16, 12)
// 1149   }
// 1150 }
??afAPSF_ConfigGet_1:
        LJMP    ?Subroutine0 & 0xFFFF
          CFI EndBlock cfiBlock307
// 1151 
// 1152 /**************************************************************************************************
// 1153  * @fn          afAPSF_ConfigSet
// 1154  *
// 1155  * @brief       This function attempts to set the fragmentation configuration that corresponds to
// 1156  *              the specified EndPoint.
// 1157  *
// 1158  * input parameters
// 1159  *
// 1160  * @param       endPoint - The specific EndPoint for which to set the fragmentation configuration.
// 1161  * @param       pCfg - A pointer to an APSF configuration structure to fill with values.
// 1162  *
// 1163  * output parameters
// 1164  *
// 1165  * None.
// 1166  *
// 1167  * @return      afStatus_SUCCESS for success.
// 1168  *              afStatus_INVALID_PARAMETER if the specified EndPoint is not registered.
// 1169  */

        RSEG BANKED_CODE:CODE:NOROOT(0)
// 1170 afStatus_t afAPSF_ConfigSet(uint8 endPoint, afAPSF_Config_t *pCfg)
afAPSF_ConfigSet:
          CFI Block cfiBlock308 Using cfiCommon0
          CFI Function afAPSF_ConfigSet
        CODE
// 1171 {
        FUNCALL afAPSF_ConfigSet, afFindEndPointDescList
        LOCFRAME ISTACK, 0, STACK
        LOCFRAME PSTACK, 0, STACK
        LOCFRAME XSTACK, 15, STACK
        LOCFRAME IOVERLAY, 0, STATIC
        LOCFRAME DOVERLAY, 0, STATIC
        ARGFRAME ISTACK, 0, STACK
        ARGFRAME PSTACK, 0, STACK
        ARGFRAME XSTACK, 15, STACK
        ARGFRAME IOVERLAY, 0, STATIC
        ARGFRAME DOVERLAY, 0, STATIC
        FUNCALL afAPSF_ConfigSet, osal_memcpy
        LOCFRAME ISTACK, 0, STACK
        LOCFRAME PSTACK, 0, STACK
        LOCFRAME XSTACK, 18, STACK
        LOCFRAME IOVERLAY, 0, STATIC
        LOCFRAME DOVERLAY, 0, STATIC
        ARGFRAME ISTACK, 0, STACK
        ARGFRAME PSTACK, 0, STACK
        ARGFRAME XSTACK, 18, STACK
        ARGFRAME IOVERLAY, 0, STATIC
        ARGFRAME DOVERLAY, 0, STATIC
        REQUIRE ?V0
        REQUIRE ?V2
        REQUIRE ?V3
        REQUIRE ?V4
        REQUIRE ?V5
        REQUIRE ?V6
        MOV     A,#-0xf
        LCALL   ?BANKED_ENTER_XDATA
          CFI DPH0 load(1, XDATA, add(CFA_XSP16, literal(-1)))
          CFI DPL0 load(1, XDATA, add(CFA_XSP16, literal(-2)))
          CFI ?BRET_EXT load(1, XDATA, add(CFA_XSP16, literal(-3)))
          CFI ?RET_HIGH load(1, XDATA, add(CFA_XSP16, literal(-4)))
          CFI ?RET_LOW load(1, XDATA, add(CFA_XSP16, literal(-5)))
          CFI R7 load(1, XDATA, add(CFA_XSP16, literal(-6)))
          CFI V6 load(1, XDATA, add(CFA_XSP16, literal(-7)))
          CFI V5 load(1, XDATA, add(CFA_XSP16, literal(-8)))
          CFI V4 load(1, XDATA, add(CFA_XSP16, literal(-9)))
          CFI V3 load(1, XDATA, add(CFA_XSP16, literal(-10)))
          CFI V2 load(1, XDATA, add(CFA_XSP16, literal(-11)))
          CFI V1 load(1, XDATA, add(CFA_XSP16, literal(-12)))
          CFI V0 load(1, XDATA, add(CFA_XSP16, literal(-13)))
          CFI VB load(1, XDATA, add(CFA_XSP16, literal(-14)))
          CFI R6 load(1, XDATA, add(CFA_XSP16, literal(-15)))
          CFI CFA_SP SP+0
          CFI CFA_XSP16 add(XSP16, 15)
        ; Saved register size: 15
        ; Auto size: 0
        MOV     A,R2
        MOV     R6,A
        MOV     A,R3
        MOV     R7,A
// 1172   epList_t *pList = afFindEndPointDescList(endPoint);
        ; Setup parameters for call to function afFindEndPointDescList
        LCALL   `??afFindEndPointDescList::?relay`; Banked call to: afFindEndPointDescList
// 1173 
// 1174   if (pList == NULL)
        MOV     A,R2
        ORL     A,R3
        JNZ     ??afAPSF_ConfigSet_0
// 1175   {
// 1176     return afStatus_INVALID_PARAMETER;
        MOV     R1,#0x2
        SJMP    ??afAPSF_ConfigSet_1
// 1177   }
// 1178 
// 1179   (void)osal_memcpy(&pList->apsfCfg, pCfg, sizeof(afAPSF_Config_t));
??afAPSF_ConfigSet_0:
        ; Setup parameters for call to function osal_memcpy
        MOV     ?V4,R6
        MOV     ?V5,R7
        MOV     ?V6,#0x0
        MOV     R0,#?V4
        LCALL   ?PUSH_XSTACK_I_THREE
          CFI CFA_XSP16 add(XSP16, 18)
        MOV     R4,#0x2
        MOV     R5,#0x0
        MOV     A,R2
        ADD     A,#0x6
        MOV     R2,A
        JNC     ??afAPSF_ConfigSet_2
        INC     R3
??afAPSF_ConfigSet_2:
        LCALL   `??osal_memcpy::?relay`; Banked call to: osal_memcpy
        MOV     A,#0x3
        LCALL   ?DEALLOC_XSTACK8
          CFI CFA_XSP16 add(XSP16, 15)
// 1180   return afStatus_SUCCESS;
        MOV     R1,#0x0
??afAPSF_ConfigSet_1:
        MOV     R7,#0x7
        LJMP    ?BANKED_LEAVE_XDATA
// 1181 }
          CFI EndBlock cfiBlock308
// 1182 
// 1183 /**************************************************************************************************
// 1184  * @fn          afSetApplCB
// 1185  *
// 1186  * @brief       Sets the pointer to the Application Callback function for a
// 1187  *              specific EndPoint.
// 1188  *
// 1189  * input parameters
// 1190  *
// 1191  * @param       endPoint - The specific EndPoint for which to set Application Callback.
// 1192  * @param       pApplFn - A pointer to the Application Callback function.
// 1193  *
// 1194  * output parameters
// 1195  *
// 1196  * None.
// 1197  *
// 1198  * @return      TRUE if success, FALSE if endpoint not found
// 1199  */

        RSEG BANKED_CODE:CODE:NOROOT(0)
// 1200 uint8 afSetApplCB( uint8 endPoint, pApplCB pApplFn )
afSetApplCB:
          CFI Block cfiBlock309 Using cfiCommon0
          CFI Function afSetApplCB
        CODE
// 1201 {
        FUNCALL afSetApplCB, afFindEndPointDescList
        LOCFRAME ISTACK, 0, STACK
        LOCFRAME PSTACK, 0, STACK
        LOCFRAME XSTACK, 12, STACK
        LOCFRAME IOVERLAY, 0, STATIC
        LOCFRAME DOVERLAY, 0, STATIC
        ARGFRAME ISTACK, 0, STACK
        ARGFRAME PSTACK, 0, STACK
        ARGFRAME XSTACK, 12, STACK
        ARGFRAME IOVERLAY, 0, STATIC
        ARGFRAME DOVERLAY, 0, STATIC
        REQUIRE ?V0
        REQUIRE ?V2
        REQUIRE ?V3
        MOV     A,#-0xc
        LCALL   ?BANKED_ENTER_XDATA
          CFI DPH0 load(1, XDATA, add(CFA_XSP16, literal(-1)))
          CFI DPL0 load(1, XDATA, add(CFA_XSP16, literal(-2)))
          CFI ?BRET_EXT load(1, XDATA, add(CFA_XSP16, literal(-3)))
          CFI ?RET_HIGH load(1, XDATA, add(CFA_XSP16, literal(-4)))
          CFI ?RET_LOW load(1, XDATA, add(CFA_XSP16, literal(-5)))
          CFI R7 load(1, XDATA, add(CFA_XSP16, literal(-6)))
          CFI V3 load(1, XDATA, add(CFA_XSP16, literal(-7)))
          CFI V2 load(1, XDATA, add(CFA_XSP16, literal(-8)))
          CFI V1 load(1, XDATA, add(CFA_XSP16, literal(-9)))
          CFI V0 load(1, XDATA, add(CFA_XSP16, literal(-10)))
          CFI VB load(1, XDATA, add(CFA_XSP16, literal(-11)))
          CFI R6 load(1, XDATA, add(CFA_XSP16, literal(-12)))
          CFI CFA_SP SP+0
          CFI CFA_XSP16 add(XSP16, 12)
        ; Saved register size: 12
        ; Auto size: 0
        MOV     A,R2
        MOV     R6,A
        MOV     A,R3
        MOV     R7,A
// 1202   if ( pApplFn != NULL )
        MOV     A,R6
        ORL     A,R7
        JZ      ??afSetApplCB_0
// 1203   {
// 1204     epList_t *epSearch;
// 1205 
// 1206     // Look for the endpoint
// 1207     epSearch = afFindEndPointDescList( endPoint );
        ; Setup parameters for call to function afFindEndPointDescList
        LCALL   `??afFindEndPointDescList::?relay`; Banked call to: afFindEndPointDescList
        MOV     DPL,R2
        MOV     DPH,R3
// 1208 
// 1209     if ( epSearch )
        MOV     A,DPL
        ORL     A,DPH
        JZ      ??afSetApplCB_0
// 1210     {
// 1211       epSearch->pfnApplCB = pApplFn;
        INC     DPTR
        INC     DPTR
        INC     DPTR
        INC     DPTR
        INC     DPTR
        INC     DPTR
        INC     DPTR
        INC     DPTR
        INC     DPTR
        MOV     A,R6
        MOVX    @DPTR,A
        INC     DPTR
        MOV     A,R7
        MOVX    @DPTR,A
// 1212 
// 1213       return ( TRUE );
        MOV     R1,#0x1
        SJMP    ??afSetApplCB_1
// 1214     }
// 1215   }
// 1216 
// 1217   return ( FALSE );
??afSetApplCB_0:
        MOV     R1,#0x0
??afSetApplCB_1:
        LJMP    ?Subroutine0 & 0xFFFF
// 1218 }
          CFI EndBlock cfiBlock309

        RSEG XDATA_ID:CODE:NOROOT(0)
`?<Initializer for AF_DataRequestDiscoverRoute>`:
        DATA8
        DB 1

        RSEG BANK_RELAYS:CODE:REORDER:NOROOT(0)
`??afRegisterExtended::?relay`:
        CODE
        LCALL   ?BDISPATCH
        DATA24
        DC24    afRegisterExtended

        RSEG BANK_RELAYS:CODE:REORDER:NOROOT(0)
`??afRegister::?relay`:
        CODE
        LCALL   ?BDISPATCH
        DATA24
        DC24    afRegister

        RSEG BANK_RELAYS:CODE:REORDER:NOROOT(0)
`??afDelete::?relay`:
        CODE
        LCALL   ?BDISPATCH
        DATA24
        DC24    afDelete

        RSEG BANK_RELAYS:CODE:REORDER:NOROOT(0)
`??afDataConfirm::?relay`:
        CODE
        LCALL   ?BDISPATCH
        DATA24
        DC24    afDataConfirm

        RSEG BANK_RELAYS:CODE:REORDER:NOROOT(0)
`??afReflectError::?relay`:
        CODE
        LCALL   ?BDISPATCH
        DATA24
        DC24    afReflectError

        RSEG BANK_RELAYS:CODE:REORDER:NOROOT(0)
`??afIncomingData::?relay`:
        CODE
        LCALL   ?BDISPATCH
        DATA24
        DC24    afIncomingData

        RSEG BANK_RELAYS:CODE:REORDER:NOROOT(0)
`??afBuildMSGIncoming::?relay`:
        CODE
        LCALL   ?BDISPATCH
        DATA24
        DC24    afBuildMSGIncoming

        RSEG BANK_RELAYS:CODE:REORDER:NOROOT(0)
`??AF_DataRequest::?relay`:
        CODE
        LCALL   ?BDISPATCH
        DATA24
        DC24    AF_DataRequest

        RSEG BANK_RELAYS:CODE:REORDER:NOROOT(0)
`??AF_DataRequestSrcRtg::?relay`:
        CODE
        LCALL   ?BDISPATCH
        DATA24
        DC24    AF_DataRequestSrcRtg

        RSEG BANK_RELAYS:CODE:REORDER:NOROOT(0)
`??afFindEndPointDescList::?relay`:
        CODE
        LCALL   ?BDISPATCH
        DATA24
        DC24    afFindEndPointDescList

        RSEG BANK_RELAYS:CODE:REORDER:NOROOT(0)
`??afFindEndPointDesc::?relay`:
        CODE
        LCALL   ?BDISPATCH
        DATA24
        DC24    afFindEndPointDesc

        RSEG BANK_RELAYS:CODE:REORDER:NOROOT(0)
`??afFindSimpleDesc::?relay`:
        CODE
        LCALL   ?BDISPATCH
        DATA24
        DC24    afFindSimpleDesc

        RSEG BANK_RELAYS:CODE:REORDER:NOROOT(0)
`??afDataReqMTU::?relay`:
        CODE
        LCALL   ?BDISPATCH
        DATA24
        DC24    afDataReqMTU

        RSEG BANK_RELAYS:CODE:REORDER:NOROOT(0)
`??afGetMatch::?relay`:
        CODE
        LCALL   ?BDISPATCH
        DATA24
        DC24    afGetMatch

        RSEG BANK_RELAYS:CODE:REORDER:NOROOT(0)
`??afSetMatch::?relay`:
        CODE
        LCALL   ?BDISPATCH
        DATA24
        DC24    afSetMatch

        RSEG BANK_RELAYS:CODE:REORDER:NOROOT(0)
`??afNumEndPoints::?relay`:
        CODE
        LCALL   ?BDISPATCH
        DATA24
        DC24    afNumEndPoints

        RSEG BANK_RELAYS:CODE:REORDER:NOROOT(0)
`??afEndPoints::?relay`:
        CODE
        LCALL   ?BDISPATCH
        DATA24
        DC24    afEndPoints

        RSEG BANK_RELAYS:CODE:REORDER:NOROOT(0)
`??afCopyAddress::?relay`:
        CODE
        LCALL   ?BDISPATCH
        DATA24
        DC24    afCopyAddress

        RSEG BANK_RELAYS:CODE:REORDER:NOROOT(0)
`??afAPSF_ConfigGet::?relay`:
        CODE
        LCALL   ?BDISPATCH
        DATA24
        DC24    afAPSF_ConfigGet

        RSEG BANK_RELAYS:CODE:REORDER:NOROOT(0)
`??afAPSF_ConfigSet::?relay`:
        CODE
        LCALL   ?BDISPATCH
        DATA24
        DC24    afAPSF_ConfigSet

        RSEG BANK_RELAYS:CODE:REORDER:NOROOT(0)
`??afSetApplCB::?relay`:
        CODE
        LCALL   ?BDISPATCH
        DATA24
        DC24    afSetApplCB

        END
// 1219 
// 1220 /**************************************************************************************************
// 1221 */
// 
// 3 469 bytes in segment BANKED_CODE
//   126 bytes in segment BANK_RELAYS
//     1 byte  in segment XDATA_I
//     1 byte  in segment XDATA_ID
//     2 bytes in segment XDATA_Z
// 
// 3 596 bytes of CODE  memory
//     3 bytes of XDATA memory
//
//Errors: none
//Warnings: none
