///////////////////////////////////////////////////////////////////////////////
//
// IAR C/C++ Compiler V9.30.1.3056 for 8051               20/Oct/2016  09:33:50
// Copyright 2004-2015 IAR Systems AB.
// Standalone license - IAR Embedded Workbench for 8051
//
//    Core               =  plain
//    Code model         =  banked
//    Data model         =  large
//    Calling convention =  xdata reentrant
//    Constant location  =  data_rom
//    Dptr setup         =  1,16
//                          
//    Source file        =  
//        E:\×ÊÔ´(G£º)\#¸öÈËÏîÄ¿\ZigbeeProject\Z-Stack Mesh
//        1.0.0\Components\mt\MT.c
//    Command line       =  
//        -f "E:\×ÊÔ´(G£º)\#¸öÈËÏîÄ¿\ZigbeeProject\Z-Stack Mesh
//        1.0.0\Projects\zstack\Samples\Demo_App_V1.4ÒûË®»ú¿ØÖÆ -
//        ¸±±¾\CC2530DB\..\..\..\Tools\CC2530DB\f8wEndev.cfg" (-DCPU32MHZ
//        -DROOT=__near_func -DMAC_CFG_TX_DATA_MAX=3 -DMAC_CFG_TX_MAX=6
//        -DMAC_CFG_RX_MAX=3) -f "E:\×ÊÔ´(G£º)\#¸öÈËÏîÄ¿\ZigbeeProject\Z-Stack
//        Mesh 1.0.0\Projects\zstack\Samples\Demo_App_V1.4ÒûË®»ú¿ØÖÆ -
//        ¸±±¾\CC2530DB\..\..\..\Tools\CC2530DB\f8wConfig.cfg" (-DZIGBEEPRO
//        -DSECURE=1 -DZG_SECURE_DYNAMIC=0 -DREFLECTOR
//        -DDEFAULT_CHANLIST=0x00000800 -DZDAPP_CONFIG_PAN_ID=0xFFFF
//        -DNWK_START_DELAY=100 -DEXTENDED_JOINING_RANDOM_MASK=0x007F
//        -DBEACON_REQUEST_DELAY=100 -DBEACON_REQ_DELAY_MASK=0x00FF
//        -DLINK_STATUS_JITTER_MASK=0x007F -DROUTE_EXPIRY_TIME=30
//        -DAPSC_ACK_WAIT_DURATION_POLLED=3000 -DNWK_INDIRECT_MSG_TIMEOUT=7
//        -DMAX_RREQ_ENTRIES=8 -DAPSC_MAX_FRAME_RETRIES=3
//        -DNWK_MAX_DATA_RETRIES=2 -DMAX_POLL_FAILURE_RETRIES=2 -DMAX_BCAST=9
//        -DAPS_MAX_GROUPS=16 -DMAX_RTG_ENTRIES=40 -DNWK_MAX_BINDING_ENTRIES=4
//        -DMAX_BINDING_CLUSTER_IDS=4 "-DDEFAULT_KEY={0x01, 0x03, 0x05, 0x07,
//        0x09, 0x0B, 0x0D, 0x0F, 0x00, 0x02, 0x04, 0x06, 0x08, 0x0A, 0x0C,
//        0x0D}" -DMAC_MAX_FRAME_SIZE=116 -DZDNWKMGR_MIN_TRANSMISSIONS=20
//        "-DCONST=const __code" -DGENERIC=__generic -DRFD_RCVC_ALWAYS_ON=FALSE
//        -DPOLL_RATE=100 -DQUEUED_POLL_RATE=100 -DRESPONSE_POLL_RATE=100)
//        -DREJOIN_POLL_RATE=440 "E:\×ÊÔ´(G£º)\#¸öÈËÏîÄ¿\ZigbeeProject\Z-Stack
//        Mesh 1.0.0\Components\mt\MT.c" -D LOG_OUT -D
//        UART1_PROTOCOL_RESOLVER=1 -D xISQC -D NWK_AUTO_POLL -D ZTOOL_P1 -D
//        ISR_KEYINTERRUPT -D xMT_TASK -D xMT_SYS_FUNC -D xMT_ZDO_FUNC -D
//        xLCD_SUPPORTED=DEBUG -D xPOWER_SAVING -lC
//        "E:\×ÊÔ´(G£º)\#¸öÈËÏîÄ¿\ZigbeeProject\Z-Stack Mesh
//        1.0.0\Projects\zstack\Samples\Demo_App_V1.4ÒûË®»ú¿ØÖÆ -
//        ¸±±¾\CC2530DB\WaterMachine\List" -lA
//        "E:\×ÊÔ´(G£º)\#¸öÈËÏîÄ¿\ZigbeeProject\Z-Stack Mesh
//        1.0.0\Projects\zstack\Samples\Demo_App_V1.4ÒûË®»ú¿ØÖÆ -
//        ¸±±¾\CC2530DB\WaterMachine\List" --diag_suppress Pe001,Pa010 -o
//        "E:\×ÊÔ´(G£º)\#¸öÈËÏîÄ¿\ZigbeeProject\Z-Stack Mesh
//        1.0.0\Projects\zstack\Samples\Demo_App_V1.4ÒûË®»ú¿ØÖÆ -
//        ¸±±¾\CC2530DB\WaterMachine\Obj" -e --no_code_motion --debug
//        --core=plain --dptr=16,1 --data_model=large --code_model=banked
//        --calling_convention=xdata_reentrant --place_constants=data_rom
//        --nr_virtual_regs 8 -I "E:\×ÊÔ´(G£º)\#¸öÈËÏîÄ¿\ZigbeeProject\Z-Stack
//        Mesh 1.0.0\Projects\zstack\Samples\Demo_App_V1.4ÒûË®»ú¿ØÖÆ -
//        ¸±±¾\CC2530DB\" -I "E:\×ÊÔ´(G£º)\#¸öÈËÏîÄ¿\ZigbeeProject\Z-Stack Mesh
//        1.0.0\Projects\zstack\Samples\Demo_App_V1.4ÒûË®»ú¿ØÖÆ -
//        ¸±±¾\CC2530DB\..\Source\" -I
//        "E:\×ÊÔ´(G£º)\#¸öÈËÏîÄ¿\ZigbeeProject\Z-Stack Mesh
//        1.0.0\Projects\zstack\Samples\Demo_App_V1.4ÒûË®»ú¿ØÖÆ -
//        ¸±±¾\CC2530DB\..\Frame\" -I
//        "E:\×ÊÔ´(G£º)\#¸öÈËÏîÄ¿\ZigbeeProject\Z-Stack Mesh
//        1.0.0\Projects\zstack\Samples\Demo_App_V1.4ÒûË®»ú¿ØÖÆ -
//        ¸±±¾\CC2530DB\..\Module\WaterMachine\" -I
//        "E:\×ÊÔ´(G£º)\#¸öÈËÏîÄ¿\ZigbeeProject\Z-Stack Mesh
//        1.0.0\Projects\zstack\Samples\Demo_App_V1.4ÒûË®»ú¿ØÖÆ -
//        ¸±±¾\CC2530DB\..\..\..\ZMain\TI2530DB\" -I
//        "E:\×ÊÔ´(G£º)\#¸öÈËÏîÄ¿\ZigbeeProject\Z-Stack Mesh
//        1.0.0\Projects\zstack\Samples\Demo_App_V1.4ÒûË®»ú¿ØÖÆ -
//        ¸±±¾\CC2530DB\..\..\..\..\..\Components\hal\include\" -I
//        "E:\×ÊÔ´(G£º)\#¸öÈËÏîÄ¿\ZigbeeProject\Z-Stack Mesh
//        1.0.0\Projects\zstack\Samples\Demo_App_V1.4ÒûË®»ú¿ØÖÆ -
//        ¸±±¾\CC2530DB\..\..\..\..\..\Components\hal\target\CC2530EB\" -I
//        "E:\×ÊÔ´(G£º)\#¸öÈËÏîÄ¿\ZigbeeProject\Z-Stack Mesh
//        1.0.0\Projects\zstack\Samples\Demo_App_V1.4ÒûË®»ú¿ØÖÆ -
//        ¸±±¾\CC2530DB\..\..\..\..\..\Components\mac\include\" -I
//        "E:\×ÊÔ´(G£º)\#¸öÈËÏîÄ¿\ZigbeeProject\Z-Stack Mesh
//        1.0.0\Projects\zstack\Samples\Demo_App_V1.4ÒûË®»ú¿ØÖÆ -
//        ¸±±¾\CC2530DB\..\..\..\..\..\Components\mac\high_level\" -I
//        "E:\×ÊÔ´(G£º)\#¸öÈËÏîÄ¿\ZigbeeProject\Z-Stack Mesh
//        1.0.0\Projects\zstack\Samples\Demo_App_V1.4ÒûË®»ú¿ØÖÆ -
//        ¸±±¾\CC2530DB\..\..\..\..\..\Components\mac\low_level\srf04\" -I
//        "E:\×ÊÔ´(G£º)\#¸öÈËÏîÄ¿\ZigbeeProject\Z-Stack Mesh
//        1.0.0\Projects\zstack\Samples\Demo_App_V1.4ÒûË®»ú¿ØÖÆ -
//        ¸±±¾\CC2530DB\..\..\..\..\..\Components\mac\low_level\srf04\single_chip\"
//        -I "E:\×ÊÔ´(G£º)\#¸öÈËÏîÄ¿\ZigbeeProject\Z-Stack Mesh
//        1.0.0\Projects\zstack\Samples\Demo_App_V1.4ÒûË®»ú¿ØÖÆ -
//        ¸±±¾\CC2530DB\..\..\..\..\..\Components\mt\" -I
//        "E:\×ÊÔ´(G£º)\#¸öÈËÏîÄ¿\ZigbeeProject\Z-Stack Mesh
//        1.0.0\Projects\zstack\Samples\Demo_App_V1.4ÒûË®»ú¿ØÖÆ -
//        ¸±±¾\CC2530DB\..\..\..\..\..\Components\osal\include\" -I
//        "E:\×ÊÔ´(G£º)\#¸öÈËÏîÄ¿\ZigbeeProject\Z-Stack Mesh
//        1.0.0\Projects\zstack\Samples\Demo_App_V1.4ÒûË®»ú¿ØÖÆ -
//        ¸±±¾\CC2530DB\..\..\..\..\..\Components\services\saddr\" -I
//        "E:\×ÊÔ´(G£º)\#¸öÈËÏîÄ¿\ZigbeeProject\Z-Stack Mesh
//        1.0.0\Projects\zstack\Samples\Demo_App_V1.4ÒûË®»ú¿ØÖÆ -
//        ¸±±¾\CC2530DB\..\..\..\..\..\Components\services\sdata\" -I
//        "E:\×ÊÔ´(G£º)\#¸öÈËÏîÄ¿\ZigbeeProject\Z-Stack Mesh
//        1.0.0\Projects\zstack\Samples\Demo_App_V1.4ÒûË®»ú¿ØÖÆ -
//        ¸±±¾\CC2530DB\..\..\..\..\..\Components\stack\af\" -I
//        "E:\×ÊÔ´(G£º)\#¸öÈËÏîÄ¿\ZigbeeProject\Z-Stack Mesh
//        1.0.0\Projects\zstack\Samples\Demo_App_V1.4ÒûË®»ú¿ØÖÆ -
//        ¸±±¾\CC2530DB\..\..\..\..\..\Components\stack\nwk\" -I
//        "E:\×ÊÔ´(G£º)\#¸öÈËÏîÄ¿\ZigbeeProject\Z-Stack Mesh
//        1.0.0\Projects\zstack\Samples\Demo_App_V1.4ÒûË®»ú¿ØÖÆ -
//        ¸±±¾\CC2530DB\..\..\..\..\..\Components\stack\sapi\" -I
//        "E:\×ÊÔ´(G£º)\#¸öÈËÏîÄ¿\ZigbeeProject\Z-Stack Mesh
//        1.0.0\Projects\zstack\Samples\Demo_App_V1.4ÒûË®»ú¿ØÖÆ -
//        ¸±±¾\CC2530DB\..\..\..\..\..\Components\stack\sec\" -I
//        "E:\×ÊÔ´(G£º)\#¸öÈËÏîÄ¿\ZigbeeProject\Z-Stack Mesh
//        1.0.0\Projects\zstack\Samples\Demo_App_V1.4ÒûË®»ú¿ØÖÆ -
//        ¸±±¾\CC2530DB\..\..\..\..\..\Components\stack\sys\" -I
//        "E:\×ÊÔ´(G£º)\#¸öÈËÏîÄ¿\ZigbeeProject\Z-Stack Mesh
//        1.0.0\Projects\zstack\Samples\Demo_App_V1.4ÒûË®»ú¿ØÖÆ -
//        ¸±±¾\CC2530DB\..\..\..\..\..\Components\stack\zdo\" -I
//        "E:\×ÊÔ´(G£º)\#¸öÈËÏîÄ¿\ZigbeeProject\Z-Stack Mesh
//        1.0.0\Projects\zstack\Samples\Demo_App_V1.4ÒûË®»ú¿ØÖÆ -
//        ¸±±¾\CC2530DB\..\..\..\..\..\Components\zmac\" -I
//        "E:\×ÊÔ´(G£º)\#¸öÈËÏîÄ¿\ZigbeeProject\Z-Stack Mesh
//        1.0.0\Projects\zstack\Samples\Demo_App_V1.4ÒûË®»ú¿ØÖÆ -
//        ¸±±¾\CC2530DB\..\..\..\..\..\Components\zmac\f8w\" -Ohz
//    List file          =  
//        E:\×ÊÔ´(G£º)\#¸öÈËÏîÄ¿\ZigbeeProject\Z-Stack Mesh
//        1.0.0\Projects\zstack\Samples\Demo_App_V1.4ÒûË®»ú¿ØÖÆ -
//        ¸±±¾\CC2530DB\WaterMachine\List\MT.s51
//
///////////////////////////////////////////////////////////////////////////////

        NAME MT

        RTMODEL "__SystemLibrary", "CLib"
        RTMODEL "__calling_convention", "xdata_reentrant"
        RTMODEL "__code_model", "banked"
        RTMODEL "__core", "plain"
        RTMODEL "__data_model", "large"
        RTMODEL "__dptr_size", "16"
        RTMODEL "__extended_stack", "disabled"
        RTMODEL "__location_for_constants", "data"
        RTMODEL "__number_of_dptrs", "1"
        RTMODEL "__rt_version", "1"

        RSEG DOVERLAY:DATA:NOROOT(0)
        RSEG IOVERLAY:IDATA:NOROOT(0)
        RSEG ISTACK:IDATA:NOROOT(0)
        RSEG PSTACK:XDATA:NOROOT(0)
        RSEG XSTACK:XDATA:NOROOT(0)

        EXTERN ?V0
        EXTERN ?V1
        EXTERN ?V2
        EXTERN ?V3
        EXTERN ?V4
        EXTERN ?V5
        EXTERN ?V6
        EXTERN ?V7
        EXTERN ?ALLOC_XSTACK8
        EXTERN ?BANKED_ENTER_XDATA
        EXTERN ?BANKED_LEAVE_XDATA
        EXTERN ?BDISPATCH
        EXTERN ?BRET
        EXTERN ?CALL_IND
        EXTERN ?DEALLOC_XSTACK8
        EXTERN ?PUSH_XSTACK_I_THREE
        EXTERN ?XSP
        EXTERN ?XSTACK_DISP0_8
        EXTERN __INIT_XDATA_Z

        PUBLIC `??MTProcessAppRspMsg::?relay`
        FUNCTION `??MTProcessAppRspMsg::?relay`,0203H
        PUBLIC `??MT_BuildAndSendZToolResponse::?relay`
        FUNCTION `??MT_BuildAndSendZToolResponse::?relay`,0203H
        PUBLIC `??MT_BuildEndpointDesc::?relay`
        FUNCTION `??MT_BuildEndpointDesc::?relay`,0203H
        PUBLIC `??MT_Init::?relay`
        FUNCTION `??MT_Init::?relay`,0203H
        PUBLIC `??MT_ProcessIncoming::?relay`
        FUNCTION `??MT_ProcessIncoming::?relay`,0203H
        PUBLIC `??MT_ReverseBytes::?relay`
        FUNCTION `??MT_ReverseBytes::?relay`,0203H
        PUBLIC `??MT_Word2Buf::?relay`
        FUNCTION `??MT_Word2Buf::?relay`,0203H
        PUBLIC MTProcessAppRspMsg
        FUNCTION MTProcessAppRspMsg,021203H
        ARGFRAME XSTACK, 0, STACK
        LOCFRAME XSTACK, 9, STACK
        PUBLIC MT_BuildAndSendZToolResponse
        FUNCTION MT_BuildAndSendZToolResponse,0a1203H
        ARGFRAME XSTACK, 9, STACK
        ARGFRAME IOVERLAY, 0, STATIC
        ARGFRAME DOVERLAY, 0, STATIC
        LOCFRAME ISTACK, 1, STACK
        LOCFRAME XSTACK, 19, STACK
        PUBLIC MT_BuildEndpointDesc
        FUNCTION MT_BuildEndpointDesc,0a1203H
        ARGFRAME XSTACK, 0, STACK
        LOCFRAME ISTACK, 1, STACK
        LOCFRAME XSTACK, 15, STACK
        PUBLIC MT_Init
        FUNCTION MT_Init,021203H
        ARGFRAME XSTACK, 0, STACK
        LOCFRAME XSTACK, 9, STACK
        PUBLIC MT_ProcessIncoming
        FUNCTION MT_ProcessIncoming,021203H
        ARGFRAME XSTACK, 0, STACK
        LOCFRAME ISTACK, 3, STACK
        LOCFRAME XSTACK, 3, STACK
        PUBLIC MT_ReverseBytes
        FUNCTION MT_ReverseBytes,080203H
        ARGFRAME XSTACK, 0, STACK
        LOCFRAME ISTACK, 1, STACK
        LOCFRAME XSTACK, 11, STACK
        PUBLIC MT_Word2Buf
        FUNCTION MT_Word2Buf,0203H
        ARGFRAME XSTACK, 0, STACK
        LOCFRAME ISTACK, 1, STACK
        LOCFRAME XSTACK, 9, STACK
        PUBLIC debugCompId
        PUBLIC debugThreshold
        PUBLIC mtProcessIncoming
        
          CFI Names cfiNames0
          CFI StackFrame CFA_SP SP IDATA
          CFI StackFrame CFA_PSP16 PSP16 XDATA
          CFI StackFrame CFA_XSP16 XSP16 XDATA
          CFI StaticOverlayFrame CFA_IOVERLAY IOVERLAY
          CFI StaticOverlayFrame CFA_DOVERLAY DOVERLAY
          CFI Resource `PSW.CY`:1, `B.BR0`:1, `B.BR1`:1, `B.BR2`:1, `B.BR3`:1
          CFI Resource `B.BR4`:1, `B.BR5`:1, `B.BR6`:1, `B.BR7`:1, `VB.BR8`:1
          CFI Resource `VB.BR9`:1, `VB.BR10`:1, `VB.BR11`:1, `VB.BR12`:1
          CFI Resource `VB.BR13`:1, `VB.BR14`:1, `VB.BR15`:1, VB:8, B:8, A:8
          CFI Resource PSW:8, DPL0:8, DPH0:8, R0:8, R1:8, R2:8, R3:8, R4:8, R5:8
          CFI Resource R6:8, R7:8, V0:8, V1:8, V2:8, V3:8, V4:8, V5:8, V6:8, V7:8
          CFI Resource SP:8, PSPH:8, PSPL:8, PSP16:16, XSPH:8, XSPL:8, XSP16:16
          CFI VirtualResource ?RET:24
          CFI Resource ?BRET_EXT:8
          CFI VirtualResource ?RET_HIGH:8, ?RET_LOW:8
          CFI ResourceParts PSP16 PSPH, PSPL
          CFI ResourceParts XSP16 XSPH, XSPL
          CFI ResourceParts ?RET ?BRET_EXT, ?RET_HIGH, ?RET_LOW
          CFI EndNames cfiNames0
        
          CFI Common cfiCommon0 Using cfiNames0
          CFI CodeAlign 1
          CFI DataAlign -1
          CFI ReturnAddress ?RET CODE
          CFI CFA_DOVERLAY Used
          CFI CFA_IOVERLAY Used
          CFI CFA_SP SP+-3
          CFI CFA_PSP16 PSP16+0
          CFI CFA_XSP16 XSP16+0
          CFI `PSW.CY` SameValue
          CFI `B.BR0` SameValue
          CFI `B.BR1` SameValue
          CFI `B.BR2` SameValue
          CFI `B.BR3` SameValue
          CFI `B.BR4` SameValue
          CFI `B.BR5` SameValue
          CFI `B.BR6` SameValue
          CFI `B.BR7` SameValue
          CFI `VB.BR8` SameValue
          CFI `VB.BR9` SameValue
          CFI `VB.BR10` SameValue
          CFI `VB.BR11` SameValue
          CFI `VB.BR12` SameValue
          CFI `VB.BR13` SameValue
          CFI `VB.BR14` SameValue
          CFI `VB.BR15` SameValue
          CFI VB SameValue
          CFI B Undefined
          CFI A Undefined
          CFI PSW SameValue
          CFI DPL0 SameValue
          CFI DPH0 SameValue
          CFI R0 Undefined
          CFI R1 Undefined
          CFI R2 Undefined
          CFI R3 Undefined
          CFI R4 Undefined
          CFI R5 Undefined
          CFI R6 SameValue
          CFI R7 SameValue
          CFI V0 SameValue
          CFI V1 SameValue
          CFI V2 SameValue
          CFI V3 SameValue
          CFI V4 SameValue
          CFI V5 SameValue
          CFI V6 SameValue
          CFI V7 SameValue
          CFI PSPH Undefined
          CFI PSPL Undefined
          CFI XSPH Undefined
          CFI XSPL Undefined
          CFI ?RET Concat
          CFI ?BRET_EXT Frame(CFA_SP, 3)
          CFI ?RET_HIGH Frame(CFA_SP, 2)
          CFI ?RET_LOW Frame(CFA_SP, 1)
          CFI EndCommon cfiCommon0
        
        
          CFI Common cfiCommon1 Using cfiNames0
          CFI CodeAlign 1
          CFI DataAlign -1
          CFI ReturnAddress ?RET CODE
          CFI CFA_DOVERLAY Used
          CFI CFA_IOVERLAY Used
          CFI CFA_SP SP+-2
          CFI CFA_PSP16 PSP16+0
          CFI CFA_XSP16 XSP16+0
          CFI `PSW.CY` SameValue
          CFI `B.BR0` SameValue
          CFI `B.BR1` SameValue
          CFI `B.BR2` SameValue
          CFI `B.BR3` SameValue
          CFI `B.BR4` SameValue
          CFI `B.BR5` SameValue
          CFI `B.BR6` SameValue
          CFI `B.BR7` SameValue
          CFI `VB.BR8` SameValue
          CFI `VB.BR9` SameValue
          CFI `VB.BR10` SameValue
          CFI `VB.BR11` SameValue
          CFI `VB.BR12` SameValue
          CFI `VB.BR13` SameValue
          CFI `VB.BR14` SameValue
          CFI `VB.BR15` SameValue
          CFI VB SameValue
          CFI B SameValue
          CFI A SameValue
          CFI PSW SameValue
          CFI DPL0 SameValue
          CFI DPH0 SameValue
          CFI R0 SameValue
          CFI R1 SameValue
          CFI R2 SameValue
          CFI R3 SameValue
          CFI R4 SameValue
          CFI R5 SameValue
          CFI R6 SameValue
          CFI R7 SameValue
          CFI V0 SameValue
          CFI V1 SameValue
          CFI V2 SameValue
          CFI V3 SameValue
          CFI V4 SameValue
          CFI V5 SameValue
          CFI V6 SameValue
          CFI V7 SameValue
          CFI PSPH Undefined
          CFI PSPL Undefined
          CFI XSPH Undefined
          CFI XSPL Undefined
          CFI ?RET Concat
          CFI ?BRET_EXT SameValue
          CFI ?RET_HIGH Frame(CFA_SP, 2)
          CFI ?RET_LOW Frame(CFA_SP, 1)
          CFI EndCommon cfiCommon1
        
MT_SysResetInd      SYMBOL "MT_SysResetInd"
`??MT_SysResetInd::?relay` SYMBOL "?relay", MT_SysResetInd
MT_TransportAlloc   SYMBOL "MT_TransportAlloc"
`??MT_TransportAlloc::?relay` SYMBOL "?relay", MT_TransportAlloc
MT_TransportSend    SYMBOL "MT_TransportSend"
`??MT_TransportSend::?relay` SYMBOL "?relay", MT_TransportSend
afFindEndPointDesc  SYMBOL "afFindEndPointDesc"
`??afFindEndPointDesc::?relay` SYMBOL "?relay", afFindEndPointDesc
osal_mem_alloc      SYMBOL "osal_mem_alloc"
`??osal_mem_alloc::?relay` SYMBOL "?relay", osal_mem_alloc
osal_mem_free       SYMBOL "osal_mem_free"
`??osal_mem_free::?relay` SYMBOL "?relay", osal_mem_free
osal_memcpy         SYMBOL "osal_memcpy"
`??osal_memcpy::?relay` SYMBOL "?relay", osal_memcpy
MTProcessAppRspMsg  SYMBOL "MTProcessAppRspMsg"
`??MTProcessAppRspMsg::?relay` SYMBOL "?relay", MTProcessAppRspMsg
MT_BuildAndSendZToolResponse SYMBOL "MT_BuildAndSendZToolResponse"
`??MT_BuildAndSendZToolResponse::?relay` SYMBOL "?relay", MT_BuildAndSendZToolResponse
MT_BuildEndpointDesc SYMBOL "MT_BuildEndpointDesc"
`??MT_BuildEndpointDesc::?relay` SYMBOL "?relay", MT_BuildEndpointDesc
MT_Init             SYMBOL "MT_Init"
`??MT_Init::?relay` SYMBOL "?relay", MT_Init
MT_ProcessIncoming  SYMBOL "MT_ProcessIncoming"
`??MT_ProcessIncoming::?relay` SYMBOL "?relay", MT_ProcessIncoming
MT_ReverseBytes     SYMBOL "MT_ReverseBytes"
`??MT_ReverseBytes::?relay` SYMBOL "?relay", MT_ReverseBytes
MT_Word2Buf         SYMBOL "MT_Word2Buf"
`??MT_Word2Buf::?relay` SYMBOL "?relay", MT_Word2Buf

        EXTERN `??MT_SysResetInd::?relay`
        FUNCTION `??MT_SysResetInd::?relay`,00H
        EXTERN `??MT_TransportAlloc::?relay`
        FUNCTION `??MT_TransportAlloc::?relay`,00H
        EXTERN `??MT_TransportSend::?relay`
        FUNCTION `??MT_TransportSend::?relay`,00H
        EXTERN `??afFindEndPointDesc::?relay`
        FUNCTION `??afFindEndPointDesc::?relay`,00H
        EXTERN `??osal_mem_alloc::?relay`
        FUNCTION `??osal_mem_alloc::?relay`,00H
        EXTERN `??osal_mem_free::?relay`
        FUNCTION `??osal_mem_free::?relay`,00H
        EXTERN `??osal_memcpy::?relay`
        FUNCTION `??osal_memcpy::?relay`,00H
        EXTERN MT_SysResetInd
        FUNCTION MT_SysResetInd,0202H
        ARGFRAME ISTACK, 0, STACK
        ARGFRAME PSTACK, 0, STACK
        ARGFRAME XSTACK, 9, STACK
        ARGFRAME IOVERLAY, 0, STATIC
        ARGFRAME DOVERLAY, 0, STATIC
        EXTERN MT_TaskID
        EXTERN MT_TransportAlloc
        FUNCTION MT_TransportAlloc,0202H
        ARGFRAME ISTACK, 0, STACK
        ARGFRAME PSTACK, 0, STACK
        ARGFRAME XSTACK, 16, STACK
        ARGFRAME IOVERLAY, 0, STATIC
        ARGFRAME DOVERLAY, 0, STATIC
        EXTERN MT_TransportSend
        FUNCTION MT_TransportSend,0202H
        ARGFRAME ISTACK, 0, STACK
        ARGFRAME PSTACK, 0, STACK
        ARGFRAME XSTACK, 16, STACK
        ARGFRAME IOVERLAY, 0, STATIC
        ARGFRAME DOVERLAY, 0, STATIC
        EXTERN afFindEndPointDesc
        FUNCTION afFindEndPointDesc,0202H
        ARGFRAME ISTACK, 0, STACK
        ARGFRAME PSTACK, 0, STACK
        ARGFRAME XSTACK, 15, STACK
        ARGFRAME IOVERLAY, 0, STATIC
        ARGFRAME DOVERLAY, 0, STATIC
        EXTERN osal_mem_alloc
        FUNCTION osal_mem_alloc,0202H
        ARGFRAME ISTACK, 0, STACK
        ARGFRAME PSTACK, 0, STACK
        ARGFRAME XSTACK, 15, STACK
        ARGFRAME IOVERLAY, 0, STATIC
        ARGFRAME DOVERLAY, 0, STATIC
        EXTERN osal_mem_free
        FUNCTION osal_mem_free,0202H
        ARGFRAME ISTACK, 0, STACK
        ARGFRAME PSTACK, 0, STACK
        ARGFRAME XSTACK, 15, STACK
        ARGFRAME IOVERLAY, 0, STATIC
        ARGFRAME DOVERLAY, 0, STATIC
        EXTERN osal_memcpy
        FUNCTION osal_memcpy,0202H
        ARGFRAME ISTACK, 0, STACK
        ARGFRAME PSTACK, 0, STACK
        ARGFRAME XSTACK, 19, STACK
        ARGFRAME IOVERLAY, 0, STATIC
        ARGFRAME DOVERLAY, 0, STATIC

// E:\×ÊÔ´(G£º)\#¸öÈËÏîÄ¿\ZigbeeProject\Z-Stack Mesh 1.0.0\Components\mt\MT.c
//    1 /***************************************************************************************************
//    2   Filename:       MT.c
//    3   Revised:        $Date: 2014-03-21 17:08:59 -0700 (Fri, 21 Mar 2014) $
//    4   Revision:       $Revision: 37840 $
//    5 
//    6   Description:    MonitorTest Event Loop functions.
//    7                   Everything in the MonitorTest Task (except the serial driver).
//    8 
//    9 
//   10   Copyright 2007-2014 Texas Instruments Incorporated. All rights reserved.
//   11 
//   12   IMPORTANT: Your use of this Software is limited to those specific rights
//   13   granted under the terms of a software license agreement between the user
//   14   who downloaded the software, his/her employer (which must be your employer)
//   15   and Texas Instruments Incorporated (the "License").  You may not use this
//   16   Software unless you agree to abide by the terms of the License. The License
//   17   limits your use, and you acknowledge, that the Software may not be modified,
//   18   copied or distributed unless embedded on a Texas Instruments microcontroller
//   19   or used solely and exclusively in conjunction with a Texas Instruments radio
//   20   frequency transceiver, which is integrated into your product.  Other than for
//   21   the foregoing purpose, you may not use, reproduce, copy, prepare derivative
//   22   works of, modify, distribute, perform, display or sell this Software and/or
//   23   its documentation for any purpose.
//   24 
//   25   YOU FURTHER ACKNOWLEDGE AND AGREE THAT THE SOFTWARE AND DOCUMENTATION ARE
//   26   PROVIDED “AS IS” WITHOUT WARRANTY OF ANY KIND, EITHER EXPRESS OR IMPLIED,
//   27   INCLUDING WITHOUT LIMITATION, ANY WARRANTY OF MERCHANTABILITY, TITLE,
//   28   NON-INFRINGEMENT AND FITNESS FOR A PARTICULAR PURPOSE. IN NO EVENT SHALL
//   29   TEXAS INSTRUMENTS OR ITS LICENSORS BE LIABLE OR OBLIGATED UNDER CONTRACT,
//   30   NEGLIGENCE, STRICT LIABILITY, CONTRIBUTION, BREACH OF WARRANTY, OR OTHER
//   31   LEGAL EQUITABLE THEORY ANY DIRECT OR INDIRECT DAMAGES OR EXPENSES
//   32   INCLUDING BUT NOT LIMITED TO ANY INCIDENTAL, SPECIAL, INDIRECT, PUNITIVE
//   33   OR CONSEQUENTIAL DAMAGES, LOST PROFITS OR LOST DATA, COST OF PROCUREMENT
//   34   OF SUBSTITUTE GOODS, TECHNOLOGY, SERVICES, OR ANY CLAIMS BY THIRD PARTIES
//   35   (INCLUDING BUT NOT LIMITED TO ANY DEFENSE THEREOF), OR OTHER SIMILAR COSTS.
//   36 
//   37   Should you have any questions regarding your right to use this Software,
//   38   contact Texas Instruments Incorporated at www.TI.com.
//   39 
//   40  **************************************************************************************************/
//   41 
//   42 /**************************************************************************************************
//   43  * INCLUDES
//   44  **************************************************************************************************/
//   45 
//   46 #include "ZComDef.h"
//   47 #include "MT.h"
//   48 #include "MT_APP.h"
//   49 #include "MT_DEBUG.h"
//   50 #include "MT_UTIL.h"
//   51 #include "MT_SYS.h"
//   52 
//   53 #include "OnBoard.h"
//   54 #include "OSAL.h"
//   55 #include "OSAL_Memory.h"
//   56 #include "OSAL_Nv.h"
//   57 
//   58 #include "DebugTrace.h"
//   59 #include "ZMAC.h"
//   60 
//   61 #if !defined ( NONWK )
//   62   #include "NLMEDE.h"
//   63   #include "nwk_bufs.h"
//   64   #include "ZDObject.h"
//   65   #include "ssp.h"
//   66   #include "nwk_util.h"
//   67   #include "AF.h"
//   68   #include "MT_SAPI.h"
//   69 #endif
//   70 
//   71 #if defined( MT_MAC_FUNC ) || defined( MT_MAC_CB_FUNC )
//   72   #include "MT_MAC.h"
//   73 #endif
//   74 #if defined( MT_NWK_FUNC ) || defined( MT_NWK_CB_FUNC )
//   75   #include "MT_NWK.h"
//   76   #include "nwk.h"
//   77   #include "nwk_bufs.h"
//   78 #endif
//   79 #if defined( MT_AF_FUNC ) || defined( MT_AF_CB_FUNC )
//   80   #include "MT_AF.h"
//   81 #endif
//   82 #if defined( MT_USER_TEST_FUNC )
//   83   #include "AF.h"
//   84 #endif
//   85 #if defined( MT_ZDO_FUNC )
//   86   #include "MT_ZDO.h"
//   87 #endif
//   88 #if defined (MT_SAPI_FUNC)
//   89 	#include "MT_SAPI.h"
//   90 #endif
//   91 #if defined (MT_OTA_FUNC)
//   92   #include "MT_OTA.h"
//   93 #endif
//   94 
//   95 #if defined( APP_TP )
//   96  #include "TestProfile.h"
//   97 #endif
//   98 #if defined( APP_TP2 )
//   99  #include "TestProfile2.h"
//  100 #endif
//  101 
//  102 #if defined(APP_TGEN)
//  103   #include "TrafficGenApp.h"
//  104 #endif
//  105 #if defined(APP_DEBUG)
//  106 	#include "DebugApp.h"
//  107 #endif
//  108 #if defined (NWK_TEST)
//  109 	#include "HWTTApp.h"
//  110 #endif
//  111 #if defined (MT_UBL_FUNC)
//  112   extern uint8 MT_UblCommandProcessing(uint8 *pBuf);
//  113 #endif
//  114 #if defined (MT_ZNP_FUNC)
//  115   #include "MT_ZNP.h"
//  116 #endif
//  117 #if defined (MT_MAC_PROTOBUF_FUNC)
//  118   #include "mtmacpb.h"
//  119 #endif
//  120 #if defined (MT_GP_FUNC)
//  121   #include "MT_GP.h"
//  122 #endif
//  123 
//  124 #include "hal_uart.h"
//  125 #include "hal_led.h"
//  126 #include "hal_key.h"
//  127 #include "MT_UART.h"
//  128 
//  129 /**************************************************************************************************
//  130  * CONSTANTS
//  131  **************************************************************************************************/
//  132 

        RSEG XDATA_Z:XDATA:NOROOT(0)
        DATA8
//  133 mtProcessMsg_t mtProcessIncoming[] =
mtProcessIncoming:
        DS 44
        REQUIRE __INIT_XDATA_Z
//  134 {
//  135   NULL,                               // MT_RPC_SYS_RES0
//  136 
//  137 #if defined (MT_SYS_FUNC)
//  138   MT_SysCommandProcessing,            // MT_RPC_SYS_SYS
//  139 #else
//  140   NULL,
//  141 #endif
//  142 
//  143 #if defined (MT_MAC_FUNC)
//  144   MT_MacCommandProcessing,            // MT_RPC_SYS_MAC
//  145 #else
//  146   NULL,
//  147 #endif
//  148 
//  149 #if defined (MT_NWK_FUNC)
//  150   MT_NwkCommandProcessing,            // MT_RPC_SYS_NWK
//  151 #else
//  152   NULL,
//  153 #endif
//  154 
//  155 #if defined (MT_AF_FUNC)
//  156   MT_AfCommandProcessing,             // MT_RPC_SYS_AF
//  157 #else
//  158   NULL,
//  159 #endif
//  160 
//  161 #if defined (MT_ZDO_FUNC)
//  162   MT_ZdoCommandProcessing,            // MT_RPC_SYS_ZDO
//  163 #else
//  164   NULL,
//  165 #endif
//  166 
//  167 #if defined (MT_SAPI_FUNC)
//  168   MT_SapiCommandProcessing,           // MT_RPC_SYS_SAPI
//  169 #else
//  170   NULL,
//  171 #endif
//  172 
//  173 #if defined (MT_UTIL_FUNC)
//  174   MT_UtilCommandProcessing,           // MT_RPC_SYS_UTIL
//  175 #else
//  176   NULL,
//  177 #endif
//  178 
//  179 #if defined (MT_DEBUG_FUNC)
//  180   MT_DebugCommandProcessing,          // MT_RPC_SYS_DBG
//  181 #else
//  182   NULL,
//  183 #endif
//  184 
//  185 #if defined (MT_APP_FUNC)
//  186   MT_AppCommandProcessing,            // MT_RPC_SYS_APP
//  187 #else
//  188   NULL,
//  189 #endif
//  190 
//  191 #if defined (MT_OTA_FUNC)
//  192   MT_OtaCommandProcessing,            // MT_RPC_SYS_OTA
//  193 #else
//  194   NULL,
//  195 #endif
//  196 
//  197 #if defined (MT_ZNP_FUNC)
//  198   MT_ZnpCommandProcessing,
//  199 #else
//  200   NULL,
//  201 #endif
//  202 
//  203   NULL,  // Spare sub-system 12.
//  204 
//  205 #if defined (MT_UBL_FUNC)
//  206   MT_UblCommandProcessing,
//  207 #else
//  208   NULL,
//  209 #endif
//  210 
//  211   NULL,                               // MT_RPC_SYS_RESERVED14
//  212   NULL,                               // MT_RPC_SYS_RESERVED15
//  213   NULL,                               // MT_RPC_SYS_RESERVED16
//  214 #if defined (MT_MAC_PROTOBUF_FUNC)
//  215   MT_MacPBCmdProc,                    // MT_RPC_SYS_PROTOBUF
//  216 #else
//  217   NULL,
//  218 #endif
//  219   NULL,                               // MT_RPC_SYS_RES18
//  220   NULL,                               // MT_RPC_SYS_RES19
//  221   NULL,                               // MT_RPC_SYS_RES20
//  222 #if defined (MT_GP_FUNC)
//  223   MT_GpCommandProcessing,
//  224 #else
//  225   NULL,
//  226 #endif
//  227 };
//  228 
//  229 /**************************************************************************************************
//  230  * GLOBAL VARIABLES
//  231  **************************************************************************************************/
//  232 

        RSEG XDATA_Z:XDATA:NOROOT(0)
        DATA8
//  233 byte debugThreshold;
debugThreshold:
        DS 1
        REQUIRE __INIT_XDATA_Z

        RSEG XDATA_Z:XDATA:NOROOT(0)
        DATA8
//  234 byte debugCompId;
debugCompId:
        DS 1
        REQUIRE __INIT_XDATA_Z
//  235 
//  236 /**************************************************************************************************
//  237  * LOCAL FUNCTIONS
//  238  **************************************************************************************************/
//  239 
//  240 void MT_MsgQueueInit( void );
//  241 void MT_ResetMsgQueue( void );
//  242 byte MT_QueueMsg( byte *msg , byte len );
//  243 void MT_ProcessQueue( void );
//  244 
//  245 #if defined ( MT_USER_TEST_FUNC )
//  246 void MT_ProcessAppUserCmd( byte *pData );
//  247 #endif
//  248 
//  249 /**************************************************************************************************
//  250  * @fn         MT_Init
//  251  *
//  252  * @brief      This function is the secondary initialization that resolves conflicts during
//  253  *             osalInitTasks(). For example, since MT is the highest priority task, and
//  254  *             specifically because the MT task is initialized before the ZDApp task, if MT_Init()
//  255  *             registers anything with ZDO_RegisterForZdoCB(), it is wiped out when ZDApp task
//  256  *             initialization invokes ZDApp_InitZdoCBFunc().
//  257  *             There may be other existing or future such races, so try to do all possible
//  258  *             MT initialization here vice in MT_TaskInit().
//  259  *
//  260  * input parameters
//  261  *
//  262  * None.
//  263  *
//  264  * output parameters
//  265  *
//  266  * None.
//  267  *
//  268  * @return      None.
//  269  **************************************************************************************************
//  270  */

        RSEG BANKED_CODE:CODE:NOROOT(0)
//  271 void MT_Init(uint8 taskID)
MT_Init:
          CFI Block cfiBlock0 Using cfiCommon0
          CFI Function MT_Init
        CODE
//  272 {
        FUNCALL MT_Init, MT_SysResetInd
        LOCFRAME ISTACK, 0, STACK
        LOCFRAME PSTACK, 0, STACK
        LOCFRAME XSTACK, 9, STACK
        LOCFRAME IOVERLAY, 0, STATIC
        LOCFRAME DOVERLAY, 0, STATIC
        ARGFRAME ISTACK, 0, STACK
        ARGFRAME PSTACK, 0, STACK
        ARGFRAME XSTACK, 9, STACK
        ARGFRAME IOVERLAY, 0, STATIC
        ARGFRAME DOVERLAY, 0, STATIC
        MOV     A,#-0x9
        LCALL   ?BANKED_ENTER_XDATA
          CFI DPH0 load(1, XDATA, add(CFA_XSP16, literal(-1)))
          CFI DPL0 load(1, XDATA, add(CFA_XSP16, literal(-2)))
          CFI ?BRET_EXT load(1, XDATA, add(CFA_XSP16, literal(-3)))
          CFI ?RET_HIGH load(1, XDATA, add(CFA_XSP16, literal(-4)))
          CFI ?RET_LOW load(1, XDATA, add(CFA_XSP16, literal(-5)))
          CFI R7 load(1, XDATA, add(CFA_XSP16, literal(-6)))
          CFI V0 load(1, XDATA, add(CFA_XSP16, literal(-7)))
          CFI VB load(1, XDATA, add(CFA_XSP16, literal(-8)))
          CFI R6 load(1, XDATA, add(CFA_XSP16, literal(-9)))
          CFI CFA_SP SP+0
          CFI CFA_XSP16 add(XSP16, 9)
        ; Saved register size: 9
        ; Auto size: 0
        MOV     A,R1
//  273   MT_TaskID = taskID;
        MOV     DPTR,#MT_TaskID
        MOVX    @DPTR,A
//  274   debugThreshold = 0;
        MOV     DPTR,#debugThreshold
        CLR     A
        MOVX    @DPTR,A
//  275   debugCompId = 0;
        MOV     DPTR,#debugCompId
        MOVX    @DPTR,A
//  276 
//  277 #if defined (MT_ZDO_FUNC)
//  278   MT_ZdoInit();
//  279 #endif
//  280   MT_SysResetInd();
        ; Setup parameters for call to function MT_SysResetInd
        LCALL   `??MT_SysResetInd::?relay`; Banked call to: MT_SysResetInd
//  281 }
          CFI EndBlock cfiBlock0
        REQUIRE ?Subroutine0
        ; // Fall through to label ?Subroutine0

        RSEG BANKED_CODE:CODE:NOROOT(0)
?Subroutine0:
          CFI Block cfiBlock1 Using cfiCommon0
          CFI NoFunction
          CFI CFA_SP SP+0
          CFI CFA_XSP16 add(XSP16, 9)
          CFI VB load(1, XDATA, add(CFA_XSP16, literal(-8)))
          CFI DPL0 load(1, XDATA, add(CFA_XSP16, literal(-2)))
          CFI DPH0 load(1, XDATA, add(CFA_XSP16, literal(-1)))
          CFI R6 load(1, XDATA, add(CFA_XSP16, literal(-9)))
          CFI R7 load(1, XDATA, add(CFA_XSP16, literal(-6)))
          CFI V0 load(1, XDATA, add(CFA_XSP16, literal(-7)))
          CFI ?BRET_EXT load(1, XDATA, add(CFA_XSP16, literal(-3)))
          CFI ?RET_HIGH load(1, XDATA, add(CFA_XSP16, literal(-4)))
          CFI ?RET_LOW load(1, XDATA, add(CFA_XSP16, literal(-5)))
        MOV     R7,#0x1
        LJMP    ?BANKED_LEAVE_XDATA
          CFI EndBlock cfiBlock1
//  282 
//  283 /***************************************************************************************************
//  284  * @fn      MT_BuildAndSendZToolResponse
//  285  *
//  286  * @brief   Build and send a ZTOOL msg
//  287  * @param   uint8 cmdType - include type and subsystem
//  288  *          uint8 cmdId - command ID
//  289  *          byte dataLen
//  290  *          byte *pData
//  291  *
//  292  * @return  void
//  293  ***************************************************************************************************/

        RSEG BANKED_CODE:CODE:NOROOT(0)
//  294 void MT_BuildAndSendZToolResponse(uint8 cmdType, uint8 cmdId, uint8 dataLen, uint8 *pData)
MT_BuildAndSendZToolResponse:
          CFI Block cfiBlock2 Using cfiCommon0
          CFI Function MT_BuildAndSendZToolResponse
        CODE
//  295 {
        FUNCALL MT_BuildAndSendZToolResponse, MT_TransportAlloc
        LOCFRAME ISTACK, 0, STACK
        LOCFRAME PSTACK, 0, STACK
        LOCFRAME XSTACK, 16, STACK
        LOCFRAME IOVERLAY, 0, STATIC
        LOCFRAME DOVERLAY, 0, STATIC
        ARGFRAME ISTACK, 0, STACK
        ARGFRAME PSTACK, 0, STACK
        ARGFRAME XSTACK, 16, STACK
        ARGFRAME IOVERLAY, 0, STATIC
        ARGFRAME DOVERLAY, 0, STATIC
        FUNCALL MT_BuildAndSendZToolResponse, osal_memcpy
        LOCFRAME ISTACK, 0, STACK
        LOCFRAME PSTACK, 0, STACK
        LOCFRAME XSTACK, 19, STACK
        LOCFRAME IOVERLAY, 0, STATIC
        LOCFRAME DOVERLAY, 0, STATIC
        ARGFRAME ISTACK, 0, STACK
        ARGFRAME PSTACK, 0, STACK
        ARGFRAME XSTACK, 19, STACK
        ARGFRAME IOVERLAY, 0, STATIC
        ARGFRAME DOVERLAY, 0, STATIC
        FUNCALL MT_BuildAndSendZToolResponse, MT_TransportSend
        LOCFRAME ISTACK, 0, STACK
        LOCFRAME PSTACK, 0, STACK
        LOCFRAME XSTACK, 16, STACK
        LOCFRAME IOVERLAY, 0, STATIC
        LOCFRAME DOVERLAY, 0, STATIC
        ARGFRAME ISTACK, 0, STACK
        ARGFRAME PSTACK, 0, STACK
        ARGFRAME XSTACK, 16, STACK
        ARGFRAME IOVERLAY, 0, STATIC
        ARGFRAME DOVERLAY, 0, STATIC
        REQUIRE ?V0
        REQUIRE ?V1
        REQUIRE ?V2
        REQUIRE ?V3
        REQUIRE ?V4
        REQUIRE ?V5
        REQUIRE ?V6
        REQUIRE ?V7
        MOV     A,#-0x10
        LCALL   ?BANKED_ENTER_XDATA
          CFI DPH0 load(1, XDATA, add(CFA_XSP16, literal(-1)))
          CFI DPL0 load(1, XDATA, add(CFA_XSP16, literal(-2)))
          CFI ?BRET_EXT load(1, XDATA, add(CFA_XSP16, literal(-3)))
          CFI ?RET_HIGH load(1, XDATA, add(CFA_XSP16, literal(-4)))
          CFI ?RET_LOW load(1, XDATA, add(CFA_XSP16, literal(-5)))
          CFI R7 load(1, XDATA, add(CFA_XSP16, literal(-6)))
          CFI V7 load(1, XDATA, add(CFA_XSP16, literal(-7)))
          CFI V6 load(1, XDATA, add(CFA_XSP16, literal(-8)))
          CFI V5 load(1, XDATA, add(CFA_XSP16, literal(-9)))
          CFI V4 load(1, XDATA, add(CFA_XSP16, literal(-10)))
          CFI V3 load(1, XDATA, add(CFA_XSP16, literal(-11)))
          CFI V2 load(1, XDATA, add(CFA_XSP16, literal(-12)))
          CFI V1 load(1, XDATA, add(CFA_XSP16, literal(-13)))
          CFI V0 load(1, XDATA, add(CFA_XSP16, literal(-14)))
          CFI VB load(1, XDATA, add(CFA_XSP16, literal(-15)))
          CFI R6 load(1, XDATA, add(CFA_XSP16, literal(-16)))
          CFI CFA_SP SP+0
          CFI CFA_XSP16 add(XSP16, 16)
        ; Saved register size: 16
        ; Auto size: 0
        MOV     ?V4,R1
        MOV     ?V5,R2
        MOV     ?V3,R3
        MOV     ?V6,R4
        MOV     ?V7,R5
//  296   uint8 *msg_ptr;
//  297 
//  298   if ((msg_ptr = MT_TransportAlloc((mtRpcCmdType_t)(cmdType & 0xE0), dataLen)) != NULL)
        ; Setup parameters for call to function MT_TransportAlloc
        MOV     R2,?V3
        MOV     A,#-0x20
        ANL     A,?V4
        MOV     R1,A
        LCALL   `??MT_TransportAlloc::?relay`; Banked call to: MT_TransportAlloc
        MOV     ?V0,R2
        MOV     ?V1,R3
        MOV     R6,?V0
        MOV     R7,?V1
        MOV     A,R6
        ORL     A,R7
        JZ      ??MT_BuildAndSendZToolResponse_0
//  299   {
//  300     msg_ptr[MT_RPC_POS_LEN] = dataLen;
        MOV     DPL,R6
        MOV     DPH,R7
        MOV     A,?V3
        MOVX    @DPTR,A
//  301     msg_ptr[MT_RPC_POS_CMD0] = cmdType;
        INC     DPTR
        MOV     A,?V4
        LCALL   ?Subroutine2 & 0xFFFF
//  302     msg_ptr[MT_RPC_POS_CMD1] = cmdId;
??CrossCallReturnLabel_2:
        MOV     A,?V5
        MOVX    @DPTR,A
//  303     (void)osal_memcpy(msg_ptr+MT_RPC_POS_DAT0, pData, dataLen);
        ; Setup parameters for call to function osal_memcpy
        MOV     ?V0,?V6
        MOV     ?V1,?V7
        MOV     ?V2,#0x0
        MOV     R0,#?V0
        LCALL   ?PUSH_XSTACK_I_THREE
          CFI CFA_XSP16 add(XSP16, 19)
        MOV     R4,?V3
        MOV     R5,#0x0
        MOV     A,R6
        ADD     A,#0x3
        MOV     R2,A
        CLR     A
        ADDC    A,R7
        MOV     R3,A
        LCALL   `??osal_memcpy::?relay`; Banked call to: osal_memcpy
        MOV     A,#0x3
        LCALL   ?DEALLOC_XSTACK8
          CFI CFA_XSP16 add(XSP16, 16)
//  304 
//  305     MT_TransportSend(msg_ptr);
        ; Setup parameters for call to function MT_TransportSend
        MOV     A,R6
        MOV     R2,A
        MOV     A,R7
        MOV     R3,A
        LCALL   `??MT_TransportSend::?relay`; Banked call to: MT_TransportSend
//  306   }
//  307 }
??MT_BuildAndSendZToolResponse_0:
        MOV     R7,#0x8
        LJMP    ?BANKED_LEAVE_XDATA
          CFI EndBlock cfiBlock2
//  308 
//  309 /***************************************************************************************************
//  310  * @fn      MT_ProcessIncoming
//  311  *
//  312  * @brief  Process Incoming Message.
//  313  *
//  314  * @param   byte *pBuf - pointer to event message
//  315  *
//  316  * @return  void
//  317  ***************************************************************************************************/

        RSEG BANKED_CODE:CODE:NOROOT(0)
//  318 void MT_ProcessIncoming(uint8 *pBuf)
MT_ProcessIncoming:
          CFI Block cfiBlock3 Using cfiCommon0
          CFI Function MT_ProcessIncoming
        CODE
//  319 {
        FUNCALL MT_ProcessIncoming, MT_BuildAndSendZToolResponse
        LOCFRAME ISTACK, 2, STACK
        LOCFRAME PSTACK, 0, STACK
        LOCFRAME XSTACK, 3, STACK
        LOCFRAME IOVERLAY, 0, STATIC
        LOCFRAME DOVERLAY, 0, STATIC
        ARGFRAME ISTACK, 2, STACK
        ARGFRAME PSTACK, 0, STACK
        ARGFRAME XSTACK, 3, STACK
        ARGFRAME IOVERLAY, 0, STATIC
        ARGFRAME DOVERLAY, 0, STATIC
        PUSH    DPL
          CFI DPL0 Frame(CFA_SP, 4)
          CFI CFA_SP SP+-4
        PUSH    DPH
          CFI DPH0 Frame(CFA_SP, 5)
          CFI CFA_SP SP+-5
        ; Saved register size: 2
        ; Auto size: 3
        MOV     A,#-0x3
        LCALL   ?ALLOC_XSTACK8
          CFI CFA_XSP16 add(XSP16, 3)
//  320   mtProcessMsg_t func;
//  321   uint8 rsp[MT_RPC_FRAME_HDR_SZ];
//  322 
//  323   /* pre-build response message:  | status | cmd0 | cmd1 | */
//  324   rsp[1] = pBuf[MT_RPC_POS_CMD0];
        MOV     DPL,R2
        MOV     DPH,R3
        INC     DPTR
        MOVX    A,@DPTR
        PUSH    A
          CFI CFA_SP SP+-6
        MOV     A,#0x1
        LCALL   ?XSTACK_DISP0_8
        POP     A
          CFI CFA_SP SP+-5
        MOVX    @DPTR,A
//  325   rsp[2] = pBuf[MT_RPC_POS_CMD1];
        MOV     DPL,R2
        MOV     DPH,R3
        INC     DPTR
        INC     DPTR
        MOVX    A,@DPTR
        PUSH    A
          CFI CFA_SP SP+-6
        MOV     A,#0x2
        LCALL   ?XSTACK_DISP0_8
        POP     A
          CFI CFA_SP SP+-5
        MOVX    @DPTR,A
//  326 
//  327   /* check length */
//  328   if (pBuf[MT_RPC_POS_LEN] > MT_RPC_DATA_MAX)
        MOV     DPL,R2
        MOV     DPH,R3
        MOVX    A,@DPTR
        CLR     C
        SUBB    A,#-0x5
        JC      ??MT_ProcessIncoming_0
//  329   {
//  330     rsp[0] = MT_RPC_ERR_LENGTH;
        MOV     DPL,?XSP + 0
        MOV     DPH,?XSP + 1
        MOV     A,#0x4
        SJMP    ??MT_ProcessIncoming_1
//  331   }
//  332   /* check subsystem range */
//  333   else if ((rsp[1] & MT_RPC_SUBSYSTEM_MASK) < MT_RPC_SYS_MAX)
??MT_ProcessIncoming_0:
        MOV     A,#0x1
        LCALL   ?XSTACK_DISP0_8
        MOVX    A,@DPTR
        ANL     A,#0x1f
        MOV     R0,A
        CLR     C
        SUBB    A,#0x16
        SUBB    A,0xE0 /* A   */
        CLR     C
        XRL     A,PSW
        RLC     A
        JNC     ??MT_ProcessIncoming_2
//  334   {
//  335     /* look up processing function */
//  336     func = mtProcessIncoming[rsp[1] & MT_RPC_SUBSYSTEM_MASK];
        MOVX    A,@DPTR
        ANL     A,#0x1f
        ADD     A,R0
        MOV     R0,A
        MOV     A,#mtProcessIncoming & 0xff
        ADD     A,R0
        MOV     DPL,A
        CLR     A
        ADDC    A,#(mtProcessIncoming >> 8) & 0xff
        MOV     DPH,A
        MOVX    A,@DPTR
        MOV     R0,A
        INC     DPTR
        MOVX    A,@DPTR
        MOV     R1,A
        MOV     DPL,R0
        MOV     DPH,R1
//  337     if (func)
        MOV     A,DPL
        ORL     A,DPH
        JZ      ??MT_ProcessIncoming_2
//  338     {
//  339       /* execute processing function */
//  340       rsp[0] = (*func)(pBuf);
        ; Setup parameters for indirect call
        LCALL   ?CALL_IND
        MOV     A,R1
        MOV     DPL,?XSP + 0
        MOV     DPH,?XSP + 1
        MOVX    @DPTR,A
//  341     }
//  342     else
//  343     {
//  344       rsp[0] = MT_RPC_ERR_SUBSYSTEM;
//  345     }
//  346   }
//  347   else
//  348   {
//  349     rsp[0] = MT_RPC_ERR_SUBSYSTEM;
//  350   }
//  351 
//  352   /* if error and this was an SREQ, send error message */
//  353   if ((rsp[0] != MT_RPC_SUCCESS) && ((rsp[1] & MT_RPC_CMD_TYPE_MASK) == MT_RPC_CMD_SREQ))
        JNZ     ??MT_ProcessIncoming_3
        SJMP    ??MT_ProcessIncoming_4
??MT_ProcessIncoming_2:
        MOV     DPL,?XSP + 0
        MOV     DPH,?XSP + 1
        MOV     A,#0x1
??MT_ProcessIncoming_1:
        MOVX    @DPTR,A
??MT_ProcessIncoming_3:
        MOV     A,#0x1
        LCALL   ?XSTACK_DISP0_8
        MOVX    A,@DPTR
        ANL     A,#0xe0
        XRL     A,#0x20
        JNZ     ??MT_ProcessIncoming_4
//  354   {
//  355     MT_BuildAndSendZToolResponse(((uint8)MT_RPC_CMD_SRSP | (uint8)MT_RPC_SYS_RES0), 0,
//  356                                                                   MT_RPC_FRAME_HDR_SZ, rsp);
        ; Setup parameters for call to function MT_BuildAndSendZToolResponse
        MOV     R4,?XSP + 0
        MOV     R5,?XSP + 1
        MOV     R3,#0x3
        MOV     R2,#0x0
        MOV     R1,#0x60
        LCALL   `??MT_BuildAndSendZToolResponse::?relay`; Banked call to: MT_BuildAndSendZToolResponse
//  357   }
//  358 }
??MT_ProcessIncoming_4:
        MOV     A,#0x3
        LCALL   ?DEALLOC_XSTACK8
          CFI CFA_XSP16 XSP16+0
        POP     DPH
          CFI DPH0 SameValue
          CFI CFA_SP SP+-4
        POP     DPL
          CFI DPL0 SameValue
          CFI CFA_SP SP+-3
        LJMP    ?BRET
          CFI EndBlock cfiBlock3
//  359 
//  360 /***************************************************************************************************
//  361  * @fn      MTProcessAppRspMsg
//  362  *
//  363  * @brief   Process the User App Response Message
//  364  *
//  365  * @param   data - output serial buffer.  The first byte must be the
//  366  *          endpoint that send this message.
//  367  * @param   len - data length
//  368  *
//  369  * @return  none
//  370  ***************************************************************************************************/

        RSEG BANKED_CODE:CODE:NOROOT(0)
//  371 void MTProcessAppRspMsg( byte *pData, byte len )
MTProcessAppRspMsg:
          CFI Block cfiBlock4 Using cfiCommon0
          CFI Function MTProcessAppRspMsg
        CODE
//  372 {
        FUNCALL MTProcessAppRspMsg, MT_BuildAndSendZToolResponse
        LOCFRAME ISTACK, 0, STACK
        LOCFRAME PSTACK, 0, STACK
        LOCFRAME XSTACK, 9, STACK
        LOCFRAME IOVERLAY, 0, STATIC
        LOCFRAME DOVERLAY, 0, STATIC
        ARGFRAME ISTACK, 0, STACK
        ARGFRAME PSTACK, 0, STACK
        ARGFRAME XSTACK, 9, STACK
        ARGFRAME IOVERLAY, 0, STATIC
        ARGFRAME DOVERLAY, 0, STATIC
        MOV     A,#-0x9
        LCALL   ?BANKED_ENTER_XDATA
          CFI DPH0 load(1, XDATA, add(CFA_XSP16, literal(-1)))
          CFI DPL0 load(1, XDATA, add(CFA_XSP16, literal(-2)))
          CFI ?BRET_EXT load(1, XDATA, add(CFA_XSP16, literal(-3)))
          CFI ?RET_HIGH load(1, XDATA, add(CFA_XSP16, literal(-4)))
          CFI ?RET_LOW load(1, XDATA, add(CFA_XSP16, literal(-5)))
          CFI R7 load(1, XDATA, add(CFA_XSP16, literal(-6)))
          CFI V0 load(1, XDATA, add(CFA_XSP16, literal(-7)))
          CFI VB load(1, XDATA, add(CFA_XSP16, literal(-8)))
          CFI R6 load(1, XDATA, add(CFA_XSP16, literal(-9)))
          CFI CFA_SP SP+0
          CFI CFA_XSP16 add(XSP16, 9)
        ; Saved register size: 9
        ; Auto size: 0
        MOV     A,R2
        MOV     R4,A
        MOV     A,R3
        MOV     R5,A
        MOV     A,R1
//  373   /* Send out Reset Response message */
//  374   MT_BuildAndSendZToolResponse( ((uint8)MT_RPC_CMD_SRSP | (uint8)MT_RPC_SYS_APP), MT_APP_RSP, len, pData );
        ; Setup parameters for call to function MT_BuildAndSendZToolResponse
        MOV     R3,A
        MOV     R2,#-0x80
        MOV     R1,#0x69
        LCALL   `??MT_BuildAndSendZToolResponse::?relay`; Banked call to: MT_BuildAndSendZToolResponse
//  375 }
        LJMP    ?Subroutine0 & 0xFFFF
          CFI EndBlock cfiBlock4
//  376 
//  377 
//  378 /***************************************************************************************************
//  379  * @fn      MT_ReverseBytes
//  380  *
//  381  * @brief
//  382  *
//  383  *   Reverses bytes within an array
//  384  *
//  385  * @param   data - ptr to data buffer to reverse
//  386  * @param    len - number of bytes in buffer
//  387  *
//  388  * @return  void
//  389  ***************************************************************************************************/

        RSEG BANKED_CODE:CODE:NOROOT(0)
//  390 void MT_ReverseBytes( byte *pData, byte len )
MT_ReverseBytes:
          CFI Block cfiBlock5 Using cfiCommon0
          CFI Function MT_ReverseBytes
        CODE
//  391 {
        REQUIRE ?V0
        REQUIRE ?V1
        REQUIRE ?V2
        MOV     A,#-0xb
        LCALL   ?BANKED_ENTER_XDATA
          CFI DPH0 load(1, XDATA, add(CFA_XSP16, literal(-1)))
          CFI DPL0 load(1, XDATA, add(CFA_XSP16, literal(-2)))
          CFI ?BRET_EXT load(1, XDATA, add(CFA_XSP16, literal(-3)))
          CFI ?RET_HIGH load(1, XDATA, add(CFA_XSP16, literal(-4)))
          CFI ?RET_LOW load(1, XDATA, add(CFA_XSP16, literal(-5)))
          CFI R7 load(1, XDATA, add(CFA_XSP16, literal(-6)))
          CFI V2 load(1, XDATA, add(CFA_XSP16, literal(-7)))
          CFI V1 load(1, XDATA, add(CFA_XSP16, literal(-8)))
          CFI V0 load(1, XDATA, add(CFA_XSP16, literal(-9)))
          CFI VB load(1, XDATA, add(CFA_XSP16, literal(-10)))
          CFI R6 load(1, XDATA, add(CFA_XSP16, literal(-11)))
          CFI CFA_SP SP+0
          CFI CFA_XSP16 add(XSP16, 11)
        ; Saved register size: 11
        ; Auto size: 0
        MOV     A,R1
        MOV     R6,A
//  392   byte i,j;
//  393   byte temp;
//  394 
//  395   for ( i = 0, j = len-1; len > 1; len-=2 )
        MOV     R7,#0x0
        MOV     A,#-0x1
        ADD     A,R1
        MOV     ?V0,A
        SJMP    ??MT_ReverseBytes_0
//  396   {
//  397     temp = pData[i];
??MT_ReverseBytes_1:
        MOV     A,R7
        MOV     R0,A
        MOV     A,R2
        ADD     A,R0
        MOV     R0,A
        CLR     A
        ADDC    A,R3
        MOV     R1,A
        MOV     A,R0
        MOV     R4,A
        MOV     A,R1
        MOV     R5,A
        MOV     DPL,R4
        MOV     DPH,R5
        MOVX    A,@DPTR
        MOV     ?V1,A
//  398     pData[i++] = pData[j];
        MOV     R0,?V0
        MOV     A,R2
        ADD     A,R0
        MOV     R0,A
        CLR     A
        ADDC    A,R3
        MOV     R1,A
        MOV     DPL,R0
        MOV     DPH,R1
        MOVX    A,@DPTR
        MOV     DPL,R4
        MOV     DPH,R5
        MOVX    @DPTR,A
        INC     R7
//  399     pData[j--] = temp;
        MOV     DPL,R0
        MOV     DPH,R1
        MOV     A,?V1
        MOVX    @DPTR,A
        DEC     ?V0
//  400   }
        DEC     R6
        DEC     R6
??MT_ReverseBytes_0:
        MOV     A,R6
        CLR     C
        SUBB    A,#0x2
        JNC     ??MT_ReverseBytes_1
//  401 }
        MOV     R7,#0x3
        LJMP    ?BANKED_LEAVE_XDATA
          CFI EndBlock cfiBlock5
//  402 
//  403 
//  404 /***************************************************************************************************
//  405  * @fn      MT_Word2Buf
//  406  *
//  407  * @brief   Copy a uint16 array to a byte array, little endian.
//  408  *
//  409  * @param   pBuf - byte array
//  410  * @param   pWord - uint16 array
//  411  * @param   len - length of uint16 array
//  412  *
//  413  * @return  pointer to end of byte array
//  414  ***************************************************************************************************/

        RSEG BANKED_CODE:CODE:NOROOT(0)
//  415 uint8 *MT_Word2Buf( uint8 *pBuf, uint16 *pWord, uint8 len )
MT_Word2Buf:
          CFI Block cfiBlock6 Using cfiCommon0
          CFI Function MT_Word2Buf
        CODE
//  416 {
        MOV     A,#-0x9
        LCALL   ?BANKED_ENTER_XDATA
          CFI DPH0 load(1, XDATA, add(CFA_XSP16, literal(-1)))
          CFI DPL0 load(1, XDATA, add(CFA_XSP16, literal(-2)))
          CFI ?BRET_EXT load(1, XDATA, add(CFA_XSP16, literal(-3)))
          CFI ?RET_HIGH load(1, XDATA, add(CFA_XSP16, literal(-4)))
          CFI ?RET_LOW load(1, XDATA, add(CFA_XSP16, literal(-5)))
          CFI R7 load(1, XDATA, add(CFA_XSP16, literal(-6)))
          CFI V0 load(1, XDATA, add(CFA_XSP16, literal(-7)))
          CFI VB load(1, XDATA, add(CFA_XSP16, literal(-8)))
          CFI R6 load(1, XDATA, add(CFA_XSP16, literal(-9)))
          CFI CFA_SP SP+0
          CFI CFA_XSP16 add(XSP16, 9)
        ; Saved register size: 9
        ; Auto size: 0
        SJMP    ??MT_Word2Buf_0
//  417   while ( len-- > 0 )
//  418   {
//  419     *pBuf++ = LO_UINT16( *pWord );
??MT_Word2Buf_1:
        MOV     DPL,R4
        MOV     DPH,R5
        MOVX    A,@DPTR
        MOV     DPL,R2
        MOV     DPH,R3
        MOVX    @DPTR,A
//  420     *pBuf++ = HI_UINT16( *pWord );
        MOV     DPL,R4
        MOV     DPH,R5
        INC     DPTR
        MOVX    A,@DPTR
        MOV     DPL,R2
        MOV     DPH,R3
        INC     DPTR
        MOVX    @DPTR,A
        MOV     A,R2
        ADD     A,#0x2
        MOV     R2,A
        JNC     ??MT_Word2Buf_2
        INC     R3
//  421     pWord++;
??MT_Word2Buf_2:
        MOV     A,R4
        ADD     A,#0x2
        MOV     R4,A
        JNC     ??MT_Word2Buf_0
        INC     R5
//  422   }
??MT_Word2Buf_0:
        MOV     A,R1
        MOV     R0,A
        MOV     A,#-0x1
        ADD     A,R0
        MOV     R1,A
        INC     A
        JNZ     ??MT_Word2Buf_1
//  423 
//  424   return pBuf;
        LJMP    ?Subroutine0 & 0xFFFF
//  425 }
          CFI EndBlock cfiBlock6
//  426 #if !defined(NONWK)
//  427 /***************************************************************************************************
//  428  * @fn      MT_BuildEndpointDesc
//  429  *
//  430  * @brief   Build endpoint descriptor and simple descriptor structure from incoming buffer
//  431  *
//  432  * @param   pBuf - byte array
//  433  *
//  434  * @return  epDesc - pointer to the endpoint descriptor
//  435  ***************************************************************************************************/

        RSEG BANKED_CODE:CODE:NOROOT(0)
//  436 uint8 MT_BuildEndpointDesc( uint8 *pBuf, void *param )
MT_BuildEndpointDesc:
          CFI Block cfiBlock7 Using cfiCommon0
          CFI Function MT_BuildEndpointDesc
        CODE
//  437 {
        FUNCALL MT_BuildEndpointDesc, afFindEndPointDesc
        LOCFRAME ISTACK, 0, STACK
        LOCFRAME PSTACK, 0, STACK
        LOCFRAME XSTACK, 15, STACK
        LOCFRAME IOVERLAY, 0, STATIC
        LOCFRAME DOVERLAY, 0, STATIC
        ARGFRAME ISTACK, 0, STACK
        ARGFRAME PSTACK, 0, STACK
        ARGFRAME XSTACK, 15, STACK
        ARGFRAME IOVERLAY, 0, STATIC
        ARGFRAME DOVERLAY, 0, STATIC
        FUNCALL MT_BuildEndpointDesc, osal_mem_alloc
        LOCFRAME ISTACK, 0, STACK
        LOCFRAME PSTACK, 0, STACK
        LOCFRAME XSTACK, 15, STACK
        LOCFRAME IOVERLAY, 0, STATIC
        LOCFRAME DOVERLAY, 0, STATIC
        ARGFRAME ISTACK, 0, STACK
        ARGFRAME PSTACK, 0, STACK
        ARGFRAME XSTACK, 15, STACK
        ARGFRAME IOVERLAY, 0, STATIC
        ARGFRAME DOVERLAY, 0, STATIC
        FUNCALL MT_BuildEndpointDesc, osal_mem_alloc
        LOCFRAME ISTACK, 0, STACK
        LOCFRAME PSTACK, 0, STACK
        LOCFRAME XSTACK, 15, STACK
        LOCFRAME IOVERLAY, 0, STATIC
        LOCFRAME DOVERLAY, 0, STATIC
        ARGFRAME ISTACK, 0, STACK
        ARGFRAME PSTACK, 0, STACK
        ARGFRAME XSTACK, 15, STACK
        ARGFRAME IOVERLAY, 0, STATIC
        ARGFRAME DOVERLAY, 0, STATIC
        FUNCALL MT_BuildEndpointDesc, osal_mem_alloc
        LOCFRAME ISTACK, 0, STACK
        LOCFRAME PSTACK, 0, STACK
        LOCFRAME XSTACK, 15, STACK
        LOCFRAME IOVERLAY, 0, STATIC
        LOCFRAME DOVERLAY, 0, STATIC
        ARGFRAME ISTACK, 0, STACK
        ARGFRAME PSTACK, 0, STACK
        ARGFRAME XSTACK, 15, STACK
        ARGFRAME IOVERLAY, 0, STATIC
        ARGFRAME DOVERLAY, 0, STATIC
        FUNCALL MT_BuildEndpointDesc, osal_mem_free
        LOCFRAME ISTACK, 0, STACK
        LOCFRAME PSTACK, 0, STACK
        LOCFRAME XSTACK, 15, STACK
        LOCFRAME IOVERLAY, 0, STATIC
        LOCFRAME DOVERLAY, 0, STATIC
        ARGFRAME ISTACK, 0, STACK
        ARGFRAME PSTACK, 0, STACK
        ARGFRAME XSTACK, 15, STACK
        ARGFRAME IOVERLAY, 0, STATIC
        ARGFRAME DOVERLAY, 0, STATIC
        FUNCALL MT_BuildEndpointDesc, osal_mem_free
        LOCFRAME ISTACK, 0, STACK
        LOCFRAME PSTACK, 0, STACK
        LOCFRAME XSTACK, 15, STACK
        LOCFRAME IOVERLAY, 0, STATIC
        LOCFRAME DOVERLAY, 0, STATIC
        ARGFRAME ISTACK, 0, STACK
        ARGFRAME PSTACK, 0, STACK
        ARGFRAME XSTACK, 15, STACK
        ARGFRAME IOVERLAY, 0, STATIC
        ARGFRAME DOVERLAY, 0, STATIC
        FUNCALL MT_BuildEndpointDesc, osal_mem_free
        LOCFRAME ISTACK, 0, STACK
        LOCFRAME PSTACK, 0, STACK
        LOCFRAME XSTACK, 15, STACK
        LOCFRAME IOVERLAY, 0, STATIC
        LOCFRAME DOVERLAY, 0, STATIC
        ARGFRAME ISTACK, 0, STACK
        ARGFRAME PSTACK, 0, STACK
        ARGFRAME XSTACK, 15, STACK
        ARGFRAME IOVERLAY, 0, STATIC
        ARGFRAME DOVERLAY, 0, STATIC
        REQUIRE ?V0
        REQUIRE ?V1
        REQUIRE ?V2
        REQUIRE ?V3
        REQUIRE ?V4
        REQUIRE ?V5
        REQUIRE ?V6
        MOV     A,#-0xf
        LCALL   ?BANKED_ENTER_XDATA
          CFI DPH0 load(1, XDATA, add(CFA_XSP16, literal(-1)))
          CFI DPL0 load(1, XDATA, add(CFA_XSP16, literal(-2)))
          CFI ?BRET_EXT load(1, XDATA, add(CFA_XSP16, literal(-3)))
          CFI ?RET_HIGH load(1, XDATA, add(CFA_XSP16, literal(-4)))
          CFI ?RET_LOW load(1, XDATA, add(CFA_XSP16, literal(-5)))
          CFI R7 load(1, XDATA, add(CFA_XSP16, literal(-6)))
          CFI V6 load(1, XDATA, add(CFA_XSP16, literal(-7)))
          CFI V5 load(1, XDATA, add(CFA_XSP16, literal(-8)))
          CFI V4 load(1, XDATA, add(CFA_XSP16, literal(-9)))
          CFI V3 load(1, XDATA, add(CFA_XSP16, literal(-10)))
          CFI V2 load(1, XDATA, add(CFA_XSP16, literal(-11)))
          CFI V1 load(1, XDATA, add(CFA_XSP16, literal(-12)))
          CFI V0 load(1, XDATA, add(CFA_XSP16, literal(-13)))
          CFI VB load(1, XDATA, add(CFA_XSP16, literal(-14)))
          CFI R6 load(1, XDATA, add(CFA_XSP16, literal(-15)))
          CFI CFA_SP SP+0
          CFI CFA_XSP16 add(XSP16, 15)
        ; Saved register size: 15
        ; Auto size: 0
        MOV     A,R2
        MOV     R6,A
        MOV     A,R3
        MOV     R7,A
        MOV     ?V2,R4
        MOV     ?V3,R5
//  438   uint8 i;
//  439   uint8 ret = ZSuccess;
        MOV     ?V6,#0x0
//  440   endPointDesc_t *epDesc;
//  441 
//  442   epDesc = (endPointDesc_t *)param;
//  443   /* check if this endpoint is already registered */
//  444   if ( afFindEndPointDesc( *pBuf ) != NULL )
        ; Setup parameters for call to function afFindEndPointDesc
        MOV     DPL,R6
        MOV     DPH,R7
        MOVX    A,@DPTR
        MOV     R1,A
        LCALL   `??afFindEndPointDesc::?relay`; Banked call to: afFindEndPointDesc
        MOV     ?V1,R3
        MOV     A,R2
        ORL     A,?V1
        JZ      ??MT_BuildEndpointDesc_0
//  445   {
//  446     ret = ZApsDuplicateEntry;
        MOV     ?V6,#-0x48
        LJMP    ??MT_BuildEndpointDesc_1 & 0xFFFF
//  447   }
//  448   else if ( epDesc )
??MT_BuildEndpointDesc_0:
        MOV     A,?V2
        ORL     A,?V3
        JNZ     $+5
        LJMP    ??MT_BuildEndpointDesc_1 & 0xFFFF
//  449   {
//  450     epDesc->endPoint = *pBuf;
        MOV     DPL,R6
        MOV     DPH,R7
        MOVX    A,@DPTR
        MOV     DPL,?V2
        MOV     DPH,?V3
        MOVX    @DPTR,A
//  451 
//  452     /* Ignore the latency reqs */
//  453     epDesc->latencyReq = noLatencyReqs;
        INC     DPTR
        INC     DPTR
        INC     DPTR
        INC     DPTR
        INC     DPTR
        CLR     A
        MOVX    @DPTR,A
//  454 
//  455     /* allocate memory for the simple descriptor */
//  456     epDesc->simpleDesc = (SimpleDescriptionFormat_t *) osal_mem_alloc(sizeof(SimpleDescriptionFormat_t));
        ; Setup parameters for call to function osal_mem_alloc
        MOV     R2,#0xc
        MOV     R3,A
        LCALL   `??osal_mem_alloc::?relay`; Banked call to: osal_mem_alloc
        MOV     ?V0,R2
        MOV     ?V1,R3
        MOV     R0,?V0
        MOV     R1,?V1
        MOV     A,?V2
        ADD     A,#0x3
        MOV     ?V0,A
        CLR     A
        ADDC    A,?V3
        MOV     ?V1,A
        MOV     DPL,?V0
        MOV     DPH,A
        MOV     A,R0
        MOVX    @DPTR,A
        INC     DPTR
        MOV     A,R1
        MOVX    @DPTR,A
//  457     if (epDesc->simpleDesc)
        MOV     A,R0
        ORL     A,R1
        JNZ     $+5
        LJMP    ??MT_BuildEndpointDesc_2 & 0xFFFF
//  458     {
//  459       /* Endpoint */
//  460       epDesc->simpleDesc->EndPoint = *pBuf++;
        MOV     DPL,R6
        MOV     DPH,R7
        MOVX    A,@DPTR
        PUSH    A
          CFI CFA_SP SP+-1
        LCALL   ?Subroutine13 & 0xFFFF
??CrossCallReturnLabel_17:
        POP     A
          CFI CFA_SP SP+0
        LCALL   ?Subroutine3 & 0xFFFF
//  461 
//  462       /* AppProfId */
//  463       epDesc->simpleDesc->AppProfId = BUILD_UINT16(pBuf[0], pBuf[1]);
??CrossCallReturnLabel_5:
        LCALL   ?Subroutine7 & 0xFFFF
??CrossCallReturnLabel_11:
        MOV     A,R2
        MOVX    @DPTR,A
        INC     DPTR
        MOV     A,R3
        MOVX    @DPTR,A
//  464       pBuf += sizeof(uint16);
        MOV     A,R6
        ADD     A,#0x2
        MOV     R6,A
        JNC     ??MT_BuildEndpointDesc_3
        INC     R7
//  465 
//  466       /* AppDeviceId */
//  467       epDesc->simpleDesc->AppDeviceId = BUILD_UINT16(pBuf[0],pBuf[1]);
??MT_BuildEndpointDesc_3:
        MOV     DPL,R6
        MOV     DPH,R7
        LCALL   ?Subroutine7 & 0xFFFF
??CrossCallReturnLabel_12:
        INC     DPTR
        INC     DPTR
        MOV     A,R2
        MOVX    @DPTR,A
        INC     DPTR
        MOV     A,R3
        LCALL   ?Subroutine2 & 0xFFFF
//  468       pBuf += sizeof(uint16);
//  469 
//  470       /* AppDevVer */
//  471       epDesc->simpleDesc->AppDevVer = (*pBuf++) & AF_APP_DEV_VER_MASK ;
??CrossCallReturnLabel_3:
        MOVX    A,@DPTR
        ANL     A,#0xf
        MOV     R2,A
        MOV     DPL,?V0
        MOV     DPH,?V1
        MOVX    A,@DPTR
        ADD     A,#0x5
        MOV     R0,A
        INC     DPTR
        MOVX    A,@DPTR
        ADDC    A,#0x0
        MOV     R1,A
        MOV     DPL,R0
        MOV     DPH,R1
        MOVX    A,@DPTR
        ANL     A,#0xf0
        MOVX    @DPTR,A
        ORL     A,R2
        LCALL   ?Subroutine2 & 0xFFFF
//  472 
//  473       /* LatencyReq */
//  474       pBuf++;
//  475 
//  476       /* AppNumInClusters */
//  477       epDesc->simpleDesc->AppNumInClusters = *pBuf++;
??CrossCallReturnLabel_4:
        INC     DPTR
        INC     DPTR
        MOVX    A,@DPTR
        PUSH    A
          CFI CFA_SP SP+-1
        LCALL   ?Subroutine10 & 0xFFFF
??CrossCallReturnLabel_20:
        LCALL   ?Subroutine14 & 0xFFFF
??CrossCallReturnLabel_27:
        POP     A
          CFI CFA_SP SP+0
        MOVX    @DPTR,A
        MOV     A,R6
        ADD     A,#0x5
        MOV     R6,A
        JNC     ??MT_BuildEndpointDesc_4
        INC     R7
//  478       if (epDesc->simpleDesc->AppNumInClusters)
??MT_BuildEndpointDesc_4:
        LCALL   ?Subroutine8 & 0xFFFF
??CrossCallReturnLabel_25:
        JZ      ??MT_BuildEndpointDesc_5
//  479       {
//  480         epDesc->simpleDesc->pAppInClusterList = (uint16 *)
//  481                   osal_mem_alloc((epDesc->simpleDesc->AppNumInClusters)*sizeof(uint16));
        ; Setup parameters for call to function osal_mem_alloc
        LCALL   ?Subroutine8 & 0xFFFF
??CrossCallReturnLabel_26:
        ADD     A,0xE0 /* A   */
        MOV     R2,A
        CLR     A
        RLC     A
        MOV     R3,A
        LCALL   `??osal_mem_alloc::?relay`; Banked call to: osal_mem_alloc
        LCALL   ?Subroutine10 & 0xFFFF
??CrossCallReturnLabel_21:
        ADD     A,#0x7
        LCALL   ?Subroutine1 & 0xFFFF
//  482         if ( epDesc->simpleDesc->pAppInClusterList )
??CrossCallReturnLabel_0:
        ADD     A,#0x7
        LCALL   ?Subroutine11 & 0xFFFF
??CrossCallReturnLabel_15:
        JZ      ??MT_BuildEndpointDesc_6
//  483         {
//  484           for (i=0; i<(epDesc->simpleDesc->AppNumInClusters); i++)
        MOV     R3,#0x0
??MT_BuildEndpointDesc_7:
        MOV     DPL,?V2
        MOV     DPH,?V3
        INC     DPTR
        INC     DPTR
        INC     DPTR
        LCALL   ??Subroutine17_0 & 0xFFFF
??CrossCallReturnLabel_24:
        MOV     R0,A
        MOV     A,R3
        CLR     C
        SUBB    A,R0
        JNC     ??MT_BuildEndpointDesc_5
//  485           {
//  486             epDesc->simpleDesc->pAppInClusterList[i] = BUILD_UINT16(*pBuf, *(pBuf+1));
        LCALL   ?Subroutine6 & 0xFFFF
//  487             pBuf += 2;
//  488           }
??CrossCallReturnLabel_9:
        ADD     A,#0x7
        LCALL   ?Subroutine4 & 0xFFFF
??CrossCallReturnLabel_7:
        JNC     ??MT_BuildEndpointDesc_8
        INC     R7
??MT_BuildEndpointDesc_8:
        INC     R3
        SJMP    ??MT_BuildEndpointDesc_7
//  489         }
//  490         else
//  491         {
//  492           ret = ZMemError;
??MT_BuildEndpointDesc_6:
        MOV     ?V6,#0x10
//  493         }
//  494       }
//  495 
//  496       /* AppNumOutClusters */
//  497       epDesc->simpleDesc->AppNumOutClusters = *pBuf++;
??MT_BuildEndpointDesc_5:
        MOV     DPL,R6
        MOV     DPH,R7
        MOVX    A,@DPTR
        PUSH    A
          CFI CFA_SP SP+-1
        LCALL   ?Subroutine10 & 0xFFFF
??CrossCallReturnLabel_22:
        LCALL   ?Subroutine15 & 0xFFFF
??CrossCallReturnLabel_38:
        POP     A
          CFI CFA_SP SP+0
        LCALL   ?Subroutine3 & 0xFFFF
//  498       if (epDesc->simpleDesc->AppNumOutClusters)
??CrossCallReturnLabel_6:
        MOV     DPL,?V0
        MOV     DPH,?V1
        LCALL   ??Subroutine18_0 & 0xFFFF
??CrossCallReturnLabel_29:
        JZ      ??MT_BuildEndpointDesc_9
//  499       {
//  500         epDesc->simpleDesc->pAppOutClusterList = (uint16 *)
//  501                           osal_mem_alloc((epDesc->simpleDesc->AppNumOutClusters)*sizeof(uint16));
        ; Setup parameters for call to function osal_mem_alloc
        MOV     DPL,?V0
        MOV     DPH,?V1
        LCALL   ??Subroutine18_0 & 0xFFFF
??CrossCallReturnLabel_30:
        ADD     A,0xE0 /* A   */
        MOV     R2,A
        CLR     A
        RLC     A
        MOV     R3,A
        LCALL   `??osal_mem_alloc::?relay`; Banked call to: osal_mem_alloc
        LCALL   ?Subroutine10 & 0xFFFF
??CrossCallReturnLabel_23:
        ADD     A,#0xa
        LCALL   ?Subroutine1 & 0xFFFF
//  502         if (epDesc->simpleDesc->pAppOutClusterList)
??CrossCallReturnLabel_1:
        ADD     A,#0xa
        LCALL   ?Subroutine11 & 0xFFFF
??CrossCallReturnLabel_16:
        JZ      ??MT_BuildEndpointDesc_10
//  503         {
//  504           for (i=0; i<(epDesc->simpleDesc->AppNumOutClusters); i++)
        MOV     R3,#0x0
??MT_BuildEndpointDesc_11:
        LCALL   ?Subroutine5 & 0xFFFF
??CrossCallReturnLabel_31:
        MOV     R0,A
        MOV     A,R3
        CLR     C
        SUBB    A,R0
        JNC     ??MT_BuildEndpointDesc_9
//  505           {
//  506             epDesc->simpleDesc->pAppOutClusterList[i] = BUILD_UINT16(*pBuf, *(pBuf+1));
        LCALL   ?Subroutine6 & 0xFFFF
//  507             pBuf += 2;
//  508           }
??CrossCallReturnLabel_10:
        ADD     A,#0xa
        LCALL   ?Subroutine4 & 0xFFFF
??CrossCallReturnLabel_8:
        JNC     ??MT_BuildEndpointDesc_12
        INC     R7
??MT_BuildEndpointDesc_12:
        INC     R3
        SJMP    ??MT_BuildEndpointDesc_11
//  509         }
//  510         else
//  511         {
//  512           ret = ZMemError;
??MT_BuildEndpointDesc_10:
        MOV     ?V6,#0x10
        SJMP    ??MT_BuildEndpointDesc_13
//  513         }
//  514       }
//  515 
//  516       /* if any list cannot be allocated...free all */
//  517       if ( ret == ZMemError )
??MT_BuildEndpointDesc_9:
        MOV     A,#0x10
        XRL     A,?V6
        JNZ     ??MT_BuildEndpointDesc_1
//  518       {
//  519         if (epDesc->simpleDesc->pAppInClusterList)
??MT_BuildEndpointDesc_13:
        LCALL   ?Subroutine9 & 0xFFFF
??CrossCallReturnLabel_13:
        MOV     R0,A
        INC     DPTR
        MOVX    A,@DPTR
        MOV     R1,A
        MOV     A,R0
        ORL     A,R1
        JZ      ??MT_BuildEndpointDesc_14
//  520         {
//  521           osal_mem_free(epDesc->simpleDesc->pAppInClusterList);
        ; Setup parameters for call to function osal_mem_free
        LCALL   ?Subroutine9 & 0xFFFF
//  522         }
??CrossCallReturnLabel_14:
        MOV     R2,A
        INC     DPTR
        MOVX    A,@DPTR
        MOV     R3,A
        LCALL   `??osal_mem_free::?relay`; Banked call to: osal_mem_free
//  523 
//  524         if (epDesc->simpleDesc->AppNumOutClusters)
??MT_BuildEndpointDesc_14:
        LCALL   ?Subroutine5 & 0xFFFF
??CrossCallReturnLabel_32:
        JZ      ??MT_BuildEndpointDesc_15
//  525         {
//  526           osal_mem_free(epDesc->simpleDesc->pAppOutClusterList);
        ; Setup parameters for call to function osal_mem_free
        MOV     DPL,?V2
        MOV     DPH,?V3
        INC     DPTR
        INC     DPTR
        INC     DPTR
        LCALL   ??Subroutine16_0 & 0xFFFF
//  527         }
??CrossCallReturnLabel_19:
        ADD     A,#0xa
        MOV     DPL,A
        CLR     A
        ADDC    A,R0
        MOV     DPH,A
        MOVX    A,@DPTR
        MOV     R2,A
        INC     DPTR
        MOVX    A,@DPTR
        MOV     R3,A
        LCALL   `??osal_mem_free::?relay`; Banked call to: osal_mem_free
//  528 
//  529         osal_mem_free(epDesc->simpleDesc);
??MT_BuildEndpointDesc_15:
        ; Setup parameters for call to function osal_mem_free
        MOV     DPL,?V2
        MOV     DPH,?V3
        INC     DPTR
        INC     DPTR
        INC     DPTR
        MOVX    A,@DPTR
        MOV     R2,A
        INC     DPTR
        MOVX    A,@DPTR
        MOV     R3,A
        LCALL   `??osal_mem_free::?relay`; Banked call to: osal_mem_free
        SJMP    ??MT_BuildEndpointDesc_1
//  530       }
//  531     }
//  532     else
//  533     {
//  534       ret = ZMemError;
??MT_BuildEndpointDesc_2:
        MOV     ?V6,#0x10
//  535     }
//  536   }
//  537 
//  538   return ret;
??MT_BuildEndpointDesc_1:
        MOV     R1,?V6
        MOV     R7,#0x7
        LJMP    ?BANKED_LEAVE_XDATA
//  539 }
          CFI EndBlock cfiBlock7

        RSEG BANKED_CODE:CODE:NOROOT(0)
?Subroutine11:
          CFI Block cfiCond8 Using cfiCommon0
          CFI Function MT_BuildEndpointDesc
          CFI Conditional ??CrossCallReturnLabel_15
          CFI R6 load(1, XDATA, add(CFA_XSP16, literal(-15)))
          CFI VB load(1, XDATA, add(CFA_XSP16, literal(-14)))
          CFI V0 load(1, XDATA, add(CFA_XSP16, literal(-13)))
          CFI V1 load(1, XDATA, add(CFA_XSP16, literal(-12)))
          CFI V2 load(1, XDATA, add(CFA_XSP16, literal(-11)))
          CFI V3 load(1, XDATA, add(CFA_XSP16, literal(-10)))
          CFI V4 load(1, XDATA, add(CFA_XSP16, literal(-9)))
          CFI V5 load(1, XDATA, add(CFA_XSP16, literal(-8)))
          CFI V6 load(1, XDATA, add(CFA_XSP16, literal(-7)))
          CFI R7 load(1, XDATA, add(CFA_XSP16, literal(-6)))
          CFI ?RET_LOW load(1, XDATA, add(CFA_XSP16, literal(-5)))
          CFI ?RET_HIGH load(1, XDATA, add(CFA_XSP16, literal(-4)))
          CFI ?BRET_EXT load(1, XDATA, add(CFA_XSP16, literal(-3)))
          CFI DPL0 load(1, XDATA, add(CFA_XSP16, literal(-2)))
          CFI DPH0 load(1, XDATA, add(CFA_XSP16, literal(-1)))
          CFI CFA_SP SP+-2
          CFI CFA_XSP16 add(XSP16, 15)
          CFI Block cfiCond9 Using cfiCommon0
          CFI (cfiCond9) Function MT_BuildEndpointDesc
          CFI (cfiCond9) Conditional ??CrossCallReturnLabel_16
          CFI (cfiCond9) R6 load(1, XDATA, add(CFA_XSP16, literal(-15)))
          CFI (cfiCond9) VB load(1, XDATA, add(CFA_XSP16, literal(-14)))
          CFI (cfiCond9) V0 load(1, XDATA, add(CFA_XSP16, literal(-13)))
          CFI (cfiCond9) V1 load(1, XDATA, add(CFA_XSP16, literal(-12)))
          CFI (cfiCond9) V2 load(1, XDATA, add(CFA_XSP16, literal(-11)))
          CFI (cfiCond9) V3 load(1, XDATA, add(CFA_XSP16, literal(-10)))
          CFI (cfiCond9) V4 load(1, XDATA, add(CFA_XSP16, literal(-9)))
          CFI (cfiCond9) V5 load(1, XDATA, add(CFA_XSP16, literal(-8)))
          CFI (cfiCond9) V6 load(1, XDATA, add(CFA_XSP16, literal(-7)))
          CFI (cfiCond9) R7 load(1, XDATA, add(CFA_XSP16, literal(-6)))
          CFI (cfiCond9) ?RET_LOW load(1, XDATA, add(CFA_XSP16, literal(-5)))
          CFI (cfiCond9) ?RET_HIGH load(1, XDATA, add(CFA_XSP16, literal(-4)))
          CFI (cfiCond9) ?BRET_EXT load(1, XDATA, add(CFA_XSP16, literal(-3)))
          CFI (cfiCond9) DPL0 load(1, XDATA, add(CFA_XSP16, literal(-2)))
          CFI (cfiCond9) DPH0 load(1, XDATA, add(CFA_XSP16, literal(-1)))
          CFI (cfiCond9) CFA_SP SP+-2
          CFI (cfiCond9) CFA_XSP16 add(XSP16, 15)
          CFI Block cfiPicker10 Using cfiCommon1
          CFI (cfiPicker10) NoFunction
          CFI (cfiPicker10) Picker
        MOV     DPL,A
        CLR     A
        ADDC    A,R0
        MOV     DPH,A
        MOVX    A,@DPTR
        MOV     R0,A
        INC     DPTR
        MOVX    A,@DPTR
        MOV     R1,A
        MOV     A,R0
        ORL     A,R1
        RET
          CFI EndBlock cfiCond8
          CFI EndBlock cfiCond9
          CFI EndBlock cfiPicker10

        RSEG BANKED_CODE:CODE:NOROOT(0)
?Subroutine10:
          CFI Block cfiCond11 Using cfiCommon0
          CFI Function MT_BuildEndpointDesc
          CFI Conditional ??CrossCallReturnLabel_20
          CFI R6 load(1, XDATA, add(CFA_XSP16, literal(-15)))
          CFI VB load(1, XDATA, add(CFA_XSP16, literal(-14)))
          CFI V0 load(1, XDATA, add(CFA_XSP16, literal(-13)))
          CFI V1 load(1, XDATA, add(CFA_XSP16, literal(-12)))
          CFI V2 load(1, XDATA, add(CFA_XSP16, literal(-11)))
          CFI V3 load(1, XDATA, add(CFA_XSP16, literal(-10)))
          CFI V4 load(1, XDATA, add(CFA_XSP16, literal(-9)))
          CFI V5 load(1, XDATA, add(CFA_XSP16, literal(-8)))
          CFI V6 load(1, XDATA, add(CFA_XSP16, literal(-7)))
          CFI R7 load(1, XDATA, add(CFA_XSP16, literal(-6)))
          CFI ?RET_LOW load(1, XDATA, add(CFA_XSP16, literal(-5)))
          CFI ?RET_HIGH load(1, XDATA, add(CFA_XSP16, literal(-4)))
          CFI ?BRET_EXT load(1, XDATA, add(CFA_XSP16, literal(-3)))
          CFI DPL0 load(1, XDATA, add(CFA_XSP16, literal(-2)))
          CFI DPH0 load(1, XDATA, add(CFA_XSP16, literal(-1)))
          CFI CFA_XSP16 add(XSP16, 15)
          CFI Block cfiCond12 Using cfiCommon0
          CFI (cfiCond12) Function MT_BuildEndpointDesc
          CFI (cfiCond12) Conditional ??CrossCallReturnLabel_21
          CFI (cfiCond12) R6 load(1, XDATA, add(CFA_XSP16, literal(-15)))
          CFI (cfiCond12) VB load(1, XDATA, add(CFA_XSP16, literal(-14)))
          CFI (cfiCond12) V0 load(1, XDATA, add(CFA_XSP16, literal(-13)))
          CFI (cfiCond12) V1 load(1, XDATA, add(CFA_XSP16, literal(-12)))
          CFI (cfiCond12) V2 load(1, XDATA, add(CFA_XSP16, literal(-11)))
          CFI (cfiCond12) V3 load(1, XDATA, add(CFA_XSP16, literal(-10)))
          CFI (cfiCond12) V4 load(1, XDATA, add(CFA_XSP16, literal(-9)))
          CFI (cfiCond12) V5 load(1, XDATA, add(CFA_XSP16, literal(-8)))
          CFI (cfiCond12) V6 load(1, XDATA, add(CFA_XSP16, literal(-7)))
          CFI (cfiCond12) R7 load(1, XDATA, add(CFA_XSP16, literal(-6)))
          CFI (cfiCond12) ?RET_LOW load(1, XDATA, add(CFA_XSP16, literal(-5)))
          CFI (cfiCond12) ?RET_HIGH load(1, XDATA, add(CFA_XSP16, literal(-4)))
          CFI (cfiCond12) ?BRET_EXT load(1, XDATA, add(CFA_XSP16, literal(-3)))
          CFI (cfiCond12) DPL0 load(1, XDATA, add(CFA_XSP16, literal(-2)))
          CFI (cfiCond12) DPH0 load(1, XDATA, add(CFA_XSP16, literal(-1)))
          CFI (cfiCond12) CFA_SP SP+-2
          CFI (cfiCond12) CFA_XSP16 add(XSP16, 15)
          CFI Block cfiCond13 Using cfiCommon0
          CFI (cfiCond13) Function MT_BuildEndpointDesc
          CFI (cfiCond13) Conditional ??CrossCallReturnLabel_22
          CFI (cfiCond13) R6 load(1, XDATA, add(CFA_XSP16, literal(-15)))
          CFI (cfiCond13) VB load(1, XDATA, add(CFA_XSP16, literal(-14)))
          CFI (cfiCond13) V0 load(1, XDATA, add(CFA_XSP16, literal(-13)))
          CFI (cfiCond13) V1 load(1, XDATA, add(CFA_XSP16, literal(-12)))
          CFI (cfiCond13) V2 load(1, XDATA, add(CFA_XSP16, literal(-11)))
          CFI (cfiCond13) V3 load(1, XDATA, add(CFA_XSP16, literal(-10)))
          CFI (cfiCond13) V4 load(1, XDATA, add(CFA_XSP16, literal(-9)))
          CFI (cfiCond13) V5 load(1, XDATA, add(CFA_XSP16, literal(-8)))
          CFI (cfiCond13) V6 load(1, XDATA, add(CFA_XSP16, literal(-7)))
          CFI (cfiCond13) R7 load(1, XDATA, add(CFA_XSP16, literal(-6)))
          CFI (cfiCond13) ?RET_LOW load(1, XDATA, add(CFA_XSP16, literal(-5)))
          CFI (cfiCond13) ?RET_HIGH load(1, XDATA, add(CFA_XSP16, literal(-4)))
          CFI (cfiCond13) ?BRET_EXT load(1, XDATA, add(CFA_XSP16, literal(-3)))
          CFI (cfiCond13) DPL0 load(1, XDATA, add(CFA_XSP16, literal(-2)))
          CFI (cfiCond13) DPH0 load(1, XDATA, add(CFA_XSP16, literal(-1)))
          CFI (cfiCond13) CFA_XSP16 add(XSP16, 15)
          CFI Block cfiCond14 Using cfiCommon0
          CFI (cfiCond14) Function MT_BuildEndpointDesc
          CFI (cfiCond14) Conditional ??CrossCallReturnLabel_23
          CFI (cfiCond14) R6 load(1, XDATA, add(CFA_XSP16, literal(-15)))
          CFI (cfiCond14) VB load(1, XDATA, add(CFA_XSP16, literal(-14)))
          CFI (cfiCond14) V0 load(1, XDATA, add(CFA_XSP16, literal(-13)))
          CFI (cfiCond14) V1 load(1, XDATA, add(CFA_XSP16, literal(-12)))
          CFI (cfiCond14) V2 load(1, XDATA, add(CFA_XSP16, literal(-11)))
          CFI (cfiCond14) V3 load(1, XDATA, add(CFA_XSP16, literal(-10)))
          CFI (cfiCond14) V4 load(1, XDATA, add(CFA_XSP16, literal(-9)))
          CFI (cfiCond14) V5 load(1, XDATA, add(CFA_XSP16, literal(-8)))
          CFI (cfiCond14) V6 load(1, XDATA, add(CFA_XSP16, literal(-7)))
          CFI (cfiCond14) R7 load(1, XDATA, add(CFA_XSP16, literal(-6)))
          CFI (cfiCond14) ?RET_LOW load(1, XDATA, add(CFA_XSP16, literal(-5)))
          CFI (cfiCond14) ?RET_HIGH load(1, XDATA, add(CFA_XSP16, literal(-4)))
          CFI (cfiCond14) ?BRET_EXT load(1, XDATA, add(CFA_XSP16, literal(-3)))
          CFI (cfiCond14) DPL0 load(1, XDATA, add(CFA_XSP16, literal(-2)))
          CFI (cfiCond14) DPH0 load(1, XDATA, add(CFA_XSP16, literal(-1)))
          CFI (cfiCond14) CFA_SP SP+-2
          CFI (cfiCond14) CFA_XSP16 add(XSP16, 15)
          CFI Block cfiPicker15 Using cfiCommon1
          CFI (cfiPicker15) NoFunction
          CFI (cfiPicker15) Picker
        MOV     DPL,?V0
        MOV     DPH,?V1
          CFI EndBlock cfiCond11
          CFI EndBlock cfiCond12
          CFI EndBlock cfiCond13
          CFI EndBlock cfiCond14
          CFI EndBlock cfiPicker15
        REQUIRE ??Subroutine16_0
        ; // Fall through to label ??Subroutine16_0

        RSEG BANKED_CODE:CODE:NOROOT(0)
??Subroutine16_0:
          CFI Block cfiCond16 Using cfiCommon0
          CFI Function MT_BuildEndpointDesc
          CFI Conditional ??CrossCallReturnLabel_19
          CFI R6 load(1, XDATA, add(CFA_XSP16, literal(-15)))
          CFI VB load(1, XDATA, add(CFA_XSP16, literal(-14)))
          CFI V0 load(1, XDATA, add(CFA_XSP16, literal(-13)))
          CFI V1 load(1, XDATA, add(CFA_XSP16, literal(-12)))
          CFI V2 load(1, XDATA, add(CFA_XSP16, literal(-11)))
          CFI V3 load(1, XDATA, add(CFA_XSP16, literal(-10)))
          CFI V4 load(1, XDATA, add(CFA_XSP16, literal(-9)))
          CFI V5 load(1, XDATA, add(CFA_XSP16, literal(-8)))
          CFI V6 load(1, XDATA, add(CFA_XSP16, literal(-7)))
          CFI R7 load(1, XDATA, add(CFA_XSP16, literal(-6)))
          CFI ?RET_LOW load(1, XDATA, add(CFA_XSP16, literal(-5)))
          CFI ?RET_HIGH load(1, XDATA, add(CFA_XSP16, literal(-4)))
          CFI ?BRET_EXT load(1, XDATA, add(CFA_XSP16, literal(-3)))
          CFI DPL0 load(1, XDATA, add(CFA_XSP16, literal(-2)))
          CFI DPH0 load(1, XDATA, add(CFA_XSP16, literal(-1)))
          CFI CFA_SP SP+-2
          CFI CFA_XSP16 add(XSP16, 15)
          CFI Block cfiCond17 Using cfiCommon0
          CFI (cfiCond17) Function MT_BuildEndpointDesc
          CFI (cfiCond17) Conditional ??CrossCallReturnLabel_20
          CFI (cfiCond17) R6 load(1, XDATA, add(CFA_XSP16, literal(-15)))
          CFI (cfiCond17) VB load(1, XDATA, add(CFA_XSP16, literal(-14)))
          CFI (cfiCond17) V0 load(1, XDATA, add(CFA_XSP16, literal(-13)))
          CFI (cfiCond17) V1 load(1, XDATA, add(CFA_XSP16, literal(-12)))
          CFI (cfiCond17) V2 load(1, XDATA, add(CFA_XSP16, literal(-11)))
          CFI (cfiCond17) V3 load(1, XDATA, add(CFA_XSP16, literal(-10)))
          CFI (cfiCond17) V4 load(1, XDATA, add(CFA_XSP16, literal(-9)))
          CFI (cfiCond17) V5 load(1, XDATA, add(CFA_XSP16, literal(-8)))
          CFI (cfiCond17) V6 load(1, XDATA, add(CFA_XSP16, literal(-7)))
          CFI (cfiCond17) R7 load(1, XDATA, add(CFA_XSP16, literal(-6)))
          CFI (cfiCond17) ?RET_LOW load(1, XDATA, add(CFA_XSP16, literal(-5)))
          CFI (cfiCond17) ?RET_HIGH load(1, XDATA, add(CFA_XSP16, literal(-4)))
          CFI (cfiCond17) ?BRET_EXT load(1, XDATA, add(CFA_XSP16, literal(-3)))
          CFI (cfiCond17) DPL0 load(1, XDATA, add(CFA_XSP16, literal(-2)))
          CFI (cfiCond17) DPH0 load(1, XDATA, add(CFA_XSP16, literal(-1)))
          CFI (cfiCond17) CFA_XSP16 add(XSP16, 15)
          CFI Block cfiCond18 Using cfiCommon0
          CFI (cfiCond18) Function MT_BuildEndpointDesc
          CFI (cfiCond18) Conditional ??CrossCallReturnLabel_21
          CFI (cfiCond18) R6 load(1, XDATA, add(CFA_XSP16, literal(-15)))
          CFI (cfiCond18) VB load(1, XDATA, add(CFA_XSP16, literal(-14)))
          CFI (cfiCond18) V0 load(1, XDATA, add(CFA_XSP16, literal(-13)))
          CFI (cfiCond18) V1 load(1, XDATA, add(CFA_XSP16, literal(-12)))
          CFI (cfiCond18) V2 load(1, XDATA, add(CFA_XSP16, literal(-11)))
          CFI (cfiCond18) V3 load(1, XDATA, add(CFA_XSP16, literal(-10)))
          CFI (cfiCond18) V4 load(1, XDATA, add(CFA_XSP16, literal(-9)))
          CFI (cfiCond18) V5 load(1, XDATA, add(CFA_XSP16, literal(-8)))
          CFI (cfiCond18) V6 load(1, XDATA, add(CFA_XSP16, literal(-7)))
          CFI (cfiCond18) R7 load(1, XDATA, add(CFA_XSP16, literal(-6)))
          CFI (cfiCond18) ?RET_LOW load(1, XDATA, add(CFA_XSP16, literal(-5)))
          CFI (cfiCond18) ?RET_HIGH load(1, XDATA, add(CFA_XSP16, literal(-4)))
          CFI (cfiCond18) ?BRET_EXT load(1, XDATA, add(CFA_XSP16, literal(-3)))
          CFI (cfiCond18) DPL0 load(1, XDATA, add(CFA_XSP16, literal(-2)))
          CFI (cfiCond18) DPH0 load(1, XDATA, add(CFA_XSP16, literal(-1)))
          CFI (cfiCond18) CFA_SP SP+-2
          CFI (cfiCond18) CFA_XSP16 add(XSP16, 15)
          CFI Block cfiCond19 Using cfiCommon0
          CFI (cfiCond19) Function MT_BuildEndpointDesc
          CFI (cfiCond19) Conditional ??CrossCallReturnLabel_22
          CFI (cfiCond19) R6 load(1, XDATA, add(CFA_XSP16, literal(-15)))
          CFI (cfiCond19) VB load(1, XDATA, add(CFA_XSP16, literal(-14)))
          CFI (cfiCond19) V0 load(1, XDATA, add(CFA_XSP16, literal(-13)))
          CFI (cfiCond19) V1 load(1, XDATA, add(CFA_XSP16, literal(-12)))
          CFI (cfiCond19) V2 load(1, XDATA, add(CFA_XSP16, literal(-11)))
          CFI (cfiCond19) V3 load(1, XDATA, add(CFA_XSP16, literal(-10)))
          CFI (cfiCond19) V4 load(1, XDATA, add(CFA_XSP16, literal(-9)))
          CFI (cfiCond19) V5 load(1, XDATA, add(CFA_XSP16, literal(-8)))
          CFI (cfiCond19) V6 load(1, XDATA, add(CFA_XSP16, literal(-7)))
          CFI (cfiCond19) R7 load(1, XDATA, add(CFA_XSP16, literal(-6)))
          CFI (cfiCond19) ?RET_LOW load(1, XDATA, add(CFA_XSP16, literal(-5)))
          CFI (cfiCond19) ?RET_HIGH load(1, XDATA, add(CFA_XSP16, literal(-4)))
          CFI (cfiCond19) ?BRET_EXT load(1, XDATA, add(CFA_XSP16, literal(-3)))
          CFI (cfiCond19) DPL0 load(1, XDATA, add(CFA_XSP16, literal(-2)))
          CFI (cfiCond19) DPH0 load(1, XDATA, add(CFA_XSP16, literal(-1)))
          CFI (cfiCond19) CFA_XSP16 add(XSP16, 15)
          CFI Block cfiCond20 Using cfiCommon0
          CFI (cfiCond20) Function MT_BuildEndpointDesc
          CFI (cfiCond20) Conditional ??CrossCallReturnLabel_23
          CFI (cfiCond20) R6 load(1, XDATA, add(CFA_XSP16, literal(-15)))
          CFI (cfiCond20) VB load(1, XDATA, add(CFA_XSP16, literal(-14)))
          CFI (cfiCond20) V0 load(1, XDATA, add(CFA_XSP16, literal(-13)))
          CFI (cfiCond20) V1 load(1, XDATA, add(CFA_XSP16, literal(-12)))
          CFI (cfiCond20) V2 load(1, XDATA, add(CFA_XSP16, literal(-11)))
          CFI (cfiCond20) V3 load(1, XDATA, add(CFA_XSP16, literal(-10)))
          CFI (cfiCond20) V4 load(1, XDATA, add(CFA_XSP16, literal(-9)))
          CFI (cfiCond20) V5 load(1, XDATA, add(CFA_XSP16, literal(-8)))
          CFI (cfiCond20) V6 load(1, XDATA, add(CFA_XSP16, literal(-7)))
          CFI (cfiCond20) R7 load(1, XDATA, add(CFA_XSP16, literal(-6)))
          CFI (cfiCond20) ?RET_LOW load(1, XDATA, add(CFA_XSP16, literal(-5)))
          CFI (cfiCond20) ?RET_HIGH load(1, XDATA, add(CFA_XSP16, literal(-4)))
          CFI (cfiCond20) ?BRET_EXT load(1, XDATA, add(CFA_XSP16, literal(-3)))
          CFI (cfiCond20) DPL0 load(1, XDATA, add(CFA_XSP16, literal(-2)))
          CFI (cfiCond20) DPH0 load(1, XDATA, add(CFA_XSP16, literal(-1)))
          CFI (cfiCond20) CFA_SP SP+-2
          CFI (cfiCond20) CFA_XSP16 add(XSP16, 15)
          CFI Block cfiPicker21 Using cfiCommon1
          CFI (cfiPicker21) NoFunction
          CFI (cfiPicker21) Picker
        LCALL   ?Subroutine12 & 0xFFFF
??CrossCallReturnLabel_35:
        RET
          CFI EndBlock cfiCond16
          CFI EndBlock cfiCond17
          CFI EndBlock cfiCond18
          CFI EndBlock cfiCond19
          CFI EndBlock cfiCond20
          CFI EndBlock cfiPicker21

        RSEG BANKED_CODE:CODE:NOROOT(0)
?Subroutine9:
          CFI Block cfiCond22 Using cfiCommon0
          CFI Function MT_BuildEndpointDesc
          CFI Conditional ??CrossCallReturnLabel_13
          CFI R6 load(1, XDATA, add(CFA_XSP16, literal(-15)))
          CFI VB load(1, XDATA, add(CFA_XSP16, literal(-14)))
          CFI V0 load(1, XDATA, add(CFA_XSP16, literal(-13)))
          CFI V1 load(1, XDATA, add(CFA_XSP16, literal(-12)))
          CFI V2 load(1, XDATA, add(CFA_XSP16, literal(-11)))
          CFI V3 load(1, XDATA, add(CFA_XSP16, literal(-10)))
          CFI V4 load(1, XDATA, add(CFA_XSP16, literal(-9)))
          CFI V5 load(1, XDATA, add(CFA_XSP16, literal(-8)))
          CFI V6 load(1, XDATA, add(CFA_XSP16, literal(-7)))
          CFI R7 load(1, XDATA, add(CFA_XSP16, literal(-6)))
          CFI ?RET_LOW load(1, XDATA, add(CFA_XSP16, literal(-5)))
          CFI ?RET_HIGH load(1, XDATA, add(CFA_XSP16, literal(-4)))
          CFI ?BRET_EXT load(1, XDATA, add(CFA_XSP16, literal(-3)))
          CFI DPL0 load(1, XDATA, add(CFA_XSP16, literal(-2)))
          CFI DPH0 load(1, XDATA, add(CFA_XSP16, literal(-1)))
          CFI CFA_SP SP+-2
          CFI CFA_XSP16 add(XSP16, 15)
          CFI Block cfiCond23 Using cfiCommon0
          CFI (cfiCond23) Function MT_BuildEndpointDesc
          CFI (cfiCond23) Conditional ??CrossCallReturnLabel_14
          CFI (cfiCond23) R6 load(1, XDATA, add(CFA_XSP16, literal(-15)))
          CFI (cfiCond23) VB load(1, XDATA, add(CFA_XSP16, literal(-14)))
          CFI (cfiCond23) V0 load(1, XDATA, add(CFA_XSP16, literal(-13)))
          CFI (cfiCond23) V1 load(1, XDATA, add(CFA_XSP16, literal(-12)))
          CFI (cfiCond23) V2 load(1, XDATA, add(CFA_XSP16, literal(-11)))
          CFI (cfiCond23) V3 load(1, XDATA, add(CFA_XSP16, literal(-10)))
          CFI (cfiCond23) V4 load(1, XDATA, add(CFA_XSP16, literal(-9)))
          CFI (cfiCond23) V5 load(1, XDATA, add(CFA_XSP16, literal(-8)))
          CFI (cfiCond23) V6 load(1, XDATA, add(CFA_XSP16, literal(-7)))
          CFI (cfiCond23) R7 load(1, XDATA, add(CFA_XSP16, literal(-6)))
          CFI (cfiCond23) ?RET_LOW load(1, XDATA, add(CFA_XSP16, literal(-5)))
          CFI (cfiCond23) ?RET_HIGH load(1, XDATA, add(CFA_XSP16, literal(-4)))
          CFI (cfiCond23) ?BRET_EXT load(1, XDATA, add(CFA_XSP16, literal(-3)))
          CFI (cfiCond23) DPL0 load(1, XDATA, add(CFA_XSP16, literal(-2)))
          CFI (cfiCond23) DPH0 load(1, XDATA, add(CFA_XSP16, literal(-1)))
          CFI (cfiCond23) CFA_SP SP+-2
          CFI (cfiCond23) CFA_XSP16 add(XSP16, 15)
          CFI Block cfiPicker24 Using cfiCommon1
          CFI (cfiPicker24) NoFunction
          CFI (cfiPicker24) Picker
        MOV     DPL,?V2
        MOV     DPH,?V3
        INC     DPTR
        INC     DPTR
        INC     DPTR
        LCALL   ?Subroutine12 & 0xFFFF
??CrossCallReturnLabel_34:
        ADD     A,#0x7
        MOV     DPL,A
        CLR     A
        ADDC    A,R0
        MOV     DPH,A
        MOVX    A,@DPTR
        RET
          CFI EndBlock cfiCond22
          CFI EndBlock cfiCond23
          CFI EndBlock cfiPicker24

        RSEG BANKED_CODE:CODE:NOROOT(0)
?Subroutine8:
          CFI Block cfiCond25 Using cfiCommon0
          CFI Function MT_BuildEndpointDesc
          CFI Conditional ??CrossCallReturnLabel_25
          CFI R6 load(1, XDATA, add(CFA_XSP16, literal(-15)))
          CFI VB load(1, XDATA, add(CFA_XSP16, literal(-14)))
          CFI V0 load(1, XDATA, add(CFA_XSP16, literal(-13)))
          CFI V1 load(1, XDATA, add(CFA_XSP16, literal(-12)))
          CFI V2 load(1, XDATA, add(CFA_XSP16, literal(-11)))
          CFI V3 load(1, XDATA, add(CFA_XSP16, literal(-10)))
          CFI V4 load(1, XDATA, add(CFA_XSP16, literal(-9)))
          CFI V5 load(1, XDATA, add(CFA_XSP16, literal(-8)))
          CFI V6 load(1, XDATA, add(CFA_XSP16, literal(-7)))
          CFI R7 load(1, XDATA, add(CFA_XSP16, literal(-6)))
          CFI ?RET_LOW load(1, XDATA, add(CFA_XSP16, literal(-5)))
          CFI ?RET_HIGH load(1, XDATA, add(CFA_XSP16, literal(-4)))
          CFI ?BRET_EXT load(1, XDATA, add(CFA_XSP16, literal(-3)))
          CFI DPL0 load(1, XDATA, add(CFA_XSP16, literal(-2)))
          CFI DPH0 load(1, XDATA, add(CFA_XSP16, literal(-1)))
          CFI CFA_SP SP+-2
          CFI CFA_XSP16 add(XSP16, 15)
          CFI Block cfiCond26 Using cfiCommon0
          CFI (cfiCond26) Function MT_BuildEndpointDesc
          CFI (cfiCond26) Conditional ??CrossCallReturnLabel_26
          CFI (cfiCond26) R6 load(1, XDATA, add(CFA_XSP16, literal(-15)))
          CFI (cfiCond26) VB load(1, XDATA, add(CFA_XSP16, literal(-14)))
          CFI (cfiCond26) V0 load(1, XDATA, add(CFA_XSP16, literal(-13)))
          CFI (cfiCond26) V1 load(1, XDATA, add(CFA_XSP16, literal(-12)))
          CFI (cfiCond26) V2 load(1, XDATA, add(CFA_XSP16, literal(-11)))
          CFI (cfiCond26) V3 load(1, XDATA, add(CFA_XSP16, literal(-10)))
          CFI (cfiCond26) V4 load(1, XDATA, add(CFA_XSP16, literal(-9)))
          CFI (cfiCond26) V5 load(1, XDATA, add(CFA_XSP16, literal(-8)))
          CFI (cfiCond26) V6 load(1, XDATA, add(CFA_XSP16, literal(-7)))
          CFI (cfiCond26) R7 load(1, XDATA, add(CFA_XSP16, literal(-6)))
          CFI (cfiCond26) ?RET_LOW load(1, XDATA, add(CFA_XSP16, literal(-5)))
          CFI (cfiCond26) ?RET_HIGH load(1, XDATA, add(CFA_XSP16, literal(-4)))
          CFI (cfiCond26) ?BRET_EXT load(1, XDATA, add(CFA_XSP16, literal(-3)))
          CFI (cfiCond26) DPL0 load(1, XDATA, add(CFA_XSP16, literal(-2)))
          CFI (cfiCond26) DPH0 load(1, XDATA, add(CFA_XSP16, literal(-1)))
          CFI (cfiCond26) CFA_SP SP+-2
          CFI (cfiCond26) CFA_XSP16 add(XSP16, 15)
          CFI Block cfiPicker27 Using cfiCommon1
          CFI (cfiPicker27) NoFunction
          CFI (cfiPicker27) Picker
        MOV     DPL,?V0
        MOV     DPH,?V1
          CFI EndBlock cfiCond25
          CFI EndBlock cfiCond26
          CFI EndBlock cfiPicker27
        REQUIRE ??Subroutine17_0
        ; // Fall through to label ??Subroutine17_0

        RSEG BANKED_CODE:CODE:NOROOT(0)
??Subroutine17_0:
          CFI Block cfiCond28 Using cfiCommon0
          CFI Function MT_BuildEndpointDesc
          CFI Conditional ??CrossCallReturnLabel_24
          CFI R6 load(1, XDATA, add(CFA_XSP16, literal(-15)))
          CFI VB load(1, XDATA, add(CFA_XSP16, literal(-14)))
          CFI V0 load(1, XDATA, add(CFA_XSP16, literal(-13)))
          CFI V1 load(1, XDATA, add(CFA_XSP16, literal(-12)))
          CFI V2 load(1, XDATA, add(CFA_XSP16, literal(-11)))
          CFI V3 load(1, XDATA, add(CFA_XSP16, literal(-10)))
          CFI V4 load(1, XDATA, add(CFA_XSP16, literal(-9)))
          CFI V5 load(1, XDATA, add(CFA_XSP16, literal(-8)))
          CFI V6 load(1, XDATA, add(CFA_XSP16, literal(-7)))
          CFI R7 load(1, XDATA, add(CFA_XSP16, literal(-6)))
          CFI ?RET_LOW load(1, XDATA, add(CFA_XSP16, literal(-5)))
          CFI ?RET_HIGH load(1, XDATA, add(CFA_XSP16, literal(-4)))
          CFI ?BRET_EXT load(1, XDATA, add(CFA_XSP16, literal(-3)))
          CFI DPL0 load(1, XDATA, add(CFA_XSP16, literal(-2)))
          CFI DPH0 load(1, XDATA, add(CFA_XSP16, literal(-1)))
          CFI CFA_SP SP+-2
          CFI CFA_XSP16 add(XSP16, 15)
          CFI Block cfiCond29 Using cfiCommon0
          CFI (cfiCond29) Function MT_BuildEndpointDesc
          CFI (cfiCond29) Conditional ??CrossCallReturnLabel_25
          CFI (cfiCond29) R6 load(1, XDATA, add(CFA_XSP16, literal(-15)))
          CFI (cfiCond29) VB load(1, XDATA, add(CFA_XSP16, literal(-14)))
          CFI (cfiCond29) V0 load(1, XDATA, add(CFA_XSP16, literal(-13)))
          CFI (cfiCond29) V1 load(1, XDATA, add(CFA_XSP16, literal(-12)))
          CFI (cfiCond29) V2 load(1, XDATA, add(CFA_XSP16, literal(-11)))
          CFI (cfiCond29) V3 load(1, XDATA, add(CFA_XSP16, literal(-10)))
          CFI (cfiCond29) V4 load(1, XDATA, add(CFA_XSP16, literal(-9)))
          CFI (cfiCond29) V5 load(1, XDATA, add(CFA_XSP16, literal(-8)))
          CFI (cfiCond29) V6 load(1, XDATA, add(CFA_XSP16, literal(-7)))
          CFI (cfiCond29) R7 load(1, XDATA, add(CFA_XSP16, literal(-6)))
          CFI (cfiCond29) ?RET_LOW load(1, XDATA, add(CFA_XSP16, literal(-5)))
          CFI (cfiCond29) ?RET_HIGH load(1, XDATA, add(CFA_XSP16, literal(-4)))
          CFI (cfiCond29) ?BRET_EXT load(1, XDATA, add(CFA_XSP16, literal(-3)))
          CFI (cfiCond29) DPL0 load(1, XDATA, add(CFA_XSP16, literal(-2)))
          CFI (cfiCond29) DPH0 load(1, XDATA, add(CFA_XSP16, literal(-1)))
          CFI (cfiCond29) CFA_SP SP+-2
          CFI (cfiCond29) CFA_XSP16 add(XSP16, 15)
          CFI Block cfiCond30 Using cfiCommon0
          CFI (cfiCond30) Function MT_BuildEndpointDesc
          CFI (cfiCond30) Conditional ??CrossCallReturnLabel_26
          CFI (cfiCond30) R6 load(1, XDATA, add(CFA_XSP16, literal(-15)))
          CFI (cfiCond30) VB load(1, XDATA, add(CFA_XSP16, literal(-14)))
          CFI (cfiCond30) V0 load(1, XDATA, add(CFA_XSP16, literal(-13)))
          CFI (cfiCond30) V1 load(1, XDATA, add(CFA_XSP16, literal(-12)))
          CFI (cfiCond30) V2 load(1, XDATA, add(CFA_XSP16, literal(-11)))
          CFI (cfiCond30) V3 load(1, XDATA, add(CFA_XSP16, literal(-10)))
          CFI (cfiCond30) V4 load(1, XDATA, add(CFA_XSP16, literal(-9)))
          CFI (cfiCond30) V5 load(1, XDATA, add(CFA_XSP16, literal(-8)))
          CFI (cfiCond30) V6 load(1, XDATA, add(CFA_XSP16, literal(-7)))
          CFI (cfiCond30) R7 load(1, XDATA, add(CFA_XSP16, literal(-6)))
          CFI (cfiCond30) ?RET_LOW load(1, XDATA, add(CFA_XSP16, literal(-5)))
          CFI (cfiCond30) ?RET_HIGH load(1, XDATA, add(CFA_XSP16, literal(-4)))
          CFI (cfiCond30) ?BRET_EXT load(1, XDATA, add(CFA_XSP16, literal(-3)))
          CFI (cfiCond30) DPL0 load(1, XDATA, add(CFA_XSP16, literal(-2)))
          CFI (cfiCond30) DPH0 load(1, XDATA, add(CFA_XSP16, literal(-1)))
          CFI (cfiCond30) CFA_SP SP+-2
          CFI (cfiCond30) CFA_XSP16 add(XSP16, 15)
          CFI Block cfiPicker31 Using cfiCommon1
          CFI (cfiPicker31) NoFunction
          CFI (cfiPicker31) Picker
        LCALL   ?Subroutine12 & 0xFFFF
??CrossCallReturnLabel_36:
        LCALL   ?Subroutine14 & 0xFFFF
??CrossCallReturnLabel_28:
        MOVX    A,@DPTR
        RET
          CFI EndBlock cfiCond28
          CFI EndBlock cfiCond29
          CFI EndBlock cfiCond30
          CFI EndBlock cfiPicker31

        RSEG BANKED_CODE:CODE:NOROOT(0)
?Subroutine14:
          CFI Block cfiCond32 Using cfiCommon0
          CFI Function MT_BuildEndpointDesc
          CFI Conditional ??CrossCallReturnLabel_27
          CFI R6 load(1, XDATA, add(CFA_XSP16, literal(-15)))
          CFI VB load(1, XDATA, add(CFA_XSP16, literal(-14)))
          CFI V0 load(1, XDATA, add(CFA_XSP16, literal(-13)))
          CFI V1 load(1, XDATA, add(CFA_XSP16, literal(-12)))
          CFI V2 load(1, XDATA, add(CFA_XSP16, literal(-11)))
          CFI V3 load(1, XDATA, add(CFA_XSP16, literal(-10)))
          CFI V4 load(1, XDATA, add(CFA_XSP16, literal(-9)))
          CFI V5 load(1, XDATA, add(CFA_XSP16, literal(-8)))
          CFI V6 load(1, XDATA, add(CFA_XSP16, literal(-7)))
          CFI R7 load(1, XDATA, add(CFA_XSP16, literal(-6)))
          CFI ?RET_LOW load(1, XDATA, add(CFA_XSP16, literal(-5)))
          CFI ?RET_HIGH load(1, XDATA, add(CFA_XSP16, literal(-4)))
          CFI ?BRET_EXT load(1, XDATA, add(CFA_XSP16, literal(-3)))
          CFI DPL0 load(1, XDATA, add(CFA_XSP16, literal(-2)))
          CFI DPH0 load(1, XDATA, add(CFA_XSP16, literal(-1)))
          CFI CFA_XSP16 add(XSP16, 15)
          CFI Block cfiCond33 Using cfiCommon0
          CFI (cfiCond33) Function MT_BuildEndpointDesc
          CFI (cfiCond33) Conditional ??CrossCallReturnLabel_28, ??CrossCallReturnLabel_25
          CFI (cfiCond33) R6 load(1, XDATA, add(CFA_XSP16, literal(-15)))
          CFI (cfiCond33) VB load(1, XDATA, add(CFA_XSP16, literal(-14)))
          CFI (cfiCond33) V0 load(1, XDATA, add(CFA_XSP16, literal(-13)))
          CFI (cfiCond33) V1 load(1, XDATA, add(CFA_XSP16, literal(-12)))
          CFI (cfiCond33) V2 load(1, XDATA, add(CFA_XSP16, literal(-11)))
          CFI (cfiCond33) V3 load(1, XDATA, add(CFA_XSP16, literal(-10)))
          CFI (cfiCond33) V4 load(1, XDATA, add(CFA_XSP16, literal(-9)))
          CFI (cfiCond33) V5 load(1, XDATA, add(CFA_XSP16, literal(-8)))
          CFI (cfiCond33) V6 load(1, XDATA, add(CFA_XSP16, literal(-7)))
          CFI (cfiCond33) R7 load(1, XDATA, add(CFA_XSP16, literal(-6)))
          CFI (cfiCond33) ?RET_LOW load(1, XDATA, add(CFA_XSP16, literal(-5)))
          CFI (cfiCond33) ?RET_HIGH load(1, XDATA, add(CFA_XSP16, literal(-4)))
          CFI (cfiCond33) ?BRET_EXT load(1, XDATA, add(CFA_XSP16, literal(-3)))
          CFI (cfiCond33) DPL0 load(1, XDATA, add(CFA_XSP16, literal(-2)))
          CFI (cfiCond33) DPH0 load(1, XDATA, add(CFA_XSP16, literal(-1)))
          CFI (cfiCond33) CFA_SP SP+-4
          CFI (cfiCond33) CFA_XSP16 add(XSP16, 15)
          CFI Block cfiCond34 Using cfiCommon0
          CFI (cfiCond34) Function MT_BuildEndpointDesc
          CFI (cfiCond34) Conditional ??CrossCallReturnLabel_28, ??CrossCallReturnLabel_26
          CFI (cfiCond34) R6 load(1, XDATA, add(CFA_XSP16, literal(-15)))
          CFI (cfiCond34) VB load(1, XDATA, add(CFA_XSP16, literal(-14)))
          CFI (cfiCond34) V0 load(1, XDATA, add(CFA_XSP16, literal(-13)))
          CFI (cfiCond34) V1 load(1, XDATA, add(CFA_XSP16, literal(-12)))
          CFI (cfiCond34) V2 load(1, XDATA, add(CFA_XSP16, literal(-11)))
          CFI (cfiCond34) V3 load(1, XDATA, add(CFA_XSP16, literal(-10)))
          CFI (cfiCond34) V4 load(1, XDATA, add(CFA_XSP16, literal(-9)))
          CFI (cfiCond34) V5 load(1, XDATA, add(CFA_XSP16, literal(-8)))
          CFI (cfiCond34) V6 load(1, XDATA, add(CFA_XSP16, literal(-7)))
          CFI (cfiCond34) R7 load(1, XDATA, add(CFA_XSP16, literal(-6)))
          CFI (cfiCond34) ?RET_LOW load(1, XDATA, add(CFA_XSP16, literal(-5)))
          CFI (cfiCond34) ?RET_HIGH load(1, XDATA, add(CFA_XSP16, literal(-4)))
          CFI (cfiCond34) ?BRET_EXT load(1, XDATA, add(CFA_XSP16, literal(-3)))
          CFI (cfiCond34) DPL0 load(1, XDATA, add(CFA_XSP16, literal(-2)))
          CFI (cfiCond34) DPH0 load(1, XDATA, add(CFA_XSP16, literal(-1)))
          CFI (cfiCond34) CFA_SP SP+-4
          CFI (cfiCond34) CFA_XSP16 add(XSP16, 15)
          CFI Block cfiCond35 Using cfiCommon0
          CFI (cfiCond35) Function MT_BuildEndpointDesc
          CFI (cfiCond35) Conditional ??CrossCallReturnLabel_28, ??CrossCallReturnLabel_24
          CFI (cfiCond35) R6 load(1, XDATA, add(CFA_XSP16, literal(-15)))
          CFI (cfiCond35) VB load(1, XDATA, add(CFA_XSP16, literal(-14)))
          CFI (cfiCond35) V0 load(1, XDATA, add(CFA_XSP16, literal(-13)))
          CFI (cfiCond35) V1 load(1, XDATA, add(CFA_XSP16, literal(-12)))
          CFI (cfiCond35) V2 load(1, XDATA, add(CFA_XSP16, literal(-11)))
          CFI (cfiCond35) V3 load(1, XDATA, add(CFA_XSP16, literal(-10)))
          CFI (cfiCond35) V4 load(1, XDATA, add(CFA_XSP16, literal(-9)))
          CFI (cfiCond35) V5 load(1, XDATA, add(CFA_XSP16, literal(-8)))
          CFI (cfiCond35) V6 load(1, XDATA, add(CFA_XSP16, literal(-7)))
          CFI (cfiCond35) R7 load(1, XDATA, add(CFA_XSP16, literal(-6)))
          CFI (cfiCond35) ?RET_LOW load(1, XDATA, add(CFA_XSP16, literal(-5)))
          CFI (cfiCond35) ?RET_HIGH load(1, XDATA, add(CFA_XSP16, literal(-4)))
          CFI (cfiCond35) ?BRET_EXT load(1, XDATA, add(CFA_XSP16, literal(-3)))
          CFI (cfiCond35) DPL0 load(1, XDATA, add(CFA_XSP16, literal(-2)))
          CFI (cfiCond35) DPH0 load(1, XDATA, add(CFA_XSP16, literal(-1)))
          CFI (cfiCond35) CFA_SP SP+-4
          CFI (cfiCond35) CFA_XSP16 add(XSP16, 15)
          CFI Block cfiPicker36 Using cfiCommon1
          CFI (cfiPicker36) NoFunction
          CFI (cfiPicker36) Picker
        ADD     A,#0x6
        MOV     DPL,A
        CLR     A
        ADDC    A,R0
        MOV     DPH,A
        RET
          CFI EndBlock cfiCond32
          CFI EndBlock cfiCond33
          CFI EndBlock cfiCond34
          CFI EndBlock cfiCond35
          CFI EndBlock cfiPicker36

        RSEG BANKED_CODE:CODE:NOROOT(0)
?Subroutine7:
          CFI Block cfiCond37 Using cfiCommon0
          CFI Function MT_BuildEndpointDesc
          CFI Conditional ??CrossCallReturnLabel_11
          CFI R6 load(1, XDATA, add(CFA_XSP16, literal(-15)))
          CFI VB load(1, XDATA, add(CFA_XSP16, literal(-14)))
          CFI V0 load(1, XDATA, add(CFA_XSP16, literal(-13)))
          CFI V1 load(1, XDATA, add(CFA_XSP16, literal(-12)))
          CFI V2 load(1, XDATA, add(CFA_XSP16, literal(-11)))
          CFI V3 load(1, XDATA, add(CFA_XSP16, literal(-10)))
          CFI V4 load(1, XDATA, add(CFA_XSP16, literal(-9)))
          CFI V5 load(1, XDATA, add(CFA_XSP16, literal(-8)))
          CFI V6 load(1, XDATA, add(CFA_XSP16, literal(-7)))
          CFI R7 load(1, XDATA, add(CFA_XSP16, literal(-6)))
          CFI ?RET_LOW load(1, XDATA, add(CFA_XSP16, literal(-5)))
          CFI ?RET_HIGH load(1, XDATA, add(CFA_XSP16, literal(-4)))
          CFI ?BRET_EXT load(1, XDATA, add(CFA_XSP16, literal(-3)))
          CFI DPL0 load(1, XDATA, add(CFA_XSP16, literal(-2)))
          CFI DPH0 load(1, XDATA, add(CFA_XSP16, literal(-1)))
          CFI CFA_SP SP+-2
          CFI CFA_XSP16 add(XSP16, 15)
          CFI Block cfiCond38 Using cfiCommon0
          CFI (cfiCond38) Function MT_BuildEndpointDesc
          CFI (cfiCond38) Conditional ??CrossCallReturnLabel_12
          CFI (cfiCond38) R6 load(1, XDATA, add(CFA_XSP16, literal(-15)))
          CFI (cfiCond38) VB load(1, XDATA, add(CFA_XSP16, literal(-14)))
          CFI (cfiCond38) V0 load(1, XDATA, add(CFA_XSP16, literal(-13)))
          CFI (cfiCond38) V1 load(1, XDATA, add(CFA_XSP16, literal(-12)))
          CFI (cfiCond38) V2 load(1, XDATA, add(CFA_XSP16, literal(-11)))
          CFI (cfiCond38) V3 load(1, XDATA, add(CFA_XSP16, literal(-10)))
          CFI (cfiCond38) V4 load(1, XDATA, add(CFA_XSP16, literal(-9)))
          CFI (cfiCond38) V5 load(1, XDATA, add(CFA_XSP16, literal(-8)))
          CFI (cfiCond38) V6 load(1, XDATA, add(CFA_XSP16, literal(-7)))
          CFI (cfiCond38) R7 load(1, XDATA, add(CFA_XSP16, literal(-6)))
          CFI (cfiCond38) ?RET_LOW load(1, XDATA, add(CFA_XSP16, literal(-5)))
          CFI (cfiCond38) ?RET_HIGH load(1, XDATA, add(CFA_XSP16, literal(-4)))
          CFI (cfiCond38) ?BRET_EXT load(1, XDATA, add(CFA_XSP16, literal(-3)))
          CFI (cfiCond38) DPL0 load(1, XDATA, add(CFA_XSP16, literal(-2)))
          CFI (cfiCond38) DPH0 load(1, XDATA, add(CFA_XSP16, literal(-1)))
          CFI (cfiCond38) CFA_SP SP+-2
          CFI (cfiCond38) CFA_XSP16 add(XSP16, 15)
          CFI Block cfiPicker39 Using cfiCommon1
          CFI (cfiPicker39) NoFunction
          CFI (cfiPicker39) Picker
        MOVX    A,@DPTR
        MOV     R2,A
        INC     DPTR
        MOVX    A,@DPTR
        MOV     R0,A
        CLR     A
        XCH     A,R0
        MOV     R1,A
        MOV     A,R2
        ADD     A,R0
        CLR     A
        ADDC    A,R1
        MOV     R3,A
        LCALL   ?Subroutine13 & 0xFFFF
??CrossCallReturnLabel_18:
        INC     DPTR
        RET
          CFI EndBlock cfiCond37
          CFI EndBlock cfiCond38
          CFI EndBlock cfiPicker39

        RSEG BANKED_CODE:CODE:NOROOT(0)
?Subroutine13:
          CFI Block cfiCond40 Using cfiCommon0
          CFI Function MT_BuildEndpointDesc
          CFI Conditional ??CrossCallReturnLabel_17
          CFI R6 load(1, XDATA, add(CFA_XSP16, literal(-15)))
          CFI VB load(1, XDATA, add(CFA_XSP16, literal(-14)))
          CFI V0 load(1, XDATA, add(CFA_XSP16, literal(-13)))
          CFI V1 load(1, XDATA, add(CFA_XSP16, literal(-12)))
          CFI V2 load(1, XDATA, add(CFA_XSP16, literal(-11)))
          CFI V3 load(1, XDATA, add(CFA_XSP16, literal(-10)))
          CFI V4 load(1, XDATA, add(CFA_XSP16, literal(-9)))
          CFI V5 load(1, XDATA, add(CFA_XSP16, literal(-8)))
          CFI V6 load(1, XDATA, add(CFA_XSP16, literal(-7)))
          CFI R7 load(1, XDATA, add(CFA_XSP16, literal(-6)))
          CFI ?RET_LOW load(1, XDATA, add(CFA_XSP16, literal(-5)))
          CFI ?RET_HIGH load(1, XDATA, add(CFA_XSP16, literal(-4)))
          CFI ?BRET_EXT load(1, XDATA, add(CFA_XSP16, literal(-3)))
          CFI DPL0 load(1, XDATA, add(CFA_XSP16, literal(-2)))
          CFI DPH0 load(1, XDATA, add(CFA_XSP16, literal(-1)))
          CFI CFA_XSP16 add(XSP16, 15)
          CFI Block cfiCond41 Using cfiCommon0
          CFI (cfiCond41) Function MT_BuildEndpointDesc
          CFI (cfiCond41) Conditional ??CrossCallReturnLabel_18, ??CrossCallReturnLabel_11
          CFI (cfiCond41) R6 load(1, XDATA, add(CFA_XSP16, literal(-15)))
          CFI (cfiCond41) VB load(1, XDATA, add(CFA_XSP16, literal(-14)))
          CFI (cfiCond41) V0 load(1, XDATA, add(CFA_XSP16, literal(-13)))
          CFI (cfiCond41) V1 load(1, XDATA, add(CFA_XSP16, literal(-12)))
          CFI (cfiCond41) V2 load(1, XDATA, add(CFA_XSP16, literal(-11)))
          CFI (cfiCond41) V3 load(1, XDATA, add(CFA_XSP16, literal(-10)))
          CFI (cfiCond41) V4 load(1, XDATA, add(CFA_XSP16, literal(-9)))
          CFI (cfiCond41) V5 load(1, XDATA, add(CFA_XSP16, literal(-8)))
          CFI (cfiCond41) V6 load(1, XDATA, add(CFA_XSP16, literal(-7)))
          CFI (cfiCond41) R7 load(1, XDATA, add(CFA_XSP16, literal(-6)))
          CFI (cfiCond41) ?RET_LOW load(1, XDATA, add(CFA_XSP16, literal(-5)))
          CFI (cfiCond41) ?RET_HIGH load(1, XDATA, add(CFA_XSP16, literal(-4)))
          CFI (cfiCond41) ?BRET_EXT load(1, XDATA, add(CFA_XSP16, literal(-3)))
          CFI (cfiCond41) DPL0 load(1, XDATA, add(CFA_XSP16, literal(-2)))
          CFI (cfiCond41) DPH0 load(1, XDATA, add(CFA_XSP16, literal(-1)))
          CFI (cfiCond41) CFA_SP SP+-4
          CFI (cfiCond41) CFA_XSP16 add(XSP16, 15)
          CFI Block cfiCond42 Using cfiCommon0
          CFI (cfiCond42) Function MT_BuildEndpointDesc
          CFI (cfiCond42) Conditional ??CrossCallReturnLabel_18, ??CrossCallReturnLabel_12
          CFI (cfiCond42) R6 load(1, XDATA, add(CFA_XSP16, literal(-15)))
          CFI (cfiCond42) VB load(1, XDATA, add(CFA_XSP16, literal(-14)))
          CFI (cfiCond42) V0 load(1, XDATA, add(CFA_XSP16, literal(-13)))
          CFI (cfiCond42) V1 load(1, XDATA, add(CFA_XSP16, literal(-12)))
          CFI (cfiCond42) V2 load(1, XDATA, add(CFA_XSP16, literal(-11)))
          CFI (cfiCond42) V3 load(1, XDATA, add(CFA_XSP16, literal(-10)))
          CFI (cfiCond42) V4 load(1, XDATA, add(CFA_XSP16, literal(-9)))
          CFI (cfiCond42) V5 load(1, XDATA, add(CFA_XSP16, literal(-8)))
          CFI (cfiCond42) V6 load(1, XDATA, add(CFA_XSP16, literal(-7)))
          CFI (cfiCond42) R7 load(1, XDATA, add(CFA_XSP16, literal(-6)))
          CFI (cfiCond42) ?RET_LOW load(1, XDATA, add(CFA_XSP16, literal(-5)))
          CFI (cfiCond42) ?RET_HIGH load(1, XDATA, add(CFA_XSP16, literal(-4)))
          CFI (cfiCond42) ?BRET_EXT load(1, XDATA, add(CFA_XSP16, literal(-3)))
          CFI (cfiCond42) DPL0 load(1, XDATA, add(CFA_XSP16, literal(-2)))
          CFI (cfiCond42) DPH0 load(1, XDATA, add(CFA_XSP16, literal(-1)))
          CFI (cfiCond42) CFA_SP SP+-4
          CFI (cfiCond42) CFA_XSP16 add(XSP16, 15)
          CFI Block cfiPicker43 Using cfiCommon1
          CFI (cfiPicker43) NoFunction
          CFI (cfiPicker43) Picker
        MOV     DPL,?V0
        MOV     DPH,?V1
        MOVX    A,@DPTR
        MOV     R0,A
        INC     DPTR
        MOVX    A,@DPTR
        MOV     DPH,A
        MOV     DPL,R0
        RET
          CFI EndBlock cfiCond40
          CFI EndBlock cfiCond41
          CFI EndBlock cfiCond42
          CFI EndBlock cfiPicker43

        RSEG BANKED_CODE:CODE:NOROOT(0)
?Subroutine6:
          CFI Block cfiCond44 Using cfiCommon0
          CFI Function MT_BuildEndpointDesc
          CFI Conditional ??CrossCallReturnLabel_9
          CFI R6 load(1, XDATA, add(CFA_XSP16, literal(-15)))
          CFI VB load(1, XDATA, add(CFA_XSP16, literal(-14)))
          CFI V0 load(1, XDATA, add(CFA_XSP16, literal(-13)))
          CFI V1 load(1, XDATA, add(CFA_XSP16, literal(-12)))
          CFI V2 load(1, XDATA, add(CFA_XSP16, literal(-11)))
          CFI V3 load(1, XDATA, add(CFA_XSP16, literal(-10)))
          CFI V4 load(1, XDATA, add(CFA_XSP16, literal(-9)))
          CFI V5 load(1, XDATA, add(CFA_XSP16, literal(-8)))
          CFI V6 load(1, XDATA, add(CFA_XSP16, literal(-7)))
          CFI R7 load(1, XDATA, add(CFA_XSP16, literal(-6)))
          CFI ?RET_LOW load(1, XDATA, add(CFA_XSP16, literal(-5)))
          CFI ?RET_HIGH load(1, XDATA, add(CFA_XSP16, literal(-4)))
          CFI ?BRET_EXT load(1, XDATA, add(CFA_XSP16, literal(-3)))
          CFI DPL0 load(1, XDATA, add(CFA_XSP16, literal(-2)))
          CFI DPH0 load(1, XDATA, add(CFA_XSP16, literal(-1)))
          CFI CFA_SP SP+-2
          CFI CFA_XSP16 add(XSP16, 15)
          CFI Block cfiCond45 Using cfiCommon0
          CFI (cfiCond45) Function MT_BuildEndpointDesc
          CFI (cfiCond45) Conditional ??CrossCallReturnLabel_10
          CFI (cfiCond45) R6 load(1, XDATA, add(CFA_XSP16, literal(-15)))
          CFI (cfiCond45) VB load(1, XDATA, add(CFA_XSP16, literal(-14)))
          CFI (cfiCond45) V0 load(1, XDATA, add(CFA_XSP16, literal(-13)))
          CFI (cfiCond45) V1 load(1, XDATA, add(CFA_XSP16, literal(-12)))
          CFI (cfiCond45) V2 load(1, XDATA, add(CFA_XSP16, literal(-11)))
          CFI (cfiCond45) V3 load(1, XDATA, add(CFA_XSP16, literal(-10)))
          CFI (cfiCond45) V4 load(1, XDATA, add(CFA_XSP16, literal(-9)))
          CFI (cfiCond45) V5 load(1, XDATA, add(CFA_XSP16, literal(-8)))
          CFI (cfiCond45) V6 load(1, XDATA, add(CFA_XSP16, literal(-7)))
          CFI (cfiCond45) R7 load(1, XDATA, add(CFA_XSP16, literal(-6)))
          CFI (cfiCond45) ?RET_LOW load(1, XDATA, add(CFA_XSP16, literal(-5)))
          CFI (cfiCond45) ?RET_HIGH load(1, XDATA, add(CFA_XSP16, literal(-4)))
          CFI (cfiCond45) ?BRET_EXT load(1, XDATA, add(CFA_XSP16, literal(-3)))
          CFI (cfiCond45) DPL0 load(1, XDATA, add(CFA_XSP16, literal(-2)))
          CFI (cfiCond45) DPH0 load(1, XDATA, add(CFA_XSP16, literal(-1)))
          CFI (cfiCond45) CFA_SP SP+-2
          CFI (cfiCond45) CFA_XSP16 add(XSP16, 15)
          CFI Block cfiPicker46 Using cfiCommon1
          CFI (cfiPicker46) NoFunction
          CFI (cfiPicker46) Picker
        MOV     DPL,R6
        MOV     DPH,R7
        MOVX    A,@DPTR
        MOV     R4,A
        INC     DPTR
        MOVX    A,@DPTR
        MOV     R0,A
        CLR     A
        XCH     A,R0
        MOV     R1,A
        MOV     A,R4
        ADD     A,R0
        CLR     A
        ADDC    A,R1
        MOV     R5,A
        MOV     A,R3
        ADD     A,0xE0 /* A   */
        MOV     R0,A
        CLR     A
        RLC     A
        MOV     R1,A
        MOV     DPL,?V2
        MOV     DPH,?V3
        INC     DPTR
        INC     DPTR
        INC     DPTR
        MOVX    A,@DPTR
        MOV     R2,A
        INC     DPTR
        MOVX    A,@DPTR
        XCH     A,R2
        RET
          CFI EndBlock cfiCond44
          CFI EndBlock cfiCond45
          CFI EndBlock cfiPicker46

        RSEG BANKED_CODE:CODE:NOROOT(0)
?Subroutine5:
          CFI Block cfiCond47 Using cfiCommon0
          CFI Function MT_BuildEndpointDesc
          CFI Conditional ??CrossCallReturnLabel_31
          CFI R6 load(1, XDATA, add(CFA_XSP16, literal(-15)))
          CFI VB load(1, XDATA, add(CFA_XSP16, literal(-14)))
          CFI V0 load(1, XDATA, add(CFA_XSP16, literal(-13)))
          CFI V1 load(1, XDATA, add(CFA_XSP16, literal(-12)))
          CFI V2 load(1, XDATA, add(CFA_XSP16, literal(-11)))
          CFI V3 load(1, XDATA, add(CFA_XSP16, literal(-10)))
          CFI V4 load(1, XDATA, add(CFA_XSP16, literal(-9)))
          CFI V5 load(1, XDATA, add(CFA_XSP16, literal(-8)))
          CFI V6 load(1, XDATA, add(CFA_XSP16, literal(-7)))
          CFI R7 load(1, XDATA, add(CFA_XSP16, literal(-6)))
          CFI ?RET_LOW load(1, XDATA, add(CFA_XSP16, literal(-5)))
          CFI ?RET_HIGH load(1, XDATA, add(CFA_XSP16, literal(-4)))
          CFI ?BRET_EXT load(1, XDATA, add(CFA_XSP16, literal(-3)))
          CFI DPL0 load(1, XDATA, add(CFA_XSP16, literal(-2)))
          CFI DPH0 load(1, XDATA, add(CFA_XSP16, literal(-1)))
          CFI CFA_SP SP+-2
          CFI CFA_XSP16 add(XSP16, 15)
          CFI Block cfiCond48 Using cfiCommon0
          CFI (cfiCond48) Function MT_BuildEndpointDesc
          CFI (cfiCond48) Conditional ??CrossCallReturnLabel_32
          CFI (cfiCond48) R6 load(1, XDATA, add(CFA_XSP16, literal(-15)))
          CFI (cfiCond48) VB load(1, XDATA, add(CFA_XSP16, literal(-14)))
          CFI (cfiCond48) V0 load(1, XDATA, add(CFA_XSP16, literal(-13)))
          CFI (cfiCond48) V1 load(1, XDATA, add(CFA_XSP16, literal(-12)))
          CFI (cfiCond48) V2 load(1, XDATA, add(CFA_XSP16, literal(-11)))
          CFI (cfiCond48) V3 load(1, XDATA, add(CFA_XSP16, literal(-10)))
          CFI (cfiCond48) V4 load(1, XDATA, add(CFA_XSP16, literal(-9)))
          CFI (cfiCond48) V5 load(1, XDATA, add(CFA_XSP16, literal(-8)))
          CFI (cfiCond48) V6 load(1, XDATA, add(CFA_XSP16, literal(-7)))
          CFI (cfiCond48) R7 load(1, XDATA, add(CFA_XSP16, literal(-6)))
          CFI (cfiCond48) ?RET_LOW load(1, XDATA, add(CFA_XSP16, literal(-5)))
          CFI (cfiCond48) ?RET_HIGH load(1, XDATA, add(CFA_XSP16, literal(-4)))
          CFI (cfiCond48) ?BRET_EXT load(1, XDATA, add(CFA_XSP16, literal(-3)))
          CFI (cfiCond48) DPL0 load(1, XDATA, add(CFA_XSP16, literal(-2)))
          CFI (cfiCond48) DPH0 load(1, XDATA, add(CFA_XSP16, literal(-1)))
          CFI (cfiCond48) CFA_SP SP+-2
          CFI (cfiCond48) CFA_XSP16 add(XSP16, 15)
          CFI Block cfiPicker49 Using cfiCommon1
          CFI (cfiPicker49) NoFunction
          CFI (cfiPicker49) Picker
        MOV     DPL,?V2
        MOV     DPH,?V3
        INC     DPTR
        INC     DPTR
        INC     DPTR
          CFI EndBlock cfiCond47
          CFI EndBlock cfiCond48
          CFI EndBlock cfiPicker49
        REQUIRE ??Subroutine18_0
        ; // Fall through to label ??Subroutine18_0

        RSEG BANKED_CODE:CODE:NOROOT(0)
??Subroutine18_0:
          CFI Block cfiCond50 Using cfiCommon0
          CFI Function MT_BuildEndpointDesc
          CFI Conditional ??CrossCallReturnLabel_29
          CFI R6 load(1, XDATA, add(CFA_XSP16, literal(-15)))
          CFI VB load(1, XDATA, add(CFA_XSP16, literal(-14)))
          CFI V0 load(1, XDATA, add(CFA_XSP16, literal(-13)))
          CFI V1 load(1, XDATA, add(CFA_XSP16, literal(-12)))
          CFI V2 load(1, XDATA, add(CFA_XSP16, literal(-11)))
          CFI V3 load(1, XDATA, add(CFA_XSP16, literal(-10)))
          CFI V4 load(1, XDATA, add(CFA_XSP16, literal(-9)))
          CFI V5 load(1, XDATA, add(CFA_XSP16, literal(-8)))
          CFI V6 load(1, XDATA, add(CFA_XSP16, literal(-7)))
          CFI R7 load(1, XDATA, add(CFA_XSP16, literal(-6)))
          CFI ?RET_LOW load(1, XDATA, add(CFA_XSP16, literal(-5)))
          CFI ?RET_HIGH load(1, XDATA, add(CFA_XSP16, literal(-4)))
          CFI ?BRET_EXT load(1, XDATA, add(CFA_XSP16, literal(-3)))
          CFI DPL0 load(1, XDATA, add(CFA_XSP16, literal(-2)))
          CFI DPH0 load(1, XDATA, add(CFA_XSP16, literal(-1)))
          CFI CFA_SP SP+-2
          CFI CFA_XSP16 add(XSP16, 15)
          CFI Block cfiCond51 Using cfiCommon0
          CFI (cfiCond51) Function MT_BuildEndpointDesc
          CFI (cfiCond51) Conditional ??CrossCallReturnLabel_30
          CFI (cfiCond51) R6 load(1, XDATA, add(CFA_XSP16, literal(-15)))
          CFI (cfiCond51) VB load(1, XDATA, add(CFA_XSP16, literal(-14)))
          CFI (cfiCond51) V0 load(1, XDATA, add(CFA_XSP16, literal(-13)))
          CFI (cfiCond51) V1 load(1, XDATA, add(CFA_XSP16, literal(-12)))
          CFI (cfiCond51) V2 load(1, XDATA, add(CFA_XSP16, literal(-11)))
          CFI (cfiCond51) V3 load(1, XDATA, add(CFA_XSP16, literal(-10)))
          CFI (cfiCond51) V4 load(1, XDATA, add(CFA_XSP16, literal(-9)))
          CFI (cfiCond51) V5 load(1, XDATA, add(CFA_XSP16, literal(-8)))
          CFI (cfiCond51) V6 load(1, XDATA, add(CFA_XSP16, literal(-7)))
          CFI (cfiCond51) R7 load(1, XDATA, add(CFA_XSP16, literal(-6)))
          CFI (cfiCond51) ?RET_LOW load(1, XDATA, add(CFA_XSP16, literal(-5)))
          CFI (cfiCond51) ?RET_HIGH load(1, XDATA, add(CFA_XSP16, literal(-4)))
          CFI (cfiCond51) ?BRET_EXT load(1, XDATA, add(CFA_XSP16, literal(-3)))
          CFI (cfiCond51) DPL0 load(1, XDATA, add(CFA_XSP16, literal(-2)))
          CFI (cfiCond51) DPH0 load(1, XDATA, add(CFA_XSP16, literal(-1)))
          CFI (cfiCond51) CFA_SP SP+-2
          CFI (cfiCond51) CFA_XSP16 add(XSP16, 15)
          CFI Block cfiCond52 Using cfiCommon0
          CFI (cfiCond52) Function MT_BuildEndpointDesc
          CFI (cfiCond52) Conditional ??CrossCallReturnLabel_31
          CFI (cfiCond52) R6 load(1, XDATA, add(CFA_XSP16, literal(-15)))
          CFI (cfiCond52) VB load(1, XDATA, add(CFA_XSP16, literal(-14)))
          CFI (cfiCond52) V0 load(1, XDATA, add(CFA_XSP16, literal(-13)))
          CFI (cfiCond52) V1 load(1, XDATA, add(CFA_XSP16, literal(-12)))
          CFI (cfiCond52) V2 load(1, XDATA, add(CFA_XSP16, literal(-11)))
          CFI (cfiCond52) V3 load(1, XDATA, add(CFA_XSP16, literal(-10)))
          CFI (cfiCond52) V4 load(1, XDATA, add(CFA_XSP16, literal(-9)))
          CFI (cfiCond52) V5 load(1, XDATA, add(CFA_XSP16, literal(-8)))
          CFI (cfiCond52) V6 load(1, XDATA, add(CFA_XSP16, literal(-7)))
          CFI (cfiCond52) R7 load(1, XDATA, add(CFA_XSP16, literal(-6)))
          CFI (cfiCond52) ?RET_LOW load(1, XDATA, add(CFA_XSP16, literal(-5)))
          CFI (cfiCond52) ?RET_HIGH load(1, XDATA, add(CFA_XSP16, literal(-4)))
          CFI (cfiCond52) ?BRET_EXT load(1, XDATA, add(CFA_XSP16, literal(-3)))
          CFI (cfiCond52) DPL0 load(1, XDATA, add(CFA_XSP16, literal(-2)))
          CFI (cfiCond52) DPH0 load(1, XDATA, add(CFA_XSP16, literal(-1)))
          CFI (cfiCond52) CFA_SP SP+-2
          CFI (cfiCond52) CFA_XSP16 add(XSP16, 15)
          CFI Block cfiCond53 Using cfiCommon0
          CFI (cfiCond53) Function MT_BuildEndpointDesc
          CFI (cfiCond53) Conditional ??CrossCallReturnLabel_32
          CFI (cfiCond53) R6 load(1, XDATA, add(CFA_XSP16, literal(-15)))
          CFI (cfiCond53) VB load(1, XDATA, add(CFA_XSP16, literal(-14)))
          CFI (cfiCond53) V0 load(1, XDATA, add(CFA_XSP16, literal(-13)))
          CFI (cfiCond53) V1 load(1, XDATA, add(CFA_XSP16, literal(-12)))
          CFI (cfiCond53) V2 load(1, XDATA, add(CFA_XSP16, literal(-11)))
          CFI (cfiCond53) V3 load(1, XDATA, add(CFA_XSP16, literal(-10)))
          CFI (cfiCond53) V4 load(1, XDATA, add(CFA_XSP16, literal(-9)))
          CFI (cfiCond53) V5 load(1, XDATA, add(CFA_XSP16, literal(-8)))
          CFI (cfiCond53) V6 load(1, XDATA, add(CFA_XSP16, literal(-7)))
          CFI (cfiCond53) R7 load(1, XDATA, add(CFA_XSP16, literal(-6)))
          CFI (cfiCond53) ?RET_LOW load(1, XDATA, add(CFA_XSP16, literal(-5)))
          CFI (cfiCond53) ?RET_HIGH load(1, XDATA, add(CFA_XSP16, literal(-4)))
          CFI (cfiCond53) ?BRET_EXT load(1, XDATA, add(CFA_XSP16, literal(-3)))
          CFI (cfiCond53) DPL0 load(1, XDATA, add(CFA_XSP16, literal(-2)))
          CFI (cfiCond53) DPH0 load(1, XDATA, add(CFA_XSP16, literal(-1)))
          CFI (cfiCond53) CFA_SP SP+-2
          CFI (cfiCond53) CFA_XSP16 add(XSP16, 15)
          CFI Block cfiPicker54 Using cfiCommon1
          CFI (cfiPicker54) NoFunction
          CFI (cfiPicker54) Picker
        LCALL   ?Subroutine12 & 0xFFFF
??CrossCallReturnLabel_37:
        LCALL   ?Subroutine15 & 0xFFFF
??CrossCallReturnLabel_39:
        MOVX    A,@DPTR
        RET
          CFI EndBlock cfiCond50
          CFI EndBlock cfiCond51
          CFI EndBlock cfiCond52
          CFI EndBlock cfiCond53
          CFI EndBlock cfiPicker54

        RSEG BANKED_CODE:CODE:NOROOT(0)
?Subroutine15:
          CFI Block cfiCond55 Using cfiCommon0
          CFI Function MT_BuildEndpointDesc
          CFI Conditional ??CrossCallReturnLabel_38
          CFI R6 load(1, XDATA, add(CFA_XSP16, literal(-15)))
          CFI VB load(1, XDATA, add(CFA_XSP16, literal(-14)))
          CFI V0 load(1, XDATA, add(CFA_XSP16, literal(-13)))
          CFI V1 load(1, XDATA, add(CFA_XSP16, literal(-12)))
          CFI V2 load(1, XDATA, add(CFA_XSP16, literal(-11)))
          CFI V3 load(1, XDATA, add(CFA_XSP16, literal(-10)))
          CFI V4 load(1, XDATA, add(CFA_XSP16, literal(-9)))
          CFI V5 load(1, XDATA, add(CFA_XSP16, literal(-8)))
          CFI V6 load(1, XDATA, add(CFA_XSP16, literal(-7)))
          CFI R7 load(1, XDATA, add(CFA_XSP16, literal(-6)))
          CFI ?RET_LOW load(1, XDATA, add(CFA_XSP16, literal(-5)))
          CFI ?RET_HIGH load(1, XDATA, add(CFA_XSP16, literal(-4)))
          CFI ?BRET_EXT load(1, XDATA, add(CFA_XSP16, literal(-3)))
          CFI DPL0 load(1, XDATA, add(CFA_XSP16, literal(-2)))
          CFI DPH0 load(1, XDATA, add(CFA_XSP16, literal(-1)))
          CFI CFA_XSP16 add(XSP16, 15)
          CFI Block cfiCond56 Using cfiCommon0
          CFI (cfiCond56) Function MT_BuildEndpointDesc
          CFI (cfiCond56) Conditional ??CrossCallReturnLabel_39, ??CrossCallReturnLabel_31
          CFI (cfiCond56) R6 load(1, XDATA, add(CFA_XSP16, literal(-15)))
          CFI (cfiCond56) VB load(1, XDATA, add(CFA_XSP16, literal(-14)))
          CFI (cfiCond56) V0 load(1, XDATA, add(CFA_XSP16, literal(-13)))
          CFI (cfiCond56) V1 load(1, XDATA, add(CFA_XSP16, literal(-12)))
          CFI (cfiCond56) V2 load(1, XDATA, add(CFA_XSP16, literal(-11)))
          CFI (cfiCond56) V3 load(1, XDATA, add(CFA_XSP16, literal(-10)))
          CFI (cfiCond56) V4 load(1, XDATA, add(CFA_XSP16, literal(-9)))
          CFI (cfiCond56) V5 load(1, XDATA, add(CFA_XSP16, literal(-8)))
          CFI (cfiCond56) V6 load(1, XDATA, add(CFA_XSP16, literal(-7)))
          CFI (cfiCond56) R7 load(1, XDATA, add(CFA_XSP16, literal(-6)))
          CFI (cfiCond56) ?RET_LOW load(1, XDATA, add(CFA_XSP16, literal(-5)))
          CFI (cfiCond56) ?RET_HIGH load(1, XDATA, add(CFA_XSP16, literal(-4)))
          CFI (cfiCond56) ?BRET_EXT load(1, XDATA, add(CFA_XSP16, literal(-3)))
          CFI (cfiCond56) DPL0 load(1, XDATA, add(CFA_XSP16, literal(-2)))
          CFI (cfiCond56) DPH0 load(1, XDATA, add(CFA_XSP16, literal(-1)))
          CFI (cfiCond56) CFA_SP SP+-4
          CFI (cfiCond56) CFA_XSP16 add(XSP16, 15)
          CFI Block cfiCond57 Using cfiCommon0
          CFI (cfiCond57) Function MT_BuildEndpointDesc
          CFI (cfiCond57) Conditional ??CrossCallReturnLabel_39, ??CrossCallReturnLabel_32
          CFI (cfiCond57) R6 load(1, XDATA, add(CFA_XSP16, literal(-15)))
          CFI (cfiCond57) VB load(1, XDATA, add(CFA_XSP16, literal(-14)))
          CFI (cfiCond57) V0 load(1, XDATA, add(CFA_XSP16, literal(-13)))
          CFI (cfiCond57) V1 load(1, XDATA, add(CFA_XSP16, literal(-12)))
          CFI (cfiCond57) V2 load(1, XDATA, add(CFA_XSP16, literal(-11)))
          CFI (cfiCond57) V3 load(1, XDATA, add(CFA_XSP16, literal(-10)))
          CFI (cfiCond57) V4 load(1, XDATA, add(CFA_XSP16, literal(-9)))
          CFI (cfiCond57) V5 load(1, XDATA, add(CFA_XSP16, literal(-8)))
          CFI (cfiCond57) V6 load(1, XDATA, add(CFA_XSP16, literal(-7)))
          CFI (cfiCond57) R7 load(1, XDATA, add(CFA_XSP16, literal(-6)))
          CFI (cfiCond57) ?RET_LOW load(1, XDATA, add(CFA_XSP16, literal(-5)))
          CFI (cfiCond57) ?RET_HIGH load(1, XDATA, add(CFA_XSP16, literal(-4)))
          CFI (cfiCond57) ?BRET_EXT load(1, XDATA, add(CFA_XSP16, literal(-3)))
          CFI (cfiCond57) DPL0 load(1, XDATA, add(CFA_XSP16, literal(-2)))
          CFI (cfiCond57) DPH0 load(1, XDATA, add(CFA_XSP16, literal(-1)))
          CFI (cfiCond57) CFA_SP SP+-4
          CFI (cfiCond57) CFA_XSP16 add(XSP16, 15)
          CFI Block cfiCond58 Using cfiCommon0
          CFI (cfiCond58) Function MT_BuildEndpointDesc
          CFI (cfiCond58) Conditional ??CrossCallReturnLabel_39, ??CrossCallReturnLabel_29
          CFI (cfiCond58) R6 load(1, XDATA, add(CFA_XSP16, literal(-15)))
          CFI (cfiCond58) VB load(1, XDATA, add(CFA_XSP16, literal(-14)))
          CFI (cfiCond58) V0 load(1, XDATA, add(CFA_XSP16, literal(-13)))
          CFI (cfiCond58) V1 load(1, XDATA, add(CFA_XSP16, literal(-12)))
          CFI (cfiCond58) V2 load(1, XDATA, add(CFA_XSP16, literal(-11)))
          CFI (cfiCond58) V3 load(1, XDATA, add(CFA_XSP16, literal(-10)))
          CFI (cfiCond58) V4 load(1, XDATA, add(CFA_XSP16, literal(-9)))
          CFI (cfiCond58) V5 load(1, XDATA, add(CFA_XSP16, literal(-8)))
          CFI (cfiCond58) V6 load(1, XDATA, add(CFA_XSP16, literal(-7)))
          CFI (cfiCond58) R7 load(1, XDATA, add(CFA_XSP16, literal(-6)))
          CFI (cfiCond58) ?RET_LOW load(1, XDATA, add(CFA_XSP16, literal(-5)))
          CFI (cfiCond58) ?RET_HIGH load(1, XDATA, add(CFA_XSP16, literal(-4)))
          CFI (cfiCond58) ?BRET_EXT load(1, XDATA, add(CFA_XSP16, literal(-3)))
          CFI (cfiCond58) DPL0 load(1, XDATA, add(CFA_XSP16, literal(-2)))
          CFI (cfiCond58) DPH0 load(1, XDATA, add(CFA_XSP16, literal(-1)))
          CFI (cfiCond58) CFA_SP SP+-4
          CFI (cfiCond58) CFA_XSP16 add(XSP16, 15)
          CFI Block cfiCond59 Using cfiCommon0
          CFI (cfiCond59) Function MT_BuildEndpointDesc
          CFI (cfiCond59) Conditional ??CrossCallReturnLabel_39, ??CrossCallReturnLabel_30
          CFI (cfiCond59) R6 load(1, XDATA, add(CFA_XSP16, literal(-15)))
          CFI (cfiCond59) VB load(1, XDATA, add(CFA_XSP16, literal(-14)))
          CFI (cfiCond59) V0 load(1, XDATA, add(CFA_XSP16, literal(-13)))
          CFI (cfiCond59) V1 load(1, XDATA, add(CFA_XSP16, literal(-12)))
          CFI (cfiCond59) V2 load(1, XDATA, add(CFA_XSP16, literal(-11)))
          CFI (cfiCond59) V3 load(1, XDATA, add(CFA_XSP16, literal(-10)))
          CFI (cfiCond59) V4 load(1, XDATA, add(CFA_XSP16, literal(-9)))
          CFI (cfiCond59) V5 load(1, XDATA, add(CFA_XSP16, literal(-8)))
          CFI (cfiCond59) V6 load(1, XDATA, add(CFA_XSP16, literal(-7)))
          CFI (cfiCond59) R7 load(1, XDATA, add(CFA_XSP16, literal(-6)))
          CFI (cfiCond59) ?RET_LOW load(1, XDATA, add(CFA_XSP16, literal(-5)))
          CFI (cfiCond59) ?RET_HIGH load(1, XDATA, add(CFA_XSP16, literal(-4)))
          CFI (cfiCond59) ?BRET_EXT load(1, XDATA, add(CFA_XSP16, literal(-3)))
          CFI (cfiCond59) DPL0 load(1, XDATA, add(CFA_XSP16, literal(-2)))
          CFI (cfiCond59) DPH0 load(1, XDATA, add(CFA_XSP16, literal(-1)))
          CFI (cfiCond59) CFA_SP SP+-4
          CFI (cfiCond59) CFA_XSP16 add(XSP16, 15)
          CFI Block cfiPicker60 Using cfiCommon1
          CFI (cfiPicker60) NoFunction
          CFI (cfiPicker60) Picker
        ADD     A,#0x9
        MOV     DPL,A
        CLR     A
        ADDC    A,R0
        MOV     DPH,A
        RET
          CFI EndBlock cfiCond55
          CFI EndBlock cfiCond56
          CFI EndBlock cfiCond57
          CFI EndBlock cfiCond58
          CFI EndBlock cfiCond59
          CFI EndBlock cfiPicker60

        RSEG BANKED_CODE:CODE:NOROOT(0)
?Subroutine4:
          CFI Block cfiCond61 Using cfiCommon0
          CFI Function MT_BuildEndpointDesc
          CFI Conditional ??CrossCallReturnLabel_7
          CFI R6 load(1, XDATA, add(CFA_XSP16, literal(-15)))
          CFI VB load(1, XDATA, add(CFA_XSP16, literal(-14)))
          CFI V0 load(1, XDATA, add(CFA_XSP16, literal(-13)))
          CFI V1 load(1, XDATA, add(CFA_XSP16, literal(-12)))
          CFI V2 load(1, XDATA, add(CFA_XSP16, literal(-11)))
          CFI V3 load(1, XDATA, add(CFA_XSP16, literal(-10)))
          CFI V4 load(1, XDATA, add(CFA_XSP16, literal(-9)))
          CFI V5 load(1, XDATA, add(CFA_XSP16, literal(-8)))
          CFI V6 load(1, XDATA, add(CFA_XSP16, literal(-7)))
          CFI R7 load(1, XDATA, add(CFA_XSP16, literal(-6)))
          CFI ?RET_LOW load(1, XDATA, add(CFA_XSP16, literal(-5)))
          CFI ?RET_HIGH load(1, XDATA, add(CFA_XSP16, literal(-4)))
          CFI ?BRET_EXT load(1, XDATA, add(CFA_XSP16, literal(-3)))
          CFI DPL0 load(1, XDATA, add(CFA_XSP16, literal(-2)))
          CFI DPH0 load(1, XDATA, add(CFA_XSP16, literal(-1)))
          CFI CFA_SP SP+-2
          CFI CFA_XSP16 add(XSP16, 15)
          CFI Block cfiCond62 Using cfiCommon0
          CFI (cfiCond62) Function MT_BuildEndpointDesc
          CFI (cfiCond62) Conditional ??CrossCallReturnLabel_8
          CFI (cfiCond62) R6 load(1, XDATA, add(CFA_XSP16, literal(-15)))
          CFI (cfiCond62) VB load(1, XDATA, add(CFA_XSP16, literal(-14)))
          CFI (cfiCond62) V0 load(1, XDATA, add(CFA_XSP16, literal(-13)))
          CFI (cfiCond62) V1 load(1, XDATA, add(CFA_XSP16, literal(-12)))
          CFI (cfiCond62) V2 load(1, XDATA, add(CFA_XSP16, literal(-11)))
          CFI (cfiCond62) V3 load(1, XDATA, add(CFA_XSP16, literal(-10)))
          CFI (cfiCond62) V4 load(1, XDATA, add(CFA_XSP16, literal(-9)))
          CFI (cfiCond62) V5 load(1, XDATA, add(CFA_XSP16, literal(-8)))
          CFI (cfiCond62) V6 load(1, XDATA, add(CFA_XSP16, literal(-7)))
          CFI (cfiCond62) R7 load(1, XDATA, add(CFA_XSP16, literal(-6)))
          CFI (cfiCond62) ?RET_LOW load(1, XDATA, add(CFA_XSP16, literal(-5)))
          CFI (cfiCond62) ?RET_HIGH load(1, XDATA, add(CFA_XSP16, literal(-4)))
          CFI (cfiCond62) ?BRET_EXT load(1, XDATA, add(CFA_XSP16, literal(-3)))
          CFI (cfiCond62) DPL0 load(1, XDATA, add(CFA_XSP16, literal(-2)))
          CFI (cfiCond62) DPH0 load(1, XDATA, add(CFA_XSP16, literal(-1)))
          CFI (cfiCond62) CFA_SP SP+-2
          CFI (cfiCond62) CFA_XSP16 add(XSP16, 15)
          CFI Block cfiPicker63 Using cfiCommon1
          CFI (cfiPicker63) NoFunction
          CFI (cfiPicker63) Picker
        MOV     DPL,A
        CLR     A
        ADDC    A,R2
        MOV     DPH,A
        MOVX    A,@DPTR
        ADD     A,R0
        MOV     R2,A
        INC     DPTR
        MOVX    A,@DPTR
        ADDC    A,R1
        MOV     DPL,R2
        MOV     DPH,A
        MOV     A,R4
        MOVX    @DPTR,A
        INC     DPTR
        MOV     A,R5
        MOVX    @DPTR,A
        MOV     A,R6
        ADD     A,#0x2
        MOV     R6,A
        RET
          CFI EndBlock cfiCond61
          CFI EndBlock cfiCond62
          CFI EndBlock cfiPicker63

        RSEG BANKED_CODE:CODE:NOROOT(0)
?Subroutine3:
          CFI Block cfiCond64 Using cfiCommon0
          CFI Function MT_BuildEndpointDesc
          CFI Conditional ??CrossCallReturnLabel_5
          CFI R6 load(1, XDATA, add(CFA_XSP16, literal(-15)))
          CFI VB load(1, XDATA, add(CFA_XSP16, literal(-14)))
          CFI V0 load(1, XDATA, add(CFA_XSP16, literal(-13)))
          CFI V1 load(1, XDATA, add(CFA_XSP16, literal(-12)))
          CFI V2 load(1, XDATA, add(CFA_XSP16, literal(-11)))
          CFI V3 load(1, XDATA, add(CFA_XSP16, literal(-10)))
          CFI V4 load(1, XDATA, add(CFA_XSP16, literal(-9)))
          CFI V5 load(1, XDATA, add(CFA_XSP16, literal(-8)))
          CFI V6 load(1, XDATA, add(CFA_XSP16, literal(-7)))
          CFI R7 load(1, XDATA, add(CFA_XSP16, literal(-6)))
          CFI ?RET_LOW load(1, XDATA, add(CFA_XSP16, literal(-5)))
          CFI ?RET_HIGH load(1, XDATA, add(CFA_XSP16, literal(-4)))
          CFI ?BRET_EXT load(1, XDATA, add(CFA_XSP16, literal(-3)))
          CFI DPL0 load(1, XDATA, add(CFA_XSP16, literal(-2)))
          CFI DPH0 load(1, XDATA, add(CFA_XSP16, literal(-1)))
          CFI CFA_SP SP+-2
          CFI CFA_XSP16 add(XSP16, 15)
          CFI Block cfiCond65 Using cfiCommon0
          CFI (cfiCond65) Function MT_BuildEndpointDesc
          CFI (cfiCond65) Conditional ??CrossCallReturnLabel_6
          CFI (cfiCond65) R6 load(1, XDATA, add(CFA_XSP16, literal(-15)))
          CFI (cfiCond65) VB load(1, XDATA, add(CFA_XSP16, literal(-14)))
          CFI (cfiCond65) V0 load(1, XDATA, add(CFA_XSP16, literal(-13)))
          CFI (cfiCond65) V1 load(1, XDATA, add(CFA_XSP16, literal(-12)))
          CFI (cfiCond65) V2 load(1, XDATA, add(CFA_XSP16, literal(-11)))
          CFI (cfiCond65) V3 load(1, XDATA, add(CFA_XSP16, literal(-10)))
          CFI (cfiCond65) V4 load(1, XDATA, add(CFA_XSP16, literal(-9)))
          CFI (cfiCond65) V5 load(1, XDATA, add(CFA_XSP16, literal(-8)))
          CFI (cfiCond65) V6 load(1, XDATA, add(CFA_XSP16, literal(-7)))
          CFI (cfiCond65) R7 load(1, XDATA, add(CFA_XSP16, literal(-6)))
          CFI (cfiCond65) ?RET_LOW load(1, XDATA, add(CFA_XSP16, literal(-5)))
          CFI (cfiCond65) ?RET_HIGH load(1, XDATA, add(CFA_XSP16, literal(-4)))
          CFI (cfiCond65) ?BRET_EXT load(1, XDATA, add(CFA_XSP16, literal(-3)))
          CFI (cfiCond65) DPL0 load(1, XDATA, add(CFA_XSP16, literal(-2)))
          CFI (cfiCond65) DPH0 load(1, XDATA, add(CFA_XSP16, literal(-1)))
          CFI (cfiCond65) CFA_SP SP+-2
          CFI (cfiCond65) CFA_XSP16 add(XSP16, 15)
          CFI Block cfiPicker66 Using cfiCommon1
          CFI (cfiPicker66) NoFunction
          CFI (cfiPicker66) Picker
        MOVX    @DPTR,A
        MOV     DPL,R6
        MOV     DPH,R7
        INC     DPTR
        MOV     R6,DPL
        MOV     R7,DPH
        RET
          CFI EndBlock cfiCond64
          CFI EndBlock cfiCond65
          CFI EndBlock cfiPicker66

        RSEG BANKED_CODE:CODE:NOROOT(0)
?Subroutine2:
          CFI Block cfiCond67 Using cfiCommon0
          CFI Function MT_BuildAndSendZToolResponse
          CFI Conditional ??CrossCallReturnLabel_2
          CFI R6 load(1, XDATA, add(CFA_XSP16, literal(-16)))
          CFI VB load(1, XDATA, add(CFA_XSP16, literal(-15)))
          CFI V0 load(1, XDATA, add(CFA_XSP16, literal(-14)))
          CFI V1 load(1, XDATA, add(CFA_XSP16, literal(-13)))
          CFI V2 load(1, XDATA, add(CFA_XSP16, literal(-12)))
          CFI V3 load(1, XDATA, add(CFA_XSP16, literal(-11)))
          CFI V4 load(1, XDATA, add(CFA_XSP16, literal(-10)))
          CFI V5 load(1, XDATA, add(CFA_XSP16, literal(-9)))
          CFI V6 load(1, XDATA, add(CFA_XSP16, literal(-8)))
          CFI V7 load(1, XDATA, add(CFA_XSP16, literal(-7)))
          CFI R7 load(1, XDATA, add(CFA_XSP16, literal(-6)))
          CFI ?RET_LOW load(1, XDATA, add(CFA_XSP16, literal(-5)))
          CFI ?RET_HIGH load(1, XDATA, add(CFA_XSP16, literal(-4)))
          CFI ?BRET_EXT load(1, XDATA, add(CFA_XSP16, literal(-3)))
          CFI DPL0 load(1, XDATA, add(CFA_XSP16, literal(-2)))
          CFI DPH0 load(1, XDATA, add(CFA_XSP16, literal(-1)))
          CFI CFA_SP SP+-2
          CFI CFA_XSP16 add(XSP16, 16)
          CFI Block cfiCond68 Using cfiCommon0
          CFI (cfiCond68) Function MT_BuildEndpointDesc
          CFI (cfiCond68) Conditional ??CrossCallReturnLabel_3
          CFI (cfiCond68) R6 load(1, XDATA, add(CFA_XSP16, literal(-15)))
          CFI (cfiCond68) VB load(1, XDATA, add(CFA_XSP16, literal(-14)))
          CFI (cfiCond68) V0 load(1, XDATA, add(CFA_XSP16, literal(-13)))
          CFI (cfiCond68) V1 load(1, XDATA, add(CFA_XSP16, literal(-12)))
          CFI (cfiCond68) V2 load(1, XDATA, add(CFA_XSP16, literal(-11)))
          CFI (cfiCond68) V3 load(1, XDATA, add(CFA_XSP16, literal(-10)))
          CFI (cfiCond68) V4 load(1, XDATA, add(CFA_XSP16, literal(-9)))
          CFI (cfiCond68) V5 load(1, XDATA, add(CFA_XSP16, literal(-8)))
          CFI (cfiCond68) V6 load(1, XDATA, add(CFA_XSP16, literal(-7)))
          CFI (cfiCond68) R7 load(1, XDATA, add(CFA_XSP16, literal(-6)))
          CFI (cfiCond68) ?RET_LOW load(1, XDATA, add(CFA_XSP16, literal(-5)))
          CFI (cfiCond68) ?RET_HIGH load(1, XDATA, add(CFA_XSP16, literal(-4)))
          CFI (cfiCond68) ?BRET_EXT load(1, XDATA, add(CFA_XSP16, literal(-3)))
          CFI (cfiCond68) DPL0 load(1, XDATA, add(CFA_XSP16, literal(-2)))
          CFI (cfiCond68) DPH0 load(1, XDATA, add(CFA_XSP16, literal(-1)))
          CFI (cfiCond68) CFA_SP SP+-2
          CFI (cfiCond68) CFA_XSP16 add(XSP16, 15)
          CFI Block cfiCond69 Using cfiCommon0
          CFI (cfiCond69) Function MT_BuildEndpointDesc
          CFI (cfiCond69) Conditional ??CrossCallReturnLabel_4
          CFI (cfiCond69) R6 load(1, XDATA, add(CFA_XSP16, literal(-15)))
          CFI (cfiCond69) VB load(1, XDATA, add(CFA_XSP16, literal(-14)))
          CFI (cfiCond69) V0 load(1, XDATA, add(CFA_XSP16, literal(-13)))
          CFI (cfiCond69) V1 load(1, XDATA, add(CFA_XSP16, literal(-12)))
          CFI (cfiCond69) V2 load(1, XDATA, add(CFA_XSP16, literal(-11)))
          CFI (cfiCond69) V3 load(1, XDATA, add(CFA_XSP16, literal(-10)))
          CFI (cfiCond69) V4 load(1, XDATA, add(CFA_XSP16, literal(-9)))
          CFI (cfiCond69) V5 load(1, XDATA, add(CFA_XSP16, literal(-8)))
          CFI (cfiCond69) V6 load(1, XDATA, add(CFA_XSP16, literal(-7)))
          CFI (cfiCond69) R7 load(1, XDATA, add(CFA_XSP16, literal(-6)))
          CFI (cfiCond69) ?RET_LOW load(1, XDATA, add(CFA_XSP16, literal(-5)))
          CFI (cfiCond69) ?RET_HIGH load(1, XDATA, add(CFA_XSP16, literal(-4)))
          CFI (cfiCond69) ?BRET_EXT load(1, XDATA, add(CFA_XSP16, literal(-3)))
          CFI (cfiCond69) DPL0 load(1, XDATA, add(CFA_XSP16, literal(-2)))
          CFI (cfiCond69) DPH0 load(1, XDATA, add(CFA_XSP16, literal(-1)))
          CFI (cfiCond69) CFA_SP SP+-2
          CFI (cfiCond69) CFA_XSP16 add(XSP16, 15)
          CFI Block cfiPicker70 Using cfiCommon1
          CFI (cfiPicker70) NoFunction
          CFI (cfiPicker70) Picker
        MOVX    @DPTR,A
        MOV     DPL,R6
        MOV     DPH,R7
        INC     DPTR
        INC     DPTR
        RET
          CFI EndBlock cfiCond67
          CFI EndBlock cfiCond68
          CFI EndBlock cfiCond69
          CFI EndBlock cfiPicker70

        RSEG BANKED_CODE:CODE:NOROOT(0)
?Subroutine1:
          CFI Block cfiCond71 Using cfiCommon0
          CFI Function MT_BuildEndpointDesc
          CFI Conditional ??CrossCallReturnLabel_0
          CFI R6 load(1, XDATA, add(CFA_XSP16, literal(-15)))
          CFI VB load(1, XDATA, add(CFA_XSP16, literal(-14)))
          CFI V0 load(1, XDATA, add(CFA_XSP16, literal(-13)))
          CFI V1 load(1, XDATA, add(CFA_XSP16, literal(-12)))
          CFI V2 load(1, XDATA, add(CFA_XSP16, literal(-11)))
          CFI V3 load(1, XDATA, add(CFA_XSP16, literal(-10)))
          CFI V4 load(1, XDATA, add(CFA_XSP16, literal(-9)))
          CFI V5 load(1, XDATA, add(CFA_XSP16, literal(-8)))
          CFI V6 load(1, XDATA, add(CFA_XSP16, literal(-7)))
          CFI R7 load(1, XDATA, add(CFA_XSP16, literal(-6)))
          CFI ?RET_LOW load(1, XDATA, add(CFA_XSP16, literal(-5)))
          CFI ?RET_HIGH load(1, XDATA, add(CFA_XSP16, literal(-4)))
          CFI ?BRET_EXT load(1, XDATA, add(CFA_XSP16, literal(-3)))
          CFI DPL0 load(1, XDATA, add(CFA_XSP16, literal(-2)))
          CFI DPH0 load(1, XDATA, add(CFA_XSP16, literal(-1)))
          CFI CFA_SP SP+-2
          CFI CFA_XSP16 add(XSP16, 15)
          CFI Block cfiCond72 Using cfiCommon0
          CFI (cfiCond72) Function MT_BuildEndpointDesc
          CFI (cfiCond72) Conditional ??CrossCallReturnLabel_1
          CFI (cfiCond72) R6 load(1, XDATA, add(CFA_XSP16, literal(-15)))
          CFI (cfiCond72) VB load(1, XDATA, add(CFA_XSP16, literal(-14)))
          CFI (cfiCond72) V0 load(1, XDATA, add(CFA_XSP16, literal(-13)))
          CFI (cfiCond72) V1 load(1, XDATA, add(CFA_XSP16, literal(-12)))
          CFI (cfiCond72) V2 load(1, XDATA, add(CFA_XSP16, literal(-11)))
          CFI (cfiCond72) V3 load(1, XDATA, add(CFA_XSP16, literal(-10)))
          CFI (cfiCond72) V4 load(1, XDATA, add(CFA_XSP16, literal(-9)))
          CFI (cfiCond72) V5 load(1, XDATA, add(CFA_XSP16, literal(-8)))
          CFI (cfiCond72) V6 load(1, XDATA, add(CFA_XSP16, literal(-7)))
          CFI (cfiCond72) R7 load(1, XDATA, add(CFA_XSP16, literal(-6)))
          CFI (cfiCond72) ?RET_LOW load(1, XDATA, add(CFA_XSP16, literal(-5)))
          CFI (cfiCond72) ?RET_HIGH load(1, XDATA, add(CFA_XSP16, literal(-4)))
          CFI (cfiCond72) ?BRET_EXT load(1, XDATA, add(CFA_XSP16, literal(-3)))
          CFI (cfiCond72) DPL0 load(1, XDATA, add(CFA_XSP16, literal(-2)))
          CFI (cfiCond72) DPH0 load(1, XDATA, add(CFA_XSP16, literal(-1)))
          CFI (cfiCond72) CFA_SP SP+-2
          CFI (cfiCond72) CFA_XSP16 add(XSP16, 15)
          CFI Block cfiPicker73 Using cfiCommon1
          CFI (cfiPicker73) NoFunction
          CFI (cfiPicker73) Picker
        MOV     DPL,A
        CLR     A
        ADDC    A,R0
        MOV     DPH,A
        MOV     A,R2
        MOVX    @DPTR,A
        INC     DPTR
        MOV     A,R3
        MOVX    @DPTR,A
        MOV     DPL,?V0
        MOV     DPH,?V1
        LCALL   ?Subroutine12 & 0xFFFF
??CrossCallReturnLabel_33:
        RET
          CFI EndBlock cfiCond71
          CFI EndBlock cfiCond72
          CFI EndBlock cfiPicker73

        RSEG BANKED_CODE:CODE:NOROOT(0)
?Subroutine12:
          CFI Block cfiCond74 Using cfiCommon0
          CFI Function MT_BuildEndpointDesc
          CFI Conditional ??CrossCallReturnLabel_35, ??CrossCallReturnLabel_20
          CFI R6 load(1, XDATA, add(CFA_XSP16, literal(-15)))
          CFI VB load(1, XDATA, add(CFA_XSP16, literal(-14)))
          CFI V0 load(1, XDATA, add(CFA_XSP16, literal(-13)))
          CFI V1 load(1, XDATA, add(CFA_XSP16, literal(-12)))
          CFI V2 load(1, XDATA, add(CFA_XSP16, literal(-11)))
          CFI V3 load(1, XDATA, add(CFA_XSP16, literal(-10)))
          CFI V4 load(1, XDATA, add(CFA_XSP16, literal(-9)))
          CFI V5 load(1, XDATA, add(CFA_XSP16, literal(-8)))
          CFI V6 load(1, XDATA, add(CFA_XSP16, literal(-7)))
          CFI R7 load(1, XDATA, add(CFA_XSP16, literal(-6)))
          CFI ?RET_LOW load(1, XDATA, add(CFA_XSP16, literal(-5)))
          CFI ?RET_HIGH load(1, XDATA, add(CFA_XSP16, literal(-4)))
          CFI ?BRET_EXT load(1, XDATA, add(CFA_XSP16, literal(-3)))
          CFI DPL0 load(1, XDATA, add(CFA_XSP16, literal(-2)))
          CFI DPH0 load(1, XDATA, add(CFA_XSP16, literal(-1)))
          CFI CFA_SP SP+-5
          CFI CFA_XSP16 add(XSP16, 15)
          CFI Block cfiCond75 Using cfiCommon0
          CFI (cfiCond75) Function MT_BuildEndpointDesc
          CFI (cfiCond75) Conditional ??CrossCallReturnLabel_35, ??CrossCallReturnLabel_21
          CFI (cfiCond75) R6 load(1, XDATA, add(CFA_XSP16, literal(-15)))
          CFI (cfiCond75) VB load(1, XDATA, add(CFA_XSP16, literal(-14)))
          CFI (cfiCond75) V0 load(1, XDATA, add(CFA_XSP16, literal(-13)))
          CFI (cfiCond75) V1 load(1, XDATA, add(CFA_XSP16, literal(-12)))
          CFI (cfiCond75) V2 load(1, XDATA, add(CFA_XSP16, literal(-11)))
          CFI (cfiCond75) V3 load(1, XDATA, add(CFA_XSP16, literal(-10)))
          CFI (cfiCond75) V4 load(1, XDATA, add(CFA_XSP16, literal(-9)))
          CFI (cfiCond75) V5 load(1, XDATA, add(CFA_XSP16, literal(-8)))
          CFI (cfiCond75) V6 load(1, XDATA, add(CFA_XSP16, literal(-7)))
          CFI (cfiCond75) R7 load(1, XDATA, add(CFA_XSP16, literal(-6)))
          CFI (cfiCond75) ?RET_LOW load(1, XDATA, add(CFA_XSP16, literal(-5)))
          CFI (cfiCond75) ?RET_HIGH load(1, XDATA, add(CFA_XSP16, literal(-4)))
          CFI (cfiCond75) ?BRET_EXT load(1, XDATA, add(CFA_XSP16, literal(-3)))
          CFI (cfiCond75) DPL0 load(1, XDATA, add(CFA_XSP16, literal(-2)))
          CFI (cfiCond75) DPH0 load(1, XDATA, add(CFA_XSP16, literal(-1)))
          CFI (cfiCond75) CFA_SP SP+-4
          CFI (cfiCond75) CFA_XSP16 add(XSP16, 15)
          CFI Block cfiCond76 Using cfiCommon0
          CFI (cfiCond76) Function MT_BuildEndpointDesc
          CFI (cfiCond76) Conditional ??CrossCallReturnLabel_35, ??CrossCallReturnLabel_22
          CFI (cfiCond76) R6 load(1, XDATA, add(CFA_XSP16, literal(-15)))
          CFI (cfiCond76) VB load(1, XDATA, add(CFA_XSP16, literal(-14)))
          CFI (cfiCond76) V0 load(1, XDATA, add(CFA_XSP16, literal(-13)))
          CFI (cfiCond76) V1 load(1, XDATA, add(CFA_XSP16, literal(-12)))
          CFI (cfiCond76) V2 load(1, XDATA, add(CFA_XSP16, literal(-11)))
          CFI (cfiCond76) V3 load(1, XDATA, add(CFA_XSP16, literal(-10)))
          CFI (cfiCond76) V4 load(1, XDATA, add(CFA_XSP16, literal(-9)))
          CFI (cfiCond76) V5 load(1, XDATA, add(CFA_XSP16, literal(-8)))
          CFI (cfiCond76) V6 load(1, XDATA, add(CFA_XSP16, literal(-7)))
          CFI (cfiCond76) R7 load(1, XDATA, add(CFA_XSP16, literal(-6)))
          CFI (cfiCond76) ?RET_LOW load(1, XDATA, add(CFA_XSP16, literal(-5)))
          CFI (cfiCond76) ?RET_HIGH load(1, XDATA, add(CFA_XSP16, literal(-4)))
          CFI (cfiCond76) ?BRET_EXT load(1, XDATA, add(CFA_XSP16, literal(-3)))
          CFI (cfiCond76) DPL0 load(1, XDATA, add(CFA_XSP16, literal(-2)))
          CFI (cfiCond76) DPH0 load(1, XDATA, add(CFA_XSP16, literal(-1)))
          CFI (cfiCond76) CFA_SP SP+-5
          CFI (cfiCond76) CFA_XSP16 add(XSP16, 15)
          CFI Block cfiCond77 Using cfiCommon0
          CFI (cfiCond77) Function MT_BuildEndpointDesc
          CFI (cfiCond77) Conditional ??CrossCallReturnLabel_35, ??CrossCallReturnLabel_23
          CFI (cfiCond77) R6 load(1, XDATA, add(CFA_XSP16, literal(-15)))
          CFI (cfiCond77) VB load(1, XDATA, add(CFA_XSP16, literal(-14)))
          CFI (cfiCond77) V0 load(1, XDATA, add(CFA_XSP16, literal(-13)))
          CFI (cfiCond77) V1 load(1, XDATA, add(CFA_XSP16, literal(-12)))
          CFI (cfiCond77) V2 load(1, XDATA, add(CFA_XSP16, literal(-11)))
          CFI (cfiCond77) V3 load(1, XDATA, add(CFA_XSP16, literal(-10)))
          CFI (cfiCond77) V4 load(1, XDATA, add(CFA_XSP16, literal(-9)))
          CFI (cfiCond77) V5 load(1, XDATA, add(CFA_XSP16, literal(-8)))
          CFI (cfiCond77) V6 load(1, XDATA, add(CFA_XSP16, literal(-7)))
          CFI (cfiCond77) R7 load(1, XDATA, add(CFA_XSP16, literal(-6)))
          CFI (cfiCond77) ?RET_LOW load(1, XDATA, add(CFA_XSP16, literal(-5)))
          CFI (cfiCond77) ?RET_HIGH load(1, XDATA, add(CFA_XSP16, literal(-4)))
          CFI (cfiCond77) ?BRET_EXT load(1, XDATA, add(CFA_XSP16, literal(-3)))
          CFI (cfiCond77) DPL0 load(1, XDATA, add(CFA_XSP16, literal(-2)))
          CFI (cfiCond77) DPH0 load(1, XDATA, add(CFA_XSP16, literal(-1)))
          CFI (cfiCond77) CFA_SP SP+-4
          CFI (cfiCond77) CFA_XSP16 add(XSP16, 15)
          CFI Block cfiCond78 Using cfiCommon0
          CFI (cfiCond78) Function MT_BuildEndpointDesc
          CFI (cfiCond78) Conditional ??CrossCallReturnLabel_35, ??CrossCallReturnLabel_19
          CFI (cfiCond78) R6 load(1, XDATA, add(CFA_XSP16, literal(-15)))
          CFI (cfiCond78) VB load(1, XDATA, add(CFA_XSP16, literal(-14)))
          CFI (cfiCond78) V0 load(1, XDATA, add(CFA_XSP16, literal(-13)))
          CFI (cfiCond78) V1 load(1, XDATA, add(CFA_XSP16, literal(-12)))
          CFI (cfiCond78) V2 load(1, XDATA, add(CFA_XSP16, literal(-11)))
          CFI (cfiCond78) V3 load(1, XDATA, add(CFA_XSP16, literal(-10)))
          CFI (cfiCond78) V4 load(1, XDATA, add(CFA_XSP16, literal(-9)))
          CFI (cfiCond78) V5 load(1, XDATA, add(CFA_XSP16, literal(-8)))
          CFI (cfiCond78) V6 load(1, XDATA, add(CFA_XSP16, literal(-7)))
          CFI (cfiCond78) R7 load(1, XDATA, add(CFA_XSP16, literal(-6)))
          CFI (cfiCond78) ?RET_LOW load(1, XDATA, add(CFA_XSP16, literal(-5)))
          CFI (cfiCond78) ?RET_HIGH load(1, XDATA, add(CFA_XSP16, literal(-4)))
          CFI (cfiCond78) ?BRET_EXT load(1, XDATA, add(CFA_XSP16, literal(-3)))
          CFI (cfiCond78) DPL0 load(1, XDATA, add(CFA_XSP16, literal(-2)))
          CFI (cfiCond78) DPH0 load(1, XDATA, add(CFA_XSP16, literal(-1)))
          CFI (cfiCond78) CFA_SP SP+-4
          CFI (cfiCond78) CFA_XSP16 add(XSP16, 15)
          CFI Block cfiCond79 Using cfiCommon0
          CFI (cfiCond79) Function MT_BuildEndpointDesc
          CFI (cfiCond79) Conditional ??CrossCallReturnLabel_34, ??CrossCallReturnLabel_13
          CFI (cfiCond79) R6 load(1, XDATA, add(CFA_XSP16, literal(-15)))
          CFI (cfiCond79) VB load(1, XDATA, add(CFA_XSP16, literal(-14)))
          CFI (cfiCond79) V0 load(1, XDATA, add(CFA_XSP16, literal(-13)))
          CFI (cfiCond79) V1 load(1, XDATA, add(CFA_XSP16, literal(-12)))
          CFI (cfiCond79) V2 load(1, XDATA, add(CFA_XSP16, literal(-11)))
          CFI (cfiCond79) V3 load(1, XDATA, add(CFA_XSP16, literal(-10)))
          CFI (cfiCond79) V4 load(1, XDATA, add(CFA_XSP16, literal(-9)))
          CFI (cfiCond79) V5 load(1, XDATA, add(CFA_XSP16, literal(-8)))
          CFI (cfiCond79) V6 load(1, XDATA, add(CFA_XSP16, literal(-7)))
          CFI (cfiCond79) R7 load(1, XDATA, add(CFA_XSP16, literal(-6)))
          CFI (cfiCond79) ?RET_LOW load(1, XDATA, add(CFA_XSP16, literal(-5)))
          CFI (cfiCond79) ?RET_HIGH load(1, XDATA, add(CFA_XSP16, literal(-4)))
          CFI (cfiCond79) ?BRET_EXT load(1, XDATA, add(CFA_XSP16, literal(-3)))
          CFI (cfiCond79) DPL0 load(1, XDATA, add(CFA_XSP16, literal(-2)))
          CFI (cfiCond79) DPH0 load(1, XDATA, add(CFA_XSP16, literal(-1)))
          CFI (cfiCond79) CFA_SP SP+-4
          CFI (cfiCond79) CFA_XSP16 add(XSP16, 15)
          CFI Block cfiCond80 Using cfiCommon0
          CFI (cfiCond80) Function MT_BuildEndpointDesc
          CFI (cfiCond80) Conditional ??CrossCallReturnLabel_34, ??CrossCallReturnLabel_14
          CFI (cfiCond80) R6 load(1, XDATA, add(CFA_XSP16, literal(-15)))
          CFI (cfiCond80) VB load(1, XDATA, add(CFA_XSP16, literal(-14)))
          CFI (cfiCond80) V0 load(1, XDATA, add(CFA_XSP16, literal(-13)))
          CFI (cfiCond80) V1 load(1, XDATA, add(CFA_XSP16, literal(-12)))
          CFI (cfiCond80) V2 load(1, XDATA, add(CFA_XSP16, literal(-11)))
          CFI (cfiCond80) V3 load(1, XDATA, add(CFA_XSP16, literal(-10)))
          CFI (cfiCond80) V4 load(1, XDATA, add(CFA_XSP16, literal(-9)))
          CFI (cfiCond80) V5 load(1, XDATA, add(CFA_XSP16, literal(-8)))
          CFI (cfiCond80) V6 load(1, XDATA, add(CFA_XSP16, literal(-7)))
          CFI (cfiCond80) R7 load(1, XDATA, add(CFA_XSP16, literal(-6)))
          CFI (cfiCond80) ?RET_LOW load(1, XDATA, add(CFA_XSP16, literal(-5)))
          CFI (cfiCond80) ?RET_HIGH load(1, XDATA, add(CFA_XSP16, literal(-4)))
          CFI (cfiCond80) ?BRET_EXT load(1, XDATA, add(CFA_XSP16, literal(-3)))
          CFI (cfiCond80) DPL0 load(1, XDATA, add(CFA_XSP16, literal(-2)))
          CFI (cfiCond80) DPH0 load(1, XDATA, add(CFA_XSP16, literal(-1)))
          CFI (cfiCond80) CFA_SP SP+-4
          CFI (cfiCond80) CFA_XSP16 add(XSP16, 15)
          CFI Block cfiCond81 Using cfiCommon0
          CFI (cfiCond81) Function MT_BuildEndpointDesc
          CFI (cfiCond81) Conditional ??CrossCallReturnLabel_36, ??CrossCallReturnLabel_25
          CFI (cfiCond81) R6 load(1, XDATA, add(CFA_XSP16, literal(-15)))
          CFI (cfiCond81) VB load(1, XDATA, add(CFA_XSP16, literal(-14)))
          CFI (cfiCond81) V0 load(1, XDATA, add(CFA_XSP16, literal(-13)))
          CFI (cfiCond81) V1 load(1, XDATA, add(CFA_XSP16, literal(-12)))
          CFI (cfiCond81) V2 load(1, XDATA, add(CFA_XSP16, literal(-11)))
          CFI (cfiCond81) V3 load(1, XDATA, add(CFA_XSP16, literal(-10)))
          CFI (cfiCond81) V4 load(1, XDATA, add(CFA_XSP16, literal(-9)))
          CFI (cfiCond81) V5 load(1, XDATA, add(CFA_XSP16, literal(-8)))
          CFI (cfiCond81) V6 load(1, XDATA, add(CFA_XSP16, literal(-7)))
          CFI (cfiCond81) R7 load(1, XDATA, add(CFA_XSP16, literal(-6)))
          CFI (cfiCond81) ?RET_LOW load(1, XDATA, add(CFA_XSP16, literal(-5)))
          CFI (cfiCond81) ?RET_HIGH load(1, XDATA, add(CFA_XSP16, literal(-4)))
          CFI (cfiCond81) ?BRET_EXT load(1, XDATA, add(CFA_XSP16, literal(-3)))
          CFI (cfiCond81) DPL0 load(1, XDATA, add(CFA_XSP16, literal(-2)))
          CFI (cfiCond81) DPH0 load(1, XDATA, add(CFA_XSP16, literal(-1)))
          CFI (cfiCond81) CFA_SP SP+-4
          CFI (cfiCond81) CFA_XSP16 add(XSP16, 15)
          CFI Block cfiCond82 Using cfiCommon0
          CFI (cfiCond82) Function MT_BuildEndpointDesc
          CFI (cfiCond82) Conditional ??CrossCallReturnLabel_36, ??CrossCallReturnLabel_26
          CFI (cfiCond82) R6 load(1, XDATA, add(CFA_XSP16, literal(-15)))
          CFI (cfiCond82) VB load(1, XDATA, add(CFA_XSP16, literal(-14)))
          CFI (cfiCond82) V0 load(1, XDATA, add(CFA_XSP16, literal(-13)))
          CFI (cfiCond82) V1 load(1, XDATA, add(CFA_XSP16, literal(-12)))
          CFI (cfiCond82) V2 load(1, XDATA, add(CFA_XSP16, literal(-11)))
          CFI (cfiCond82) V3 load(1, XDATA, add(CFA_XSP16, literal(-10)))
          CFI (cfiCond82) V4 load(1, XDATA, add(CFA_XSP16, literal(-9)))
          CFI (cfiCond82) V5 load(1, XDATA, add(CFA_XSP16, literal(-8)))
          CFI (cfiCond82) V6 load(1, XDATA, add(CFA_XSP16, literal(-7)))
          CFI (cfiCond82) R7 load(1, XDATA, add(CFA_XSP16, literal(-6)))
          CFI (cfiCond82) ?RET_LOW load(1, XDATA, add(CFA_XSP16, literal(-5)))
          CFI (cfiCond82) ?RET_HIGH load(1, XDATA, add(CFA_XSP16, literal(-4)))
          CFI (cfiCond82) ?BRET_EXT load(1, XDATA, add(CFA_XSP16, literal(-3)))
          CFI (cfiCond82) DPL0 load(1, XDATA, add(CFA_XSP16, literal(-2)))
          CFI (cfiCond82) DPH0 load(1, XDATA, add(CFA_XSP16, literal(-1)))
          CFI (cfiCond82) CFA_SP SP+-4
          CFI (cfiCond82) CFA_XSP16 add(XSP16, 15)
          CFI Block cfiCond83 Using cfiCommon0
          CFI (cfiCond83) Function MT_BuildEndpointDesc
          CFI (cfiCond83) Conditional ??CrossCallReturnLabel_36, ??CrossCallReturnLabel_24
          CFI (cfiCond83) R6 load(1, XDATA, add(CFA_XSP16, literal(-15)))
          CFI (cfiCond83) VB load(1, XDATA, add(CFA_XSP16, literal(-14)))
          CFI (cfiCond83) V0 load(1, XDATA, add(CFA_XSP16, literal(-13)))
          CFI (cfiCond83) V1 load(1, XDATA, add(CFA_XSP16, literal(-12)))
          CFI (cfiCond83) V2 load(1, XDATA, add(CFA_XSP16, literal(-11)))
          CFI (cfiCond83) V3 load(1, XDATA, add(CFA_XSP16, literal(-10)))
          CFI (cfiCond83) V4 load(1, XDATA, add(CFA_XSP16, literal(-9)))
          CFI (cfiCond83) V5 load(1, XDATA, add(CFA_XSP16, literal(-8)))
          CFI (cfiCond83) V6 load(1, XDATA, add(CFA_XSP16, literal(-7)))
          CFI (cfiCond83) R7 load(1, XDATA, add(CFA_XSP16, literal(-6)))
          CFI (cfiCond83) ?RET_LOW load(1, XDATA, add(CFA_XSP16, literal(-5)))
          CFI (cfiCond83) ?RET_HIGH load(1, XDATA, add(CFA_XSP16, literal(-4)))
          CFI (cfiCond83) ?BRET_EXT load(1, XDATA, add(CFA_XSP16, literal(-3)))
          CFI (cfiCond83) DPL0 load(1, XDATA, add(CFA_XSP16, literal(-2)))
          CFI (cfiCond83) DPH0 load(1, XDATA, add(CFA_XSP16, literal(-1)))
          CFI (cfiCond83) CFA_SP SP+-4
          CFI (cfiCond83) CFA_XSP16 add(XSP16, 15)
          CFI Block cfiCond84 Using cfiCommon0
          CFI (cfiCond84) Function MT_BuildEndpointDesc
          CFI (cfiCond84) Conditional ??CrossCallReturnLabel_37, ??CrossCallReturnLabel_31
          CFI (cfiCond84) R6 load(1, XDATA, add(CFA_XSP16, literal(-15)))
          CFI (cfiCond84) VB load(1, XDATA, add(CFA_XSP16, literal(-14)))
          CFI (cfiCond84) V0 load(1, XDATA, add(CFA_XSP16, literal(-13)))
          CFI (cfiCond84) V1 load(1, XDATA, add(CFA_XSP16, literal(-12)))
          CFI (cfiCond84) V2 load(1, XDATA, add(CFA_XSP16, literal(-11)))
          CFI (cfiCond84) V3 load(1, XDATA, add(CFA_XSP16, literal(-10)))
          CFI (cfiCond84) V4 load(1, XDATA, add(CFA_XSP16, literal(-9)))
          CFI (cfiCond84) V5 load(1, XDATA, add(CFA_XSP16, literal(-8)))
          CFI (cfiCond84) V6 load(1, XDATA, add(CFA_XSP16, literal(-7)))
          CFI (cfiCond84) R7 load(1, XDATA, add(CFA_XSP16, literal(-6)))
          CFI (cfiCond84) ?RET_LOW load(1, XDATA, add(CFA_XSP16, literal(-5)))
          CFI (cfiCond84) ?RET_HIGH load(1, XDATA, add(CFA_XSP16, literal(-4)))
          CFI (cfiCond84) ?BRET_EXT load(1, XDATA, add(CFA_XSP16, literal(-3)))
          CFI (cfiCond84) DPL0 load(1, XDATA, add(CFA_XSP16, literal(-2)))
          CFI (cfiCond84) DPH0 load(1, XDATA, add(CFA_XSP16, literal(-1)))
          CFI (cfiCond84) CFA_SP SP+-4
          CFI (cfiCond84) CFA_XSP16 add(XSP16, 15)
          CFI Block cfiCond85 Using cfiCommon0
          CFI (cfiCond85) Function MT_BuildEndpointDesc
          CFI (cfiCond85) Conditional ??CrossCallReturnLabel_37, ??CrossCallReturnLabel_32
          CFI (cfiCond85) R6 load(1, XDATA, add(CFA_XSP16, literal(-15)))
          CFI (cfiCond85) VB load(1, XDATA, add(CFA_XSP16, literal(-14)))
          CFI (cfiCond85) V0 load(1, XDATA, add(CFA_XSP16, literal(-13)))
          CFI (cfiCond85) V1 load(1, XDATA, add(CFA_XSP16, literal(-12)))
          CFI (cfiCond85) V2 load(1, XDATA, add(CFA_XSP16, literal(-11)))
          CFI (cfiCond85) V3 load(1, XDATA, add(CFA_XSP16, literal(-10)))
          CFI (cfiCond85) V4 load(1, XDATA, add(CFA_XSP16, literal(-9)))
          CFI (cfiCond85) V5 load(1, XDATA, add(CFA_XSP16, literal(-8)))
          CFI (cfiCond85) V6 load(1, XDATA, add(CFA_XSP16, literal(-7)))
          CFI (cfiCond85) R7 load(1, XDATA, add(CFA_XSP16, literal(-6)))
          CFI (cfiCond85) ?RET_LOW load(1, XDATA, add(CFA_XSP16, literal(-5)))
          CFI (cfiCond85) ?RET_HIGH load(1, XDATA, add(CFA_XSP16, literal(-4)))
          CFI (cfiCond85) ?BRET_EXT load(1, XDATA, add(CFA_XSP16, literal(-3)))
          CFI (cfiCond85) DPL0 load(1, XDATA, add(CFA_XSP16, literal(-2)))
          CFI (cfiCond85) DPH0 load(1, XDATA, add(CFA_XSP16, literal(-1)))
          CFI (cfiCond85) CFA_SP SP+-4
          CFI (cfiCond85) CFA_XSP16 add(XSP16, 15)
          CFI Block cfiCond86 Using cfiCommon0
          CFI (cfiCond86) Function MT_BuildEndpointDesc
          CFI (cfiCond86) Conditional ??CrossCallReturnLabel_37, ??CrossCallReturnLabel_29
          CFI (cfiCond86) R6 load(1, XDATA, add(CFA_XSP16, literal(-15)))
          CFI (cfiCond86) VB load(1, XDATA, add(CFA_XSP16, literal(-14)))
          CFI (cfiCond86) V0 load(1, XDATA, add(CFA_XSP16, literal(-13)))
          CFI (cfiCond86) V1 load(1, XDATA, add(CFA_XSP16, literal(-12)))
          CFI (cfiCond86) V2 load(1, XDATA, add(CFA_XSP16, literal(-11)))
          CFI (cfiCond86) V3 load(1, XDATA, add(CFA_XSP16, literal(-10)))
          CFI (cfiCond86) V4 load(1, XDATA, add(CFA_XSP16, literal(-9)))
          CFI (cfiCond86) V5 load(1, XDATA, add(CFA_XSP16, literal(-8)))
          CFI (cfiCond86) V6 load(1, XDATA, add(CFA_XSP16, literal(-7)))
          CFI (cfiCond86) R7 load(1, XDATA, add(CFA_XSP16, literal(-6)))
          CFI (cfiCond86) ?RET_LOW load(1, XDATA, add(CFA_XSP16, literal(-5)))
          CFI (cfiCond86) ?RET_HIGH load(1, XDATA, add(CFA_XSP16, literal(-4)))
          CFI (cfiCond86) ?BRET_EXT load(1, XDATA, add(CFA_XSP16, literal(-3)))
          CFI (cfiCond86) DPL0 load(1, XDATA, add(CFA_XSP16, literal(-2)))
          CFI (cfiCond86) DPH0 load(1, XDATA, add(CFA_XSP16, literal(-1)))
          CFI (cfiCond86) CFA_SP SP+-4
          CFI (cfiCond86) CFA_XSP16 add(XSP16, 15)
          CFI Block cfiCond87 Using cfiCommon0
          CFI (cfiCond87) Function MT_BuildEndpointDesc
          CFI (cfiCond87) Conditional ??CrossCallReturnLabel_37, ??CrossCallReturnLabel_30
          CFI (cfiCond87) R6 load(1, XDATA, add(CFA_XSP16, literal(-15)))
          CFI (cfiCond87) VB load(1, XDATA, add(CFA_XSP16, literal(-14)))
          CFI (cfiCond87) V0 load(1, XDATA, add(CFA_XSP16, literal(-13)))
          CFI (cfiCond87) V1 load(1, XDATA, add(CFA_XSP16, literal(-12)))
          CFI (cfiCond87) V2 load(1, XDATA, add(CFA_XSP16, literal(-11)))
          CFI (cfiCond87) V3 load(1, XDATA, add(CFA_XSP16, literal(-10)))
          CFI (cfiCond87) V4 load(1, XDATA, add(CFA_XSP16, literal(-9)))
          CFI (cfiCond87) V5 load(1, XDATA, add(CFA_XSP16, literal(-8)))
          CFI (cfiCond87) V6 load(1, XDATA, add(CFA_XSP16, literal(-7)))
          CFI (cfiCond87) R7 load(1, XDATA, add(CFA_XSP16, literal(-6)))
          CFI (cfiCond87) ?RET_LOW load(1, XDATA, add(CFA_XSP16, literal(-5)))
          CFI (cfiCond87) ?RET_HIGH load(1, XDATA, add(CFA_XSP16, literal(-4)))
          CFI (cfiCond87) ?BRET_EXT load(1, XDATA, add(CFA_XSP16, literal(-3)))
          CFI (cfiCond87) DPL0 load(1, XDATA, add(CFA_XSP16, literal(-2)))
          CFI (cfiCond87) DPH0 load(1, XDATA, add(CFA_XSP16, literal(-1)))
          CFI (cfiCond87) CFA_SP SP+-4
          CFI (cfiCond87) CFA_XSP16 add(XSP16, 15)
          CFI Block cfiCond88 Using cfiCommon0
          CFI (cfiCond88) Function MT_BuildEndpointDesc
          CFI (cfiCond88) Conditional ??CrossCallReturnLabel_33, ??CrossCallReturnLabel_0
          CFI (cfiCond88) R6 load(1, XDATA, add(CFA_XSP16, literal(-15)))
          CFI (cfiCond88) VB load(1, XDATA, add(CFA_XSP16, literal(-14)))
          CFI (cfiCond88) V0 load(1, XDATA, add(CFA_XSP16, literal(-13)))
          CFI (cfiCond88) V1 load(1, XDATA, add(CFA_XSP16, literal(-12)))
          CFI (cfiCond88) V2 load(1, XDATA, add(CFA_XSP16, literal(-11)))
          CFI (cfiCond88) V3 load(1, XDATA, add(CFA_XSP16, literal(-10)))
          CFI (cfiCond88) V4 load(1, XDATA, add(CFA_XSP16, literal(-9)))
          CFI (cfiCond88) V5 load(1, XDATA, add(CFA_XSP16, literal(-8)))
          CFI (cfiCond88) V6 load(1, XDATA, add(CFA_XSP16, literal(-7)))
          CFI (cfiCond88) R7 load(1, XDATA, add(CFA_XSP16, literal(-6)))
          CFI (cfiCond88) ?RET_LOW load(1, XDATA, add(CFA_XSP16, literal(-5)))
          CFI (cfiCond88) ?RET_HIGH load(1, XDATA, add(CFA_XSP16, literal(-4)))
          CFI (cfiCond88) ?BRET_EXT load(1, XDATA, add(CFA_XSP16, literal(-3)))
          CFI (cfiCond88) DPL0 load(1, XDATA, add(CFA_XSP16, literal(-2)))
          CFI (cfiCond88) DPH0 load(1, XDATA, add(CFA_XSP16, literal(-1)))
          CFI (cfiCond88) CFA_SP SP+-4
          CFI (cfiCond88) CFA_XSP16 add(XSP16, 15)
          CFI Block cfiCond89 Using cfiCommon0
          CFI (cfiCond89) Function MT_BuildEndpointDesc
          CFI (cfiCond89) Conditional ??CrossCallReturnLabel_33, ??CrossCallReturnLabel_1
          CFI (cfiCond89) R6 load(1, XDATA, add(CFA_XSP16, literal(-15)))
          CFI (cfiCond89) VB load(1, XDATA, add(CFA_XSP16, literal(-14)))
          CFI (cfiCond89) V0 load(1, XDATA, add(CFA_XSP16, literal(-13)))
          CFI (cfiCond89) V1 load(1, XDATA, add(CFA_XSP16, literal(-12)))
          CFI (cfiCond89) V2 load(1, XDATA, add(CFA_XSP16, literal(-11)))
          CFI (cfiCond89) V3 load(1, XDATA, add(CFA_XSP16, literal(-10)))
          CFI (cfiCond89) V4 load(1, XDATA, add(CFA_XSP16, literal(-9)))
          CFI (cfiCond89) V5 load(1, XDATA, add(CFA_XSP16, literal(-8)))
          CFI (cfiCond89) V6 load(1, XDATA, add(CFA_XSP16, literal(-7)))
          CFI (cfiCond89) R7 load(1, XDATA, add(CFA_XSP16, literal(-6)))
          CFI (cfiCond89) ?RET_LOW load(1, XDATA, add(CFA_XSP16, literal(-5)))
          CFI (cfiCond89) ?RET_HIGH load(1, XDATA, add(CFA_XSP16, literal(-4)))
          CFI (cfiCond89) ?BRET_EXT load(1, XDATA, add(CFA_XSP16, literal(-3)))
          CFI (cfiCond89) DPL0 load(1, XDATA, add(CFA_XSP16, literal(-2)))
          CFI (cfiCond89) DPH0 load(1, XDATA, add(CFA_XSP16, literal(-1)))
          CFI (cfiCond89) CFA_SP SP+-4
          CFI (cfiCond89) CFA_XSP16 add(XSP16, 15)
          CFI Block cfiPicker90 Using cfiCommon1
          CFI (cfiPicker90) NoFunction
          CFI (cfiPicker90) Picker
        MOVX    A,@DPTR
        MOV     R0,A
        INC     DPTR
        MOVX    A,@DPTR
        XCH     A,R0
        RET
          CFI EndBlock cfiCond74
          CFI EndBlock cfiCond75
          CFI EndBlock cfiCond76
          CFI EndBlock cfiCond77
          CFI EndBlock cfiCond78
          CFI EndBlock cfiCond79
          CFI EndBlock cfiCond80
          CFI EndBlock cfiCond81
          CFI EndBlock cfiCond82
          CFI EndBlock cfiCond83
          CFI EndBlock cfiCond84
          CFI EndBlock cfiCond85
          CFI EndBlock cfiCond86
          CFI EndBlock cfiCond87
          CFI EndBlock cfiCond88
          CFI EndBlock cfiCond89
          CFI EndBlock cfiPicker90

        RSEG BANK_RELAYS:CODE:REORDER:NOROOT(0)
`??MT_Init::?relay`:
        CODE
        LCALL   ?BDISPATCH
        DATA24
        DC24    MT_Init

        RSEG BANK_RELAYS:CODE:REORDER:NOROOT(0)
`??MT_BuildAndSendZToolResponse::?relay`:
        CODE
        LCALL   ?BDISPATCH
        DATA24
        DC24    MT_BuildAndSendZToolResponse

        RSEG BANK_RELAYS:CODE:REORDER:NOROOT(0)
`??MT_ProcessIncoming::?relay`:
        CODE
        LCALL   ?BDISPATCH
        DATA24
        DC24    MT_ProcessIncoming

        RSEG BANK_RELAYS:CODE:REORDER:NOROOT(0)
`??MTProcessAppRspMsg::?relay`:
        CODE
        LCALL   ?BDISPATCH
        DATA24
        DC24    MTProcessAppRspMsg

        RSEG BANK_RELAYS:CODE:REORDER:NOROOT(0)
`??MT_ReverseBytes::?relay`:
        CODE
        LCALL   ?BDISPATCH
        DATA24
        DC24    MT_ReverseBytes

        RSEG BANK_RELAYS:CODE:REORDER:NOROOT(0)
`??MT_Word2Buf::?relay`:
        CODE
        LCALL   ?BDISPATCH
        DATA24
        DC24    MT_Word2Buf

        RSEG BANK_RELAYS:CODE:REORDER:NOROOT(0)
`??MT_BuildEndpointDesc::?relay`:
        CODE
        LCALL   ?BDISPATCH
        DATA24
        DC24    MT_BuildEndpointDesc

        END
//  540 #endif
//  541 /***************************************************************************************************
//  542 ***************************************************************************************************/
// 
// 1 145 bytes in segment BANKED_CODE
//    42 bytes in segment BANK_RELAYS
//    46 bytes in segment XDATA_Z
// 
// 1 187 bytes of CODE  memory
//    46 bytes of XDATA memory
//
//Errors: none
//Warnings: none
