###############################################################################
#
# IAR C/C++ Compiler V9.30.1.3056 for 8051                25/Oct/2016  15:28:48
# Copyright 2004-2015 IAR Systems AB.
# Standalone license - IAR Embedded Workbench for 8051
#
#    Core               =  plain
#    Code model         =  banked
#    Data model         =  large
#    Calling convention =  xdata reentrant
#    Constant location  =  data_rom
#    Dptr setup         =  1,16
#                          
#    Source file        =  
#        E:\资源(G：)\#个人项目\ZigbeeProject\Z-Stack Mesh
#        1.0.0\Components\stack\af\AF.c
#    Command line       =  
#        -f "E:\资源(G：)\#个人项目\ZigbeeProject\Z-Stack Mesh
#        1.0.0\Projects\zstack\Samples\Demo_App_V1.8饮水机控制增加uart\CC2530DB\..\..\..\Tools\CC2530DB\f8wEndev.cfg"
#        (-DCPU32MHZ -DROOT=__near_func -DMAC_CFG_TX_DATA_MAX=3
#        -DMAC_CFG_TX_MAX=6 -DMAC_CFG_RX_MAX=3) -f
#        "E:\资源(G：)\#个人项目\ZigbeeProject\Z-Stack Mesh
#        1.0.0\Projects\zstack\Samples\Demo_App_V1.8饮水机控制增加uart\CC2530DB\..\..\..\Tools\CC2530DB\f8wConfig.cfg"
#        (-DZIGBEEPRO -DSECURE=1 -DZG_SECURE_DYNAMIC=0 -DREFLECTOR
#        -DDEFAULT_CHANLIST=0x00000800 -DZDAPP_CONFIG_PAN_ID=0xFFFF
#        -DNWK_START_DELAY=100 -DEXTENDED_JOINING_RANDOM_MASK=0x007F
#        -DBEACON_REQUEST_DELAY=100 -DBEACON_REQ_DELAY_MASK=0x00FF
#        -DLINK_STATUS_JITTER_MASK=0x007F -DROUTE_EXPIRY_TIME=30
#        -DAPSC_ACK_WAIT_DURATION_POLLED=3000 -DNWK_INDIRECT_MSG_TIMEOUT=7
#        -DMAX_RREQ_ENTRIES=8 -DAPSC_MAX_FRAME_RETRIES=3
#        -DNWK_MAX_DATA_RETRIES=2 -DMAX_POLL_FAILURE_RETRIES=2 -DMAX_BCAST=9
#        -DAPS_MAX_GROUPS=16 -DMAX_RTG_ENTRIES=40 -DNWK_MAX_BINDING_ENTRIES=4
#        -DMAX_BINDING_CLUSTER_IDS=4 "-DDEFAULT_KEY={0x01, 0x03, 0x05, 0x07,
#        0x09, 0x0B, 0x0D, 0x0F, 0x00, 0x02, 0x04, 0x06, 0x08, 0x0A, 0x0C,
#        0x0D}" -DMAC_MAX_FRAME_SIZE=116 -DZDNWKMGR_MIN_TRANSMISSIONS=20
#        "-DCONST=const __code" -DGENERIC=__generic -DRFD_RCVC_ALWAYS_ON=FALSE
#        -DPOLL_RATE=50 -DQUEUED_POLL_RATE=100 -DRESPONSE_POLL_RATE=100)
#        -DREJOIN_POLL_RATE=440 "E:\资源(G：)\#个人项目\ZigbeeProject\Z-Stack
#        Mesh 1.0.0\Components\stack\af\AF.c" -D HAL_UART=TRUE -D
#        HAL_UART_ISR=1 -D HAL_UART_DMA=0 -D LOG_OUT -D
#        UART1_PROTOCOL_RESOLVER=1 -D xISQC -D NWK_AUTO_POLL -D xZTOOL_P1 -D
#        ISR_KEYINTERRUPT -D xMT_TASK -D xMT_SYS_FUNC -D xMT_ZDO_FUNC -D
#        xLCD_SUPPORTED=DEBUG -D xPOWER_SAVING -lC
#        "E:\资源(G：)\#个人项目\ZigbeeProject\Z-Stack Mesh
#        1.0.0\Projects\zstack\Samples\Demo_App_V1.8饮水机控制增加uart\CC2530DB\WaterMachine\List"
#        -lA "E:\资源(G：)\#个人项目\ZigbeeProject\Z-Stack Mesh
#        1.0.0\Projects\zstack\Samples\Demo_App_V1.8饮水机控制增加uart\CC2530DB\WaterMachine\List"
#        --diag_suppress Pe001,Pa010 -o
#        "E:\资源(G：)\#个人项目\ZigbeeProject\Z-Stack Mesh
#        1.0.0\Projects\zstack\Samples\Demo_App_V1.8饮水机控制增加uart\CC2530DB\WaterMachine\Obj"
#        -e --no_code_motion --debug --core=plain --dptr=16,1
#        --data_model=large --code_model=banked
#        --calling_convention=xdata_reentrant --place_constants=data_rom
#        --nr_virtual_regs 8 -I "E:\资源(G：)\#个人项目\ZigbeeProject\Z-Stack
#        Mesh
#        1.0.0\Projects\zstack\Samples\Demo_App_V1.8饮水机控制增加uart\CC2530DB\"
#        -I "E:\资源(G：)\#个人项目\ZigbeeProject\Z-Stack Mesh
#        1.0.0\Projects\zstack\Samples\Demo_App_V1.8饮水机控制增加uart\CC2530DB\..\Source\"
#        -I "E:\资源(G：)\#个人项目\ZigbeeProject\Z-Stack Mesh
#        1.0.0\Projects\zstack\Samples\Demo_App_V1.8饮水机控制增加uart\CC2530DB\..\Frame\"
#        -I "E:\资源(G：)\#个人项目\ZigbeeProject\Z-Stack Mesh
#        1.0.0\Projects\zstack\Samples\Demo_App_V1.8饮水机控制增加uart\CC2530DB\..\Module\WaterMachine\"
#        -I "E:\资源(G：)\#个人项目\ZigbeeProject\Z-Stack Mesh
#        1.0.0\Projects\zstack\Samples\Demo_App_V1.8饮水机控制增加uart\CC2530DB\..\..\..\ZMain\TI2530DB\"
#        -I "E:\资源(G：)\#个人项目\ZigbeeProject\Z-Stack Mesh
#        1.0.0\Projects\zstack\Samples\Demo_App_V1.8饮水机控制增加uart\CC2530DB\..\..\..\..\..\Components\hal\include\"
#        -I "E:\资源(G：)\#个人项目\ZigbeeProject\Z-Stack Mesh
#        1.0.0\Projects\zstack\Samples\Demo_App_V1.8饮水机控制增加uart\CC2530DB\..\..\..\..\..\Components\hal\target\CC2530EB\"
#        -I "E:\资源(G：)\#个人项目\ZigbeeProject\Z-Stack Mesh
#        1.0.0\Projects\zstack\Samples\Demo_App_V1.8饮水机控制增加uart\CC2530DB\..\..\..\..\..\Components\mac\include\"
#        -I "E:\资源(G：)\#个人项目\ZigbeeProject\Z-Stack Mesh
#        1.0.0\Projects\zstack\Samples\Demo_App_V1.8饮水机控制增加uart\CC2530DB\..\..\..\..\..\Components\mac\high_level\"
#        -I "E:\资源(G：)\#个人项目\ZigbeeProject\Z-Stack Mesh
#        1.0.0\Projects\zstack\Samples\Demo_App_V1.8饮水机控制增加uart\CC2530DB\..\..\..\..\..\Components\mac\low_level\srf04\"
#        -I "E:\资源(G：)\#个人项目\ZigbeeProject\Z-Stack Mesh
#        1.0.0\Projects\zstack\Samples\Demo_App_V1.8饮水机控制增加uart\CC2530DB\..\..\..\..\..\Components\mac\low_level\srf04\single_chip\"
#        -I "E:\资源(G：)\#个人项目\ZigbeeProject\Z-Stack Mesh
#        1.0.0\Projects\zstack\Samples\Demo_App_V1.8饮水机控制增加uart\CC2530DB\..\..\..\..\..\Components\mt\"
#        -I "E:\资源(G：)\#个人项目\ZigbeeProject\Z-Stack Mesh
#        1.0.0\Projects\zstack\Samples\Demo_App_V1.8饮水机控制增加uart\CC2530DB\..\..\..\..\..\Components\osal\include\"
#        -I "E:\资源(G：)\#个人项目\ZigbeeProject\Z-Stack Mesh
#        1.0.0\Projects\zstack\Samples\Demo_App_V1.8饮水机控制增加uart\CC2530DB\..\..\..\..\..\Components\services\saddr\"
#        -I "E:\资源(G：)\#个人项目\ZigbeeProject\Z-Stack Mesh
#        1.0.0\Projects\zstack\Samples\Demo_App_V1.8饮水机控制增加uart\CC2530DB\..\..\..\..\..\Components\services\sdata\"
#        -I "E:\资源(G：)\#个人项目\ZigbeeProject\Z-Stack Mesh
#        1.0.0\Projects\zstack\Samples\Demo_App_V1.8饮水机控制增加uart\CC2530DB\..\..\..\..\..\Components\stack\af\"
#        -I "E:\资源(G：)\#个人项目\ZigbeeProject\Z-Stack Mesh
#        1.0.0\Projects\zstack\Samples\Demo_App_V1.8饮水机控制增加uart\CC2530DB\..\..\..\..\..\Components\stack\nwk\"
#        -I "E:\资源(G：)\#个人项目\ZigbeeProject\Z-Stack Mesh
#        1.0.0\Projects\zstack\Samples\Demo_App_V1.8饮水机控制增加uart\CC2530DB\..\..\..\..\..\Components\stack\sapi\"
#        -I "E:\资源(G：)\#个人项目\ZigbeeProject\Z-Stack Mesh
#        1.0.0\Projects\zstack\Samples\Demo_App_V1.8饮水机控制增加uart\CC2530DB\..\..\..\..\..\Components\stack\sec\"
#        -I "E:\资源(G：)\#个人项目\ZigbeeProject\Z-Stack Mesh
#        1.0.0\Projects\zstack\Samples\Demo_App_V1.8饮水机控制增加uart\CC2530DB\..\..\..\..\..\Components\stack\sys\"
#        -I "E:\资源(G：)\#个人项目\ZigbeeProject\Z-Stack Mesh
#        1.0.0\Projects\zstack\Samples\Demo_App_V1.8饮水机控制增加uart\CC2530DB\..\..\..\..\..\Components\stack\zdo\"
#        -I "E:\资源(G：)\#个人项目\ZigbeeProject\Z-Stack Mesh
#        1.0.0\Projects\zstack\Samples\Demo_App_V1.8饮水机控制增加uart\CC2530DB\..\..\..\..\..\Components\zmac\"
#        -I "E:\资源(G：)\#个人项目\ZigbeeProject\Z-Stack Mesh
#        1.0.0\Projects\zstack\Samples\Demo_App_V1.8饮水机控制增加uart\CC2530DB\..\..\..\..\..\Components\zmac\f8w\"
#        -Ohz
#    List file          =  
#        E:\资源(G：)\#个人项目\ZigbeeProject\Z-Stack Mesh
#        1.0.0\Projects\zstack\Samples\Demo_App_V1.8饮水机控制增加uart\CC2530DB\WaterMachine\List\AF.lst
#    Object file        =  
#        E:\资源(G：)\#个人项目\ZigbeeProject\Z-Stack Mesh
#        1.0.0\Projects\zstack\Samples\Demo_App_V1.8饮水机控制增加uart\CC2530DB\WaterMachine\Obj\AF.r51
#
###############################################################################

E:\资源(G：)\#个人项目\ZigbeeProject\Z-Stack Mesh 1.0.0\Components\stack\af\AF.c
      1          /**************************************************************************************************
      2            Filename:       AF.c
      3            Revised:        $Date: 2014-06-30 16:29:17 -0700 (Mon, 30 Jun 2014) $
      4            Revision:       $Revision: 39295 $
      5          
      6            Description:    Application Framework - Device Description helper functions
      7          
      8          
      9            Copyright 2004-2014 Texas Instruments Incorporated. All rights reserved.
     10          
     11            IMPORTANT: Your use of this Software is limited to those specific rights
     12            granted under the terms of a software license agreement between the user
     13            who downloaded the software, his/her employer (which must be your employer)
     14            and Texas Instruments Incorporated (the "License").  You may not use this
     15            Software unless you agree to abide by the terms of the License. The License
     16            limits your use, and you acknowledge, that the Software may not be modified,
     17            copied or distributed unless embedded on a Texas Instruments microcontroller
     18            or used solely and exclusively in conjunction with a Texas Instruments radio
     19            frequency transceiver, which is integrated into your product.  Other than for
     20            the foregoing purpose, you may not use, reproduce, copy, prepare derivative
     21            works of, modify, distribute, perform, display or sell this Software and/or
     22            its documentation for any purpose.
     23          
     24            YOU FURTHER ACKNOWLEDGE AND AGREE THAT THE SOFTWARE AND DOCUMENTATION ARE
     25            PROVIDED "AS IS" WITHOUT WARRANTY OF ANY KIND, EITHER EXPRESS OR IMPLIED,
     26            INCLUDING WITHOUT LIMITATION, ANY WARRANTY OF MERCHANTABILITY, TITLE,
     27            NON-INFRINGEMENT AND FITNESS FOR A PARTICULAR PURPOSE. IN NO EVENT SHALL
     28            TEXAS INSTRUMENTS OR ITS LICENSORS BE LIABLE OR OBLIGATED UNDER CONTRACT,
     29            NEGLIGENCE, STRICT LIABILITY, CONTRIBUTION, BREACH OF WARRANTY, OR OTHER
     30            LEGAL EQUITABLE THEORY ANY DIRECT OR INDIRECT DAMAGES OR EXPENSES
     31            INCLUDING BUT NOT LIMITED TO ANY INCIDENTAL, SPECIAL, INDIRECT, PUNITIVE
     32            OR CONSEQUENTIAL DAMAGES, LOST PROFITS OR LOST DATA, COST OF PROCUREMENT
     33            OF SUBSTITUTE GOODS, TECHNOLOGY, SERVICES, OR ANY CLAIMS BY THIRD PARTIES
     34            (INCLUDING BUT NOT LIMITED TO ANY DEFENSE THEREOF), OR OTHER SIMILAR COSTS.
     35          
     36            Should you have any questions regarding your right to use this Software,
     37            contact Texas Instruments Incorporated at www.TI.com.
     38          **************************************************************************************************/
     39          
     40          /*********************************************************************
     41           * INCLUDES
     42           */
     43          
     44          #include "OSAL.h"
     45          #include "AF.h"
     46          #include "nwk_globals.h"
     47          #include "nwk_util.h"
     48          #include "aps_groups.h"
     49          #include "ZDProfile.h"
     50          #include "aps_frag.h"
     51          #include "rtg.h"
     52          
     53          #if defined ( MT_AF_CB_FUNC )
     54            #include "MT_AF.h"
     55          #endif
     56          
     57          #if defined ( INTER_PAN )
     58            #include "stub_aps.h"
     59          #endif
     60          
     61          /*********************************************************************
     62           * MACROS
     63           */
     64          
     65          /*********************************************************************
     66           * @fn      afSend
     67           *
     68           * @brief   Helper macro for V1 API to invoke V2 API.
     69           *
     70           * input parameters
     71           *
     72           * @param  *dstAddr - Full ZB destination address: Nwk Addr + End Point.
     73           * @param   srcEP - Origination (i.e. respond to or ack to) End Point.
     74           * @param   cID - A valid cluster ID as specified by the Profile.
     75           * @param   len - Number of bytes of data pointed to by next param.
     76           * @param  *buf - A pointer to the data bytes to send.
     77           * @param   options - Valid bit mask of AF Tx Options as defined in AF.h.
     78           * @param  *transID - A pointer to a byte which can be modified and which will
     79           *                    be used as the transaction sequence number of the msg.
     80           *
     81           * output parameters
     82           *
     83           * @param  *transID - Incremented by one if the return value is success.
     84           *
     85           * @return  afStatus_t - See previous definition of afStatus_... types.
     86           */
     87          #define afSend( dstAddr, srcEP, cID, len, buf, transID, options, radius ) \
     88                  AF_DataRequest( (dstAddr), afFindEndPointDesc( (srcEP) ), \
     89                                    (cID), (len), (buf), (transID), (options), (radius) )
     90          
     91          /*********************************************************************
     92           * GLOBAL VARIABLES
     93           */
     94          

   \                                 In  segment XDATA_Z, align 1, keep-with-next
     95          epList_t *epList;
   \                     epList:
   \   000000                DS 2
   \   000002                REQUIRE __INIT_XDATA_Z
     96          
     97          /*********************************************************************
     98           * LOCAL FUNCTIONS
     99           */
    100          
    101          static void afBuildMSGIncoming( aps_FrameFormat_t *aff, endPointDesc_t *epDesc,
    102                          zAddrType_t *SrcAddress, uint16 SrcPanId, NLDE_Signal_t *sig,
    103                          uint8 nwkSeqNum, uint8 SecurityUse, uint32 timestamp, uint8 radius );
    104          
    105          static epList_t *afFindEndPointDescList( uint8 EndPoint );
    106          
    107          static pDescCB afGetDescCB( endPointDesc_t *epDesc );
    108          
    109          /*********************************************************************
    110           * PUBLIC FUNCTIONS
    111           */
    112          
    113          /*********************************************************************
    114           * @fn      afInit
    115           *
    116           * @brief   Initialization function for the AF.
    117           *
    118           * @param   none
    119           *
    120           * @return  none
    121          void afInit( void )
    122          {
    123          }
    124           */
    125          
    126          /*********************************************************************
    127           * @fn      afRegisterExtended
    128           *
    129           * @brief   Register an Application's EndPoint description.
    130           *
    131           * @param   epDesc - pointer to the Application's endpoint descriptor.
    132           * @param   descFn - pointer to descriptor callback function
    133           * @param   applFn - pointer to the Application callback function
    134           *
    135           * NOTE:  The memory that epDesc is pointing to must exist after this call.
    136           *
    137           * @return  Pointer to epList_t on success, NULL otherwise.
    138           */

   \                                 In  segment BANKED_CODE, align 1, keep-with-next
    139          epList_t *afRegisterExtended( endPointDesc_t *epDesc, pDescCB descFn, pApplCB applFn )
   \                     afRegisterExtended:
    140          {
   \   000000                REQUIRE ?V0
   \   000000                REQUIRE ?V1
   \   000000                REQUIRE ?V2
   \   000000                REQUIRE ?V3
   \   000000   74F4         MOV     A,#-0xc
   \   000002   12....       LCALL   ?BANKED_ENTER_XDATA
   \   000005                ; Saved register size: 12
   \   000005                ; Auto size: 0
   \   000005   8A..         MOV     ?V0,R2
   \   000007   8B..         MOV     ?V1,R3
   \   000009   EC           MOV     A,R4
   \   00000A   FE           MOV     R6,A
   \   00000B   ED           MOV     A,R5
   \   00000C   FF           MOV     R7,A
    141            epList_t *ep = osal_mem_alloc(sizeof(epList_t));
   \   00000D                ; Setup parameters for call to function osal_mem_alloc
   \   00000D   7A0B         MOV     R2,#0xb
   \   00000F   7B00         MOV     R3,#0x0
   \   000011   12....       LCALL   `??osal_mem_alloc::?relay`; Banked call to: osal_mem_alloc
    142          
    143            if (ep != NULL)
   \   000014   EA           MOV     A,R2
   \   000015   4B           ORL     A,R3
   \   000016   6046         JZ      ??CrossCallReturnLabel_72
    144            {
    145              ep->nextDesc = epList;
   \   000018   90....       MOV     DPTR,#epList
   \   00001B   12....       LCALL   ?Subroutine15 & 0xFFFF
   \                     ??CrossCallReturnLabel_14:
   \   00001E   12....       LCALL   ??Subroutine44_0 & 0xFFFF
    146              epList = ep;
   \                     ??CrossCallReturnLabel_71:
   \   000021   90....       MOV     DPTR,#epList
   \   000024   12....       LCALL   ?Subroutine29 & 0xFFFF
    147              ep->epDesc = epDesc;
   \                     ??CrossCallReturnLabel_37:
   \   000027   8A82         MOV     DPL,R2
   \   000029   8B83         MOV     DPH,R3
   \   00002B   A3           INC     DPTR
   \   00002C   A3           INC     DPTR
   \   00002D   E5..         MOV     A,?V0
   \   00002F   F0           MOVX    @DPTR,A
   \   000030   A3           INC     DPTR
   \   000031   E5..         MOV     A,?V1
   \   000033   12....       LCALL   ?Subroutine42 & 0xFFFF
    148              ep->pfnDescCB = descFn;
   \                     ??CrossCallReturnLabel_64:
   \   000036   EE           MOV     A,R6
   \   000037   F0           MOVX    @DPTR,A
   \   000038   A3           INC     DPTR
   \   000039   EF           MOV     A,R7
   \   00003A   12....       LCALL   ?Subroutine27 & 0xFFFF
    149              ep->apsfCfg.frameDelay = APSF_DEFAULT_INTERFRAME_DELAY;
   \                     ??CrossCallReturnLabel_33:
   \   00003D   A3           INC     DPTR
   \   00003E   7432         MOV     A,#0x32
   \   000040   12....       LCALL   ?Subroutine26 & 0xFFFF
    150              ep->apsfCfg.windowSize = APSF_DEFAULT_WINDOW_SIZE;
   \                     ??CrossCallReturnLabel_31:
   \   000043   7401         MOV     A,#0x1
   \   000045   12....       LCALL   ?Subroutine26 & 0xFFFF
    151              ep->flags = eEP_AllowMatch;  // Default to allow Match Descriptor.
   \                     ??CrossCallReturnLabel_32:
   \   000048   A3           INC     DPTR
   \   000049   F0           MOVX    @DPTR,A
    152              ep->pfnApplCB = applFn;
   \   00004A   740C         MOV     A,#0xc
   \   00004C   12....       LCALL   ?XSTACK_DISP0_8
   \   00004F   12....       LCALL   ?Subroutine15 & 0xFFFF
    153            }
   \                     ??CrossCallReturnLabel_15:
   \   000052   A3           INC     DPTR
   \   000053   A3           INC     DPTR
   \   000054   A3           INC     DPTR
   \   000055   A3           INC     DPTR
   \   000056   A3           INC     DPTR
   \   000057   A3           INC     DPTR
   \   000058   A3           INC     DPTR
   \   000059   A3           INC     DPTR
   \   00005A   A3           INC     DPTR
   \   00005B   12....       LCALL   ??Subroutine44_0 & 0xFFFF
    154          
    155            return ep;
   \                     ??CrossCallReturnLabel_72:
   \   00005E   02....       LJMP    ?Subroutine0 & 0xFFFF
    156          }

   \                                 In  segment BANKED_CODE, align 1, keep-with-next
   \                     ?Subroutine26:
   \   000000   12....       LCALL   ?Subroutine35 & 0xFFFF
   \                     ??CrossCallReturnLabel_54:
   \   000003   A3           INC     DPTR
   \   000004   A3           INC     DPTR
   \   000005   22           RET

   \                                 In  segment BANKED_CODE, align 1, keep-with-next
   \                     ?Subroutine15:
   \   000000   12....       LCALL   ?Subroutine37 & 0xFFFF
   \                     ??CrossCallReturnLabel_134:
   \   000003   8A82         MOV     DPL,R2
   \   000005   8B83         MOV     DPH,R3
   \   000007   22           RET

   \                                 In  segment BANKED_CODE, align 1, keep-with-next
   \                     ?Subroutine27:
   \   000000   12....       LCALL   ?Subroutine35 & 0xFFFF
   \                     ??CrossCallReturnLabel_55:
   \   000003   22           RET

   \                                 In  segment BANKED_CODE, align 1, keep-with-next
   \                     ?Subroutine35:
   \   000000   12....       LCALL   ?Subroutine42 & 0xFFFF
   \                     ??CrossCallReturnLabel_65:
   \   000003   A3           INC     DPTR
   \   000004   22           RET

   \                                 In  segment BANKED_CODE, align 1, keep-with-next
   \                     ?Subroutine42:
   \   000000   F0           MOVX    @DPTR,A
   \   000001   8A82         MOV     DPL,R2
   \   000003   8B83         MOV     DPH,R3
   \   000005   A3           INC     DPTR
   \   000006   A3           INC     DPTR
   \   000007   A3           INC     DPTR
   \   000008   A3           INC     DPTR
   \   000009   22           RET

   \                                 In  segment BANKED_CODE, align 1, keep-with-next
   \                     ?Subroutine29:
   \   000000   EA           MOV     A,R2
   \   000001   F0           MOVX    @DPTR,A
   \   000002   A3           INC     DPTR
   \   000003   EB           MOV     A,R3
   \   000004   F0           MOVX    @DPTR,A
   \   000005   22           RET

   \                                 In  segment BANKED_CODE, align 1, keep-with-next
   \                     ??Subroutine44_0:
   \   000000   E8           MOV     A,R0
   \   000001   F0           MOVX    @DPTR,A
   \   000002   A3           INC     DPTR
   \   000003   E9           MOV     A,R1
   \   000004   F0           MOVX    @DPTR,A
   \   000005   22           RET

   \                                 In  segment BANKED_CODE, align 1, keep-with-next
   \                     ?Subroutine0:
   \   000000   7F04         MOV     R7,#0x4
   \   000002   02....       LJMP    ?BANKED_LEAVE_XDATA

   \                                 In  segment BANKED_CODE, align 1, keep-with-next
   \                     ?Subroutine37:
   \   000000   E0           MOVX    A,@DPTR
   \   000001   F8           MOV     R0,A
   \   000002   A3           INC     DPTR
   \   000003   E0           MOVX    A,@DPTR
   \   000004   F9           MOV     R1,A
   \   000005   22           RET
    157          
    158          /*********************************************************************
    159           * @fn      afRegister
    160           *
    161           * @brief   Register an Application's EndPoint description.
    162           *
    163           * @param   epDesc - pointer to the Application's endpoint descriptor.
    164           *
    165           * NOTE:  The memory that epDesc is pointing to must exist after this call.
    166           *
    167           * @return  afStatus_SUCCESS - Registered
    168           *          afStatus_MEM_FAIL - not enough memory to add descriptor
    169           *          afStatus_INVALID_PARAMETER - duplicate endpoint
    170           */

   \                                 In  segment BANKED_CODE, align 1, keep-with-next
    171          afStatus_t afRegister( endPointDesc_t *epDesc )
   \                     afRegister:
    172          {
   \   000000                REQUIRE ?V0
   \   000000                REQUIRE ?V1
   \   000000   74F6         MOV     A,#-0xa
   \   000002   12....       LCALL   ?BANKED_ENTER_XDATA
   \   000005                ; Saved register size: 10
   \   000005                ; Auto size: 0
   \   000005   EA           MOV     A,R2
   \   000006   FE           MOV     R6,A
   \   000007   EB           MOV     A,R3
   \   000008   FF           MOV     R7,A
    173            if (afFindEndPointDescList(epDesc->endPoint))  // Look for duplicate endpoint.
   \   000009                ; Setup parameters for call to function afFindEndPointDescList
   \   000009   8E82         MOV     DPL,R6
   \   00000B   8F83         MOV     DPH,R7
   \   00000D   E0           MOVX    A,@DPTR
   \   00000E   F9           MOV     R1,A
   \   00000F   12....       LCALL   `??afFindEndPointDescList::?relay`; Banked call to: afFindEndPointDescList
   \   000012   8B..         MOV     ?V1,R3
   \   000014   EA           MOV     A,R2
   \   000015   45..         ORL     A,?V1
   \   000017   6004         JZ      ??afRegister_0
    174            {
    175              return afStatus_INVALID_PARAMETER;
   \   000019   7902         MOV     R1,#0x2
   \   00001B   8027         SJMP    ??afRegister_1
    176            }
    177          
    178            return ((NULL == afRegisterExtended(epDesc, NULL, NULL)) ? afStatus_MEM_FAIL : afStatus_SUCCESS);
   \                     ??afRegister_0:
   \   00001D                ; Setup parameters for call to function afRegisterExtended
   \   00001D   E4           CLR     A
   \   00001E   F5..         MOV     ?V0,A
   \   000020   F5..         MOV     ?V1,A
   \   000022   78..         MOV     R0,#?V0
   \   000024   12....       LCALL   ?PUSH_XSTACK_I_TWO
   \   000027   7C00         MOV     R4,#0x0
   \   000029   7D00         MOV     R5,#0x0
   \   00002B   EE           MOV     A,R6
   \   00002C   FA           MOV     R2,A
   \   00002D   EF           MOV     A,R7
   \   00002E   FB           MOV     R3,A
   \   00002F   12....       LCALL   `??afRegisterExtended::?relay`; Banked call to: afRegisterExtended
   \   000032   7402         MOV     A,#0x2
   \   000034   12....       LCALL   ?DEALLOC_XSTACK8
   \   000037   8B..         MOV     ?V1,R3
   \   000039   EA           MOV     A,R2
   \   00003A   45..         ORL     A,?V1
   \   00003C   7004         JNZ     ??afRegister_2
   \   00003E   7910         MOV     R1,#0x10
   \   000040   8002         SJMP    ??afRegister_1
   \                     ??afRegister_2:
   \   000042   7900         MOV     R1,#0x0
   \                     ??afRegister_1:
   \   000044   02....       LJMP    ?Subroutine1 & 0xFFFF
    179          }

   \                                 In  segment BANKED_CODE, align 1, keep-with-next
   \                     ?Subroutine1:
   \   000000   7F02         MOV     R7,#0x2
   \   000002   02....       LJMP    ?BANKED_LEAVE_XDATA
    180          
    181          /*********************************************************************
    182           * @fn      afDelete
    183           *
    184           * @brief   Delete an Application's EndPoint descriptor and frees the memory
    185           *
    186           * @param   EndPoint - Application Endpoint to delete
    187           *
    188           * @return  afStatus_SUCCESS - endpoint deleted
    189           *          afStatus_INVALID_PARAMETER - endpoint not found
    190           *          afStatus_FAILED - endpoint list empty
    191           */

   \                                 In  segment BANKED_CODE, align 1, keep-with-next
    192          afStatus_t afDelete( uint8 EndPoint )
   \                     afDelete:
    193          {
   \   000000   74F7         MOV     A,#-0x9
   \   000002   12....       LCALL   ?BANKED_ENTER_XDATA
   \   000005                ; Saved register size: 9
   \   000005                ; Auto size: 0
   \   000005   E9           MOV     A,R1
   \   000006   FE           MOV     R6,A
    194            epList_t *epCurrent;
    195            epList_t *epPrevious;
    196          
    197            if ( epList != NULL )
   \   000007   90....       MOV     DPTR,#epList
   \   00000A   12....       LCALL   ??Subroutine45_0 & 0xFFFF
   \                     ??CrossCallReturnLabel_85:
   \   00000D   604B         JZ      ??afDelete_0
    198            {
    199              epPrevious = epCurrent = epList;
   \   00000F   90....       MOV     DPTR,#epList
   \   000012   12....       LCALL   ??Subroutine51_0 & 0xFFFF
   \                     ??CrossCallReturnLabel_102:
   \   000015   F9           MOV     R1,A
    200          
    201              // first element of the list matches
    202              if ( epCurrent->epDesc->endPoint == EndPoint )
   \   000016   12....       LCALL   ?Subroutine14 & 0xFFFF
   \                     ??CrossCallReturnLabel_12:
   \   000019   700C         JNZ     ??afDelete_1
    203              {
    204                epList = epCurrent->nextDesc;
   \   00001B   12....       LCALL   ?Subroutine18 & 0xFFFF
    205                osal_mem_free( epCurrent );
    206          
    207                return ( afStatus_SUCCESS );
    208              }
   \                     ??CrossCallReturnLabel_131:
   \   00001E   90....       MOV     DPTR,#epList
   \   000021   E8           MOV     A,R0
   \   000022   F0           MOVX    @DPTR,A
   \   000023   A3           INC     DPTR
   \   000024   E9           MOV     A,R1
   \   000025   8027         SJMP    ??afDelete_2
    209              else
    210              {
    211                // search the list
    212                for ( epCurrent = epPrevious->nextDesc;
   \                     ??afDelete_1:
   \   000027   8882         MOV     DPL,R0
   \   000029   8983         MOV     DPH,R1
   \   00002B   8008         SJMP    ??afDelete_3
    213                      epCurrent != NULL;
    214                      epCurrent = epCurrent->nextDesc )
    215                {
    216                  if ( epCurrent->epDesc->endPoint == EndPoint )
    217                  {
    218                    epPrevious->nextDesc = epCurrent->nextDesc;
    219                    osal_mem_free( epCurrent );
    220          
    221                    // delete the entry and free the memory
    222                    return ( afStatus_SUCCESS );
    223                  }
    224                  epPrevious = epCurrent;
   \                     ??afDelete_4:
   \   00002D   EA           MOV     A,R2
   \   00002E   F8           MOV     R0,A
   \   00002F   EB           MOV     A,R3
   \   000030   F9           MOV     R1,A
   \   000031   8A82         MOV     DPL,R2
   \   000033   8B83         MOV     DPH,R3
   \                     ??afDelete_3:
   \   000035   12....       LCALL   ??Subroutine48_0 & 0xFFFF
   \                     ??CrossCallReturnLabel_98:
   \   000038   601C         JZ      ??afDelete_5
   \   00003A   12....       LCALL   ?Subroutine14 & 0xFFFF
   \                     ??CrossCallReturnLabel_13:
   \   00003D   70EE         JNZ     ??afDelete_4
   \   00003F   8A82         MOV     DPL,R2
   \   000041   8B83         MOV     DPH,R3
   \   000043   12....       LCALL   ?Subroutine19 & 0xFFFF
   \                     ??CrossCallReturnLabel_21:
   \   000046   8882         MOV     DPL,R0
   \   000048   8983         MOV     DPH,R1
   \   00004A   EC           MOV     A,R4
   \   00004B   F0           MOVX    @DPTR,A
   \   00004C   A3           INC     DPTR
   \   00004D   ED           MOV     A,R5
   \                     ??afDelete_2:
   \   00004E   F0           MOVX    @DPTR,A
   \   00004F                ; Setup parameters for call to function osal_mem_free
   \   00004F   12....       LCALL   `??osal_mem_free::?relay`; Banked call to: osal_mem_free
   \   000052   7900         MOV     R1,#0x0
   \   000054   8006         SJMP    ??afDelete_6
    225                }
    226              }
    227          
    228              // no endpoint found
    229              return ( afStatus_INVALID_PARAMETER );
   \                     ??afDelete_5:
   \   000056   7902         MOV     R1,#0x2
   \   000058   8002         SJMP    ??afDelete_6
    230            }
    231            else
    232            {
    233              // epList is empty
    234              return ( afStatus_FAILED );
   \                     ??afDelete_0:
   \   00005A   7901         MOV     R1,#0x1
    235            }
   \                     ??afDelete_6:
   \   00005C                REQUIRE ?Subroutine2
   \   00005C                ; // Fall through to label ?Subroutine2
    236          }

   \                                 In  segment BANKED_CODE, align 1, keep-with-next
   \                     ?Subroutine2:
   \   000000   7F01         MOV     R7,#0x1
   \   000002   02....       LJMP    ?BANKED_LEAVE_XDATA

   \                                 In  segment BANKED_CODE, align 1, keep-with-next
   \                     ?Subroutine14:
   \   000000   8A82         MOV     DPL,R2
   \   000002   8B83         MOV     DPH,R3
   \   000004   A3           INC     DPTR
   \   000005   A3           INC     DPTR
   \   000006   E0           MOVX    A,@DPTR
   \   000007   FC           MOV     R4,A
   \   000008   A3           INC     DPTR
   \   000009   E0           MOVX    A,@DPTR
   \   00000A   F583         MOV     DPH,A
   \   00000C   8C82         MOV     DPL,R4
   \   00000E   E0           MOVX    A,@DPTR
   \   00000F   6E           XRL     A,R6
   \   000010   22           RET

   \                                 In  segment BANKED_CODE, align 1, keep-with-next
   \                     ?Subroutine19:
   \   000000   E0           MOVX    A,@DPTR
   \   000001   FC           MOV     R4,A
   \   000002   A3           INC     DPTR
   \   000003   E0           MOVX    A,@DPTR
   \   000004   FD           MOV     R5,A
   \   000005   22           RET

   \                                 In  segment BANKED_CODE, align 1, keep-with-next
   \                     ??Subroutine45_0:
   \   000000   12....       LCALL   ?Subroutine37 & 0xFFFF
   \                     ??CrossCallReturnLabel_137:
   \   000003   E8           MOV     A,R0
   \   000004   49           ORL     A,R1
   \   000005   22           RET

   \                                 In  segment BANKED_CODE, align 1, keep-with-next
   \                     ??Subroutine48_0:
   \   000000   E0           MOVX    A,@DPTR
   \   000001   FA           MOV     R2,A
   \   000002   A3           INC     DPTR
   \   000003   E0           MOVX    A,@DPTR
   \   000004   FB           MOV     R3,A
   \   000005   EA           MOV     A,R2
   \   000006   4B           ORL     A,R3
   \   000007   22           RET

   \                                 In  segment BANKED_CODE, align 1, keep-with-next
   \                     ??Subroutine51_0:
   \   000000   E0           MOVX    A,@DPTR
   \   000001   FA           MOV     R2,A
   \   000002   A3           INC     DPTR
   \   000003   E0           MOVX    A,@DPTR
   \   000004   FB           MOV     R3,A
   \   000005   22           RET

   \                                 In  segment BANKED_CODE, align 1, keep-with-next
   \                     ?Subroutine18:
   \   000000   8A82         MOV     DPL,R2
   \   000002   8B83         MOV     DPH,R3
   \   000004                REQUIRE ??Subroutine56_0
   \   000004                ; // Fall through to label ??Subroutine56_0

   \                                 In  segment BANKED_CODE, align 1, keep-with-next
   \                     ??Subroutine56_0:
   \   000000   12....       LCALL   ?Subroutine37 & 0xFFFF
   \                     ??CrossCallReturnLabel_138:
   \   000003   22           RET
    237          
    238          /*********************************************************************
    239           * @fn          afDataConfirm
    240           *
    241           * @brief       This function will generate the Data Confirm back to
    242           *              the application.
    243           *
    244           * @param       endPoint - confirm end point
    245           * @param       transID - transaction ID from APSDE_DATA_REQUEST
    246           * @param       status - status of APSDE_DATA_REQUEST
    247           *
    248           * @return      none
    249           */

   \                                 In  segment BANKED_CODE, align 1, keep-with-next
    250          void afDataConfirm( uint8 endPoint, uint8 transID, ZStatus_t status )
   \                     afDataConfirm:
    251          {
   \   000000                REQUIRE ?V0
   \   000000                REQUIRE ?V2
   \   000000                REQUIRE ?V3
   \   000000                REQUIRE ?V4
   \   000000                REQUIRE ?V5
   \   000000   74F2         MOV     A,#-0xe
   \   000002   12....       LCALL   ?BANKED_ENTER_XDATA
   \   000005                ; Saved register size: 14
   \   000005                ; Auto size: 0
   \   000005   E9           MOV     A,R1
   \   000006   FE           MOV     R6,A
   \   000007   EA           MOV     A,R2
   \   000008   FF           MOV     R7,A
   \   000009   8B..         MOV     ?V0,R3
    252            endPointDesc_t *epDesc;
    253            afDataConfirm_t *msgPtr;
    254          
    255            // Find the endpoint description
    256            epDesc = afFindEndPointDesc( endPoint );
   \   00000B                ; Setup parameters for call to function afFindEndPointDesc
   \   00000B   12....       LCALL   `??afFindEndPointDesc::?relay`; Banked call to: afFindEndPointDesc
   \   00000E   8A..         MOV     ?V4,R2
   \   000010   8B..         MOV     ?V5,R3
    257            if ( epDesc == NULL )
   \   000012   EA           MOV     A,R2
   \   000013   45..         ORL     A,?V5
   \   000015   6026         JZ      ??afDataConfirm_0
    258              return;
    259          
    260            // Determine the incoming command type
    261            msgPtr = (afDataConfirm_t *)osal_msg_allocate( sizeof(afDataConfirm_t) );
   \   000017                ; Setup parameters for call to function osal_msg_allocate
   \   000017   7A04         MOV     R2,#0x4
   \   000019   7B00         MOV     R3,#0x0
   \   00001B   12....       LCALL   `??osal_msg_allocate::?relay`; Banked call to: osal_msg_allocate
    262            if ( msgPtr )
   \   00001E   EA           MOV     A,R2
   \   00001F   4B           ORL     A,R3
   \   000020   601B         JZ      ??afDataConfirm_0
    263            {
    264              // Build the Data Confirm message
    265              msgPtr->hdr.event = AF_DATA_CONFIRM_CMD;
   \   000022   8A82         MOV     DPL,R2
   \   000024   8B83         MOV     DPH,R3
   \   000026   74FD         MOV     A,#-0x3
   \   000028   F0           MOVX    @DPTR,A
    266              msgPtr->hdr.status = status;
   \   000029   A3           INC     DPTR
   \   00002A   E5..         MOV     A,?V0
   \   00002C   12....       LCALL   ?Subroutine28 & 0xFFFF
    267              msgPtr->endpoint = endPoint;
    268              msgPtr->transID = transID;
   \                     ??CrossCallReturnLabel_35:
   \   00002F   EF           MOV     A,R7
   \   000030   8A82         MOV     DPL,R2
   \   000032   8B83         MOV     DPH,R3
   \   000034   A3           INC     DPTR
   \   000035   A3           INC     DPTR
   \   000036   A3           INC     DPTR
   \   000037   12....       LCALL   ?Subroutine6 & 0xFFFF
    269          
    270          #if defined ( MT_AF_CB_FUNC )
    271              /* If MT has subscribed for this callback, don't send as a message. */
    272              if ( AFCB_CHECK(CB_ID_AF_DATA_CNF,*(epDesc->task_id)) )
    273              {
    274                /* Send callback if it's subscribed */
    275                MT_AfDataConfirm ((void *)msgPtr);
    276                /* Release the memory. */
    277                osal_msg_deallocate( (void *)msgPtr );
    278              }
    279              else
    280          #endif
    281              {
    282                /* send message through task message */
    283                osal_msg_send( *(epDesc->task_id), (uint8 *)msgPtr );
    284              }
    285            }
   \                     ??CrossCallReturnLabel_66:
   \   00003A   12....       LCALL   `??osal_msg_send::?relay`; Banked call to: osal_msg_send
    286          }
   \                     ??afDataConfirm_0:
   \   00003D   7F06         MOV     R7,#0x6
   \   00003F   02....       LJMP    ?BANKED_LEAVE_XDATA

   \                                 In  segment BANKED_CODE, align 1, keep-with-next
   \                     ?Subroutine6:
   \   000000   F0           MOVX    @DPTR,A
   \   000001                ; Setup parameters for call to function osal_msg_send
   \   000001                ; Setup parameters for call to function osal_msg_send
   \   000001                REQUIRE ??Subroutine43_0
   \   000001                ; // Fall through to label ??Subroutine43_0

   \                                 In  segment BANKED_CODE, align 1, keep-with-next
   \                     ??Subroutine43_0:
   \   000000   85..82       MOV     DPL,?V4
   \   000003   85..83       MOV     DPH,?V5
   \   000006   A3           INC     DPTR
   \   000007   12....       LCALL   ?Subroutine39 & 0xFFFF
   \                     ??CrossCallReturnLabel_70:
   \   00000A   F9           MOV     R1,A
   \   00000B   22           RET

   \                                 In  segment BANKED_CODE, align 1, keep-with-next
   \                     ?Subroutine28:
   \   000000   F0           MOVX    @DPTR,A
   \   000001   EE           MOV     A,R6
   \   000002   8A82         MOV     DPL,R2
   \   000004   8B83         MOV     DPH,R3
   \   000006   A3           INC     DPTR
   \   000007   A3           INC     DPTR
   \   000008   F0           MOVX    @DPTR,A
   \   000009   22           RET

   \                                 In  segment BANKED_CODE, align 1, keep-with-next
   \                     ?Subroutine39:
   \   000000   E0           MOVX    A,@DPTR
   \   000001   F8           MOV     R0,A
   \   000002   A3           INC     DPTR
   \   000003   E0           MOVX    A,@DPTR
   \   000004   F583         MOV     DPH,A
   \   000006   8882         MOV     DPL,R0
   \   000008   E0           MOVX    A,@DPTR
   \   000009   22           RET
    287          
    288          /*********************************************************************
    289           * @fn          afReflectError
    290           *
    291           * @brief       This function will generate the Reflect Error message to
    292           *              the application.
    293           *
    294           * @param       dstAddrMode - mode of dstAdd - 0 - normal short addr, 1 - group Address
    295           * @param       dstAddr - intended destination
    296           * @param       endPoint - confirm end point
    297           * @param       transID - transaction ID from APSDE_DATA_REQUEST
    298           * @param       status - status of APSDE_DATA_REQUEST
    299           *
    300           * @return      none
    301           */

   \                                 In  segment BANKED_CODE, align 1, keep-with-next
    302          void afReflectError( uint8 dstAddrMode, uint16 dstAddr, uint8 endPoint, uint8 transID, ZStatus_t status )
   \                     afReflectError:
    303          {
   \   000000                REQUIRE ?V0
   \   000000                REQUIRE ?V2
   \   000000                REQUIRE ?V3
   \   000000                REQUIRE ?V4
   \   000000                REQUIRE ?V5
   \   000000                REQUIRE ?V6
   \   000000                REQUIRE ?V7
   \   000000   74F0         MOV     A,#-0x10
   \   000002   12....       LCALL   ?BANKED_ENTER_XDATA
   \   000005                ; Saved register size: 16
   \   000005                ; Auto size: 0
   \   000005   E9           MOV     A,R1
   \   000006   FF           MOV     R7,A
   \   000007   8A..         MOV     ?V6,R2
   \   000009   8B..         MOV     ?V7,R3
   \   00000B   EC           MOV     A,R4
   \   00000C   FE           MOV     R6,A
   \   00000D   8D..         MOV     ?V0,R5
    304            endPointDesc_t *epDesc;
    305            afReflectError_t *msgPtr;
    306          
    307            // Find the endpoint description
    308            epDesc = afFindEndPointDesc( endPoint );
   \   00000F                ; Setup parameters for call to function afFindEndPointDesc
   \   00000F   F9           MOV     R1,A
   \   000010   12....       LCALL   `??afFindEndPointDesc::?relay`; Banked call to: afFindEndPointDesc
   \   000013   8A..         MOV     ?V4,R2
   \   000015   8B..         MOV     ?V5,R3
    309            if ( epDesc == NULL )
   \   000017   EA           MOV     A,R2
   \   000018   45..         ORL     A,?V5
   \   00001A   6042         JZ      ??afReflectError_0
    310              return;
    311          
    312            // Determine the incoming command type
    313            msgPtr = (afReflectError_t *)osal_msg_allocate( sizeof(afReflectError_t) );
   \   00001C                ; Setup parameters for call to function osal_msg_allocate
   \   00001C   7A07         MOV     R2,#0x7
   \   00001E   7B00         MOV     R3,#0x0
   \   000020   12....       LCALL   `??osal_msg_allocate::?relay`; Banked call to: osal_msg_allocate
    314            if ( msgPtr )
   \   000023   EA           MOV     A,R2
   \   000024   4B           ORL     A,R3
   \   000025   6037         JZ      ??afReflectError_0
    315            {
    316              // Build the Data Confirm message
    317              msgPtr->hdr.event = AF_REFLECT_ERROR_CMD;
   \   000027   8A82         MOV     DPL,R2
   \   000029   8B83         MOV     DPH,R3
   \   00002B   74FE         MOV     A,#-0x2
   \   00002D   F0           MOVX    @DPTR,A
    318              msgPtr->hdr.status = status;
   \   00002E   7410         MOV     A,#0x10
   \   000030   12....       LCALL   ?XSTACK_DISP0_8
   \   000033   E0           MOVX    A,@DPTR
   \   000034   8A82         MOV     DPL,R2
   \   000036   8B83         MOV     DPH,R3
   \   000038   A3           INC     DPTR
   \   000039   12....       LCALL   ?Subroutine28 & 0xFFFF
    319              msgPtr->endpoint = endPoint;
    320              msgPtr->transID = transID;
   \                     ??CrossCallReturnLabel_36:
   \   00003C   8A82         MOV     DPL,R2
   \   00003E   8B83         MOV     DPH,R3
   \   000040   A3           INC     DPTR
   \   000041   A3           INC     DPTR
   \   000042   A3           INC     DPTR
   \   000043   E5..         MOV     A,?V0
   \   000045   F0           MOVX    @DPTR,A
    321              msgPtr->dstAddrMode = dstAddrMode;
   \   000046   EF           MOV     A,R7
   \   000047   8A82         MOV     DPL,R2
   \   000049   8B83         MOV     DPH,R3
   \   00004B   A3           INC     DPTR
   \   00004C   A3           INC     DPTR
   \   00004D   A3           INC     DPTR
   \   00004E   A3           INC     DPTR
   \   00004F   12....       LCALL   ?Subroutine27 & 0xFFFF
    322              msgPtr->dstAddr = dstAddr;
    323          
    324          #if defined ( MT_AF_CB_FUNC )
    325              /* If MT has subscribed for this callback, don't send as a message. */
    326              if ( AFCB_CHECK( CB_ID_AF_REFLECT_ERROR, *(epDesc->task_id) ) )
    327              {
    328                /* Send callback if it's subscribed */
    329                MT_AfReflectError( (void *)msgPtr );
    330                /* Release the memory. */
    331                osal_msg_deallocate( (void *)msgPtr );
    332              }
    333              else
    334          #endif
    335              {
    336                /* send message through task message */
    337                osal_msg_send( *(epDesc->task_id), (uint8 *)msgPtr );
    338              }
    339            }
   \                     ??CrossCallReturnLabel_34:
   \   000052   E5..         MOV     A,?V6
   \   000054   F0           MOVX    @DPTR,A
   \   000055   A3           INC     DPTR
   \   000056   E5..         MOV     A,?V7
   \   000058   12....       LCALL   ?Subroutine6 & 0xFFFF
   \                     ??CrossCallReturnLabel_67:
   \   00005B   12....       LCALL   `??osal_msg_send::?relay`; Banked call to: osal_msg_send
    340          }
   \                     ??afReflectError_0:
   \   00005E   02....       LJMP    ??Subroutine46_0 & 0xFFFF

   \                                 In  segment BANKED_CODE, align 1, keep-with-next
   \                     ??Subroutine46_0:
   \   000000   7F08         MOV     R7,#0x8
   \   000002   02....       LJMP    ?BANKED_LEAVE_XDATA
    341          
    342          /*********************************************************************
    343           * @fn          afIncomingData
    344           *
    345           * @brief       Transfer a data PDU (ASDU) from the APS sub-layer to the AF.
    346           *
    347           * @param       aff  - pointer to APS frame format
    348           * @param       SrcAddress  - Source address
    349           * @param       SrcPanId  - Source PAN ID
    350           * @param       sig - incoming message's link quality
    351           * @param       nwkSeqNum - incoming network sequence number (from nwk header frame)
    352           * @param       SecurityUse - Security enable/disable
    353           * @param       timestamp - the MAC Timer2 timestamp at Rx.
    354           * @param       radius - incoming messages received radius
    355           *
    356           * @return      none
    357           */

   \                                 In  segment BANKED_CODE, align 1, keep-with-next
    358          void afIncomingData( aps_FrameFormat_t *aff, zAddrType_t *SrcAddress, uint16 SrcPanId,
   \                     afIncomingData:
    359                               NLDE_Signal_t *sig, uint8 nwkSeqNum, uint8 SecurityUse,
    360                               uint32 timestamp, uint8 radius )
    361          {
   \   000000                REQUIRE ?V0
   \   000000                REQUIRE ?V1
   \   000000                REQUIRE ?V2
   \   000000                REQUIRE ?V3
   \   000000                REQUIRE ?V4
   \   000000                REQUIRE ?V5
   \   000000                REQUIRE ?V6
   \   000000                REQUIRE ?V7
   \   000000   74F0         MOV     A,#-0x10
   \   000002   12....       LCALL   ?BANKED_ENTER_XDATA
   \   000005                ; Saved register size: 16
   \   000005                ; Auto size: 9
   \   000005   74F7         MOV     A,#-0x9
   \   000007   12....       LCALL   ?ALLOC_XSTACK8
   \   00000A   7401         MOV     A,#0x1
   \   00000C   12....       LCALL   ?XSTACK_DISP0_8
   \   00000F   12....       LCALL   ?Subroutine29 & 0xFFFF
   \                     ??CrossCallReturnLabel_38:
   \   000012   7407         MOV     A,#0x7
   \   000014   12....       LCALL   ?XSTACK_DISP0_8
   \   000017   EC           MOV     A,R4
   \   000018   F0           MOVX    @DPTR,A
   \   000019   A3           INC     DPTR
   \   00001A   ED           MOV     A,R5
   \   00001B   F0           MOVX    @DPTR,A
   \   00001C   7406         MOV     A,#0x6
   \   00001E   12....       LCALL   ?XSTACK_DISP0_8
   \   000021   E9           MOV     A,R1
   \   000022   F0           MOVX    @DPTR,A
    362            endPointDesc_t *epDesc = NULL;
    363            epList_t *pList = epList;
   \   000023   90....       MOV     DPTR,#epList
   \   000026   12....       LCALL   ??Subroutine56_0 & 0xFFFF
   \                     ??CrossCallReturnLabel_123:
   \   000029   7403         MOV     A,#0x3
   \   00002B   12....       LCALL   ?XSTACK_DISP0_8
   \   00002E   12....       LCALL   ??Subroutine44_0 & 0xFFFF
    364          #if !defined ( APS_NO_GROUPS )
    365            uint8 grpEp = APS_GROUPS_EP_NOT_FOUND;
   \                     ??CrossCallReturnLabel_73:
   \   000031   85..82       MOV     DPL,?XSP + 0
   \   000034   85..83       MOV     DPH,?XSP + 1
   \   000037   74FE         MOV     A,#-0x2
   \   000039   F0           MOVX    @DPTR,A
    366          #endif
    367          
    368            if ( ((aff->FrmCtrl & APS_DELIVERYMODE_MASK) == APS_FC_DM_GROUP) )
   \   00003A   7401         MOV     A,#0x1
   \   00003C   12....       LCALL   ?XSTACK_DISP0_8
   \   00003F   12....       LCALL   ?Subroutine11 & 0xFFFF
   \                     ??CrossCallReturnLabel_6:
   \   000042   702E         JNZ     ??afIncomingData_0
    369            {
    370          #if !defined ( APS_NO_GROUPS )
    371              // Find the first endpoint for this group
    372              grpEp = aps_FindGroupForEndpoint( aff->GroupID, APS_GROUPS_FIND_FIRST );
   \   000044                ; Setup parameters for call to function aps_FindGroupForEndpoint
   \   000044   79FE         MOV     R1,#-0x2
   \   000046   7401         MOV     A,#0x1
   \   000048   12....       LCALL   ?XSTACK_DISP0_8
   \   00004B   12....       LCALL   ?Subroutine8 & 0xFFFF
   \                     ??CrossCallReturnLabel_111:
   \   00004E   12....       LCALL   `??aps_FindGroupForEndpoint::?relay`; Banked call to: aps_FindGroupForEndpoint
   \   000051   E9           MOV     A,R1
   \   000052   85..82       MOV     DPL,?XSP + 0
   \   000055   85..83       MOV     DPH,?XSP + 1
   \   000058   F0           MOVX    @DPTR,A
    373              if ( grpEp == APS_GROUPS_EP_NOT_FOUND )
   \   000059   64FE         XRL     A,#0xfe
   \   00005B   7003         JNZ     $+5
   \   00005D   02....       LJMP    ??afIncomingData_1 & 0xFFFF
    374                return;   // No endpoint found
    375          
    376              epDesc = afFindEndPointDesc( grpEp );
   \   000060                ; Setup parameters for call to function afFindEndPointDesc
   \   000060   12....       LCALL   `??afFindEndPointDesc::?relay`; Banked call to: afFindEndPointDesc
   \   000063   8A..         MOV     ?V0,R2
   \   000065   8B..         MOV     ?V1,R3
   \   000067   AE..         MOV     R6,?V0
   \   000069   AF..         MOV     R7,?V1
    377              if ( epDesc == NULL )
   \   00006B   EE           MOV     A,R6
   \   00006C   4F           ORL     A,R7
   \   00006D   704C         JNZ     ??afIncomingData_2
    378                return;   // Endpoint descriptor not found
   \   00006F   02....       LJMP    ??afIncomingData_1 & 0xFFFF
    379          
    380              pList = afFindEndPointDescList( epDesc->endPoint );
    381          #else
    382              return; // Not supported
    383          #endif
    384            }
    385            else if ( aff->DstEndPoint == AF_BROADCAST_ENDPOINT )
   \                     ??afIncomingData_0:
   \   000072   7401         MOV     A,#0x1
   \   000074   12....       LCALL   ?XSTACK_DISP0_8
   \   000077   12....       LCALL   ?Subroutine20 & 0xFFFF
   \                     ??CrossCallReturnLabel_25:
   \   00007A   7021         JNZ     ??afIncomingData_3
    386            {
    387              // Set the list
    388              if ( pList != NULL )
   \   00007C   7403         MOV     A,#0x3
   \   00007E   12....       LCALL   ?XSTACK_DISP0_8
   \   000081   12....       LCALL   ??Subroutine45_0 & 0xFFFF
   \                     ??CrossCallReturnLabel_86:
   \   000084   7003         JNZ     $+5
   \   000086   02....       LJMP    ??afIncomingData_1 & 0xFFFF
    389              {
    390                epDesc = pList->epDesc;
   \   000089   7403         MOV     A,#0x3
   \   00008B   12....       LCALL   ?XSTACK_DISP0_8
   \   00008E   12....       LCALL   ?Subroutine12 & 0xFFFF
    391              }
    392            }
   \                     ??CrossCallReturnLabel_8:
   \   000091   741E         MOV     A,#0x1e
   \   000093   12....       LCALL   ?XSTACK_DISP0_8
   \   000096   78..         MOV     R0,#?V0
   \   000098   12....       LCALL   ?L_MOV_X
   \   00009B   8034         SJMP    ??CrossCallReturnLabel_9
    393            else if ( (epDesc = afFindEndPointDesc( aff->DstEndPoint )) )
   \                     ??afIncomingData_3:
   \   00009D                ; Setup parameters for call to function afFindEndPointDesc
   \   00009D   7401         MOV     A,#0x1
   \   00009F   12....       LCALL   ?XSTACK_DISP0_8
   \   0000A2   12....       LCALL   ??Subroutine47_0 & 0xFFFF
   \                     ??CrossCallReturnLabel_93:
   \   0000A5   A3           INC     DPTR
   \   0000A6   E0           MOVX    A,@DPTR
   \   0000A7   F9           MOV     R1,A
   \   0000A8   12....       LCALL   `??afFindEndPointDesc::?relay`; Banked call to: afFindEndPointDesc
   \   0000AB   8A..         MOV     ?V0,R2
   \   0000AD   8B..         MOV     ?V1,R3
   \   0000AF   A8..         MOV     R0,?V0
   \   0000B1   A9..         MOV     R1,?V1
   \   0000B3   E8           MOV     A,R0
   \   0000B4   FE           MOV     R6,A
   \   0000B5   E9           MOV     A,R1
   \   0000B6   FF           MOV     R7,A
   \   0000B7   E8           MOV     A,R0
   \   0000B8   49           ORL     A,R1
   \   0000B9   60D6         JZ      ??CrossCallReturnLabel_8
    394            {
    395              pList = afFindEndPointDescList( epDesc->endPoint );
   \                     ??afIncomingData_2:
   \   0000BB                ; Setup parameters for call to function afFindEndPointDescList
   \   0000BB   8E82         MOV     DPL,R6
   \   0000BD   8F83         MOV     DPH,R7
   \   0000BF   E0           MOVX    A,@DPTR
   \   0000C0   F9           MOV     R1,A
   \   0000C1   12....       LCALL   `??afFindEndPointDescList::?relay`; Banked call to: afFindEndPointDescList
   \   0000C4   7403         MOV     A,#0x3
   \   0000C6   12....       LCALL   ?XSTACK_DISP0_8
   \   0000C9   12....       LCALL   ?Subroutine29 & 0xFFFF
    396            }
   \                     ??CrossCallReturnLabel_39:
   \   0000CC   80C3         SJMP    ??CrossCallReturnLabel_8
    397          
    398            while ( epDesc )
    399            {
    400              uint16 epProfileID = 0xFFFE;  // Invalid Profile ID
    401          
    402              if ( pList->pfnDescCB )
    403              {
    404                uint16 *pID = (uint16 *)(pList->pfnDescCB(
    405                                           AF_DESCRIPTOR_PROFILE_ID, epDesc->endPoint ));
    406                if ( pID )
    407                {
    408                  epProfileID = *pID;
    409                  osal_mem_free( pID );
    410                }
    411              }
    412              else if ( epDesc->simpleDesc )
    413              {
    414                epProfileID = epDesc->simpleDesc->AppProfId;
    415              }
    416          
    417              // First part of verification is to make sure that:
    418              // the local Endpoint ProfileID matches the received ProfileID OR
    419              // the message is specifically send to ZDO (this excludes the broadcast endpoint) OR
    420              // if the Wildcard ProfileID is received the message should not be sent to ZDO endpoint
    421              if ( (aff->ProfileID == epProfileID) ||
    422                   ((epDesc->endPoint == ZDO_EP) && (aff->ProfileID == ZDO_PROFILE_ID)) ||
    423                   ((epDesc->endPoint != ZDO_EP) && ( aff->ProfileID == ZDO_WILDCARD_PROFILE_ID )) )
    424              {
    425                // Save original endpoint
    426                uint8 endpoint = aff->DstEndPoint;
    427          
    428                // overwrite with descriptor's endpoint
    429                aff->DstEndPoint = epDesc->endPoint;
    430          
    431                afBuildMSGIncoming( aff, epDesc, SrcAddress, SrcPanId, sig,
    432                                   nwkSeqNum, SecurityUse, timestamp, radius );
    433          
    434                // Restore with original endpoint
    435                aff->DstEndPoint = endpoint;
    436              }
    437          
    438              if ( ((aff->FrmCtrl & APS_DELIVERYMODE_MASK) == APS_FC_DM_GROUP) )
    439              {
    440          #if !defined ( APS_NO_GROUPS )
    441                // Find the next endpoint for this group
    442                grpEp = aps_FindGroupForEndpoint( aff->GroupID, grpEp );
    443                if ( grpEp == APS_GROUPS_EP_NOT_FOUND )
    444                  return;   // No endpoint found
    445          
    446                epDesc = afFindEndPointDesc( grpEp );
    447                if ( epDesc == NULL )
    448                  return;   // Endpoint descriptor not found
    449          
    450                pList = afFindEndPointDescList( epDesc->endPoint );
    451          #else
    452                return;
    453          #endif
    454              }
    455              else if ( aff->DstEndPoint == AF_BROADCAST_ENDPOINT )
    456              {
    457                pList = pList->nextDesc;
    458                if ( pList )
    459                  epDesc = pList->epDesc;
   \                     ??afIncomingData_4:
   \   0000CE   12....       LCALL   ?Subroutine12 & 0xFFFF
   \                     ??CrossCallReturnLabel_9:
   \   0000D1   EE           MOV     A,R6
   \   0000D2   4F           ORL     A,R7
   \   0000D3   7003         JNZ     $+5
   \   0000D5   02....       LJMP    ??afIncomingData_1 & 0xFFFF
   \   0000D8   8011         SJMP    ??CrossCallReturnLabel_40
   \                     ??afIncomingData_5:
   \   0000DA                ; Setup parameters for call to function afFindEndPointDescList
   \   0000DA   8E82         MOV     DPL,R6
   \   0000DC   8F83         MOV     DPH,R7
   \   0000DE   E0           MOVX    A,@DPTR
   \   0000DF   F9           MOV     R1,A
   \   0000E0   12....       LCALL   `??afFindEndPointDescList::?relay`; Banked call to: afFindEndPointDescList
   \   0000E3   7403         MOV     A,#0x3
   \   0000E5   12....       LCALL   ?XSTACK_DISP0_8
   \   0000E8   12....       LCALL   ?Subroutine29 & 0xFFFF
   \                     ??CrossCallReturnLabel_40:
   \   0000EB   75..FE       MOV     ?V6,#-0x2
   \   0000EE   75..FF       MOV     ?V7,#-0x1
   \   0000F1   7403         MOV     A,#0x3
   \   0000F3   12....       LCALL   ?XSTACK_DISP0_8
   \   0000F6   E0           MOVX    A,@DPTR
   \   0000F7   F8           MOV     R0,A
   \   0000F8   12....       LCALL   ??Subroutine47_0 & 0xFFFF
   \                     ??CrossCallReturnLabel_94:
   \   0000FB   12....       LCALL   ?Subroutine5 & 0xFFFF
   \                     ??CrossCallReturnLabel_90:
   \   0000FE   8E82         MOV     DPL,R6
   \   000100   8F83         MOV     DPH,R7
   \   000102   6024         JZ      ??afIncomingData_6
   \   000104                ; Setup parameters for indirect call
   \   000104   E0           MOVX    A,@DPTR
   \   000105   FA           MOV     R2,A
   \   000106   7902         MOV     R1,#0x2
   \   000108   7403         MOV     A,#0x3
   \   00010A   12....       LCALL   ?XSTACK_DISP0_8
   \   00010D   E0           MOVX    A,@DPTR
   \   00010E   F8           MOV     R0,A
   \   00010F   12....       LCALL   ??Subroutine47_0 & 0xFFFF
   \                     ??CrossCallReturnLabel_95:
   \   000112   12....       LCALL   ??Subroutine52_0 & 0xFFFF
   \                     ??CrossCallReturnLabel_116:
   \   000115   12....       LCALL   ?CALL_IND
   \   000118   EA           MOV     A,R2
   \   000119   4B           ORL     A,R3
   \   00011A   601B         JZ      ??CrossCallReturnLabel_1
   \   00011C   8A82         MOV     DPL,R2
   \   00011E   8B83         MOV     DPH,R3
   \   000120   12....       LCALL   ?Subroutine9 & 0xFFFF
   \                     ??CrossCallReturnLabel_0:
   \   000123                ; Setup parameters for call to function osal_mem_free
   \   000123   12....       LCALL   `??osal_mem_free::?relay`; Banked call to: osal_mem_free
   \   000126   800F         SJMP    ??CrossCallReturnLabel_1
   \                     ??afIncomingData_6:
   \   000128   12....       LCALL   ?Subroutine5 & 0xFFFF
   \                     ??CrossCallReturnLabel_91:
   \   00012B   600A         JZ      ??CrossCallReturnLabel_1
   \   00012D   8E82         MOV     DPL,R6
   \   00012F   8F83         MOV     DPH,R7
   \   000131   12....       LCALL   ?Subroutine21 & 0xFFFF
   \                     ??CrossCallReturnLabel_96:
   \   000134   12....       LCALL   ?Subroutine9 & 0xFFFF
   \                     ??CrossCallReturnLabel_1:
   \   000137   7401         MOV     A,#0x1
   \   000139   12....       LCALL   ?XSTACK_DISP0_8
   \   00013C   12....       LCALL   ?Subroutine10 & 0xFFFF
   \                     ??CrossCallReturnLabel_4:
   \   00013F   65..         XRL     A,?V6
   \   000141   7004         JNZ     ??afIncomingData_7
   \   000143   A3           INC     DPTR
   \   000144   E0           MOVX    A,@DPTR
   \   000145   65..         XRL     A,?V7
   \                     ??afIncomingData_7:
   \   000147   602C         JZ      ??afIncomingData_8
   \   000149   8E82         MOV     DPL,R6
   \   00014B   8F83         MOV     DPH,R7
   \   00014D   E0           MOVX    A,@DPTR
   \   00014E   7012         JNZ     ??afIncomingData_9
   \   000150   7401         MOV     A,#0x1
   \   000152   12....       LCALL   ?XSTACK_DISP0_8
   \   000155   12....       LCALL   ?Subroutine38 & 0xFFFF
   \                     ??CrossCallReturnLabel_60:
   \   000158   12....       LCALL   ??Subroutine45_0 & 0xFFFF
   \                     ??CrossCallReturnLabel_87:
   \   00015B   6003         JZ      $+5
   \   00015D   02....       LJMP    ??CrossCallReturnLabel_28 & 0xFFFF
   \   000160   8013         SJMP    ??afIncomingData_8
   \                     ??afIncomingData_9:
   \   000162   7401         MOV     A,#0x1
   \   000164   12....       LCALL   ?XSTACK_DISP0_8
   \   000167   12....       LCALL   ?Subroutine10 & 0xFFFF
   \                     ??CrossCallReturnLabel_5:
   \   00016A   F4           CPL     A
   \   00016B   7003         JNZ     ??afIncomingData_10
   \   00016D   A3           INC     DPTR
   \   00016E   E0           MOVX    A,@DPTR
   \   00016F   F4           CPL     A
   \                     ??afIncomingData_10:
   \   000170   6003         JZ      $+5
   \   000172   02....       LJMP    ??CrossCallReturnLabel_28 & 0xFFFF
   \                     ??afIncomingData_8:
   \   000175   7401         MOV     A,#0x1
   \   000177   12....       LCALL   ?XSTACK_DISP0_8
   \   00017A   E0           MOVX    A,@DPTR
   \   00017B   2402         ADD     A,#0x2
   \   00017D   F5..         MOV     ?V6,A
   \   00017F   A3           INC     DPTR
   \   000180   E0           MOVX    A,@DPTR
   \   000181   3400         ADDC    A,#0x0
   \   000183   F5..         MOV     ?V7,A
   \   000185   85..82       MOV     DPL,?V6
   \   000188   F583         MOV     DPH,A
   \   00018A   E0           MOVX    A,@DPTR
   \   00018B   C0E0         PUSH    A
   \   00018D   7405         MOV     A,#0x5
   \   00018F   12....       LCALL   ?XSTACK_DISP0_8
   \   000192   D0E0         POP     A
   \   000194   F0           MOVX    @DPTR,A
   \   000195   8E82         MOV     DPL,R6
   \   000197   8F83         MOV     DPH,R7
   \   000199   12....       LCALL   ?Subroutine23 & 0xFFFF
   \                     ??CrossCallReturnLabel_27:
   \   00019C                ; Setup parameters for call to function afBuildMSGIncoming
   \   00019C   7422         MOV     A,#0x22
   \   00019E   12....       LCALL   ?XSTACK_DISP0_8
   \   0001A1   E0           MOVX    A,@DPTR
   \   0001A2   F5..         MOV     ?V4,A
   \   0001A4   78..         MOV     R0,#?V4
   \   0001A6   12....       LCALL   ?PUSH_XSTACK_I_ONE
   \   0001A9   78..         MOV     R0,#?V0
   \   0001AB   12....       LCALL   ?PUSH_XSTACK_I_FOUR
   \   0001AE   7422         MOV     A,#0x22
   \   0001B0   12....       LCALL   ?XSTACK_DISP0_8
   \   0001B3   E0           MOVX    A,@DPTR
   \   0001B4   F5..         MOV     ?V4,A
   \   0001B6   78..         MOV     R0,#?V4
   \   0001B8   12....       LCALL   ?PUSH_XSTACK_I_ONE
   \   0001BB   7421         MOV     A,#0x21
   \   0001BD   12....       LCALL   ?XSTACK_DISP0_8
   \   0001C0   12....       LCALL   ?PUSH_XSTACK8_X_TWO
   \   0001C3   7421         MOV     A,#0x21
   \   0001C5   12....       LCALL   ?XSTACK_DISP0_8
   \   0001C8   12....       LCALL   ?PUSH_XSTACK8_X_TWO
   \   0001CB   7411         MOV     A,#0x11
   \   0001CD   12....       LCALL   ?XSTACK_DISP0_8
   \   0001D0   12....       LCALL   ?PUSH_XSTACK8_X_TWO
   \   0001D3   7412         MOV     A,#0x12
   \   0001D5   12....       LCALL   ?XSTACK_DISP0_8
   \   0001D8   E0           MOVX    A,@DPTR
   \   0001D9   F9           MOV     R1,A
   \   0001DA   EE           MOV     A,R6
   \   0001DB   FC           MOV     R4,A
   \   0001DC   EF           MOV     A,R7
   \   0001DD   FD           MOV     R5,A
   \   0001DE   740D         MOV     A,#0xd
   \   0001E0   12....       LCALL   ?XSTACK_DISP0_8
   \   0001E3   12....       LCALL   ??Subroutine51_0 & 0xFFFF
   \                     ??CrossCallReturnLabel_103:
   \   0001E6   12....       LCALL   `??afBuildMSGIncoming::?relay`; Banked call to: afBuildMSGIncoming
   \   0001E9   740C         MOV     A,#0xc
   \   0001EB   12....       LCALL   ?DEALLOC_XSTACK8
   \   0001EE   7405         MOV     A,#0x5
   \   0001F0   12....       LCALL   ?XSTACK_DISP0_8
   \   0001F3   12....       LCALL   ?Subroutine23 & 0xFFFF
   \                     ??CrossCallReturnLabel_28:
   \   0001F6   7401         MOV     A,#0x1
   \   0001F8   12....       LCALL   ?XSTACK_DISP0_8
   \   0001FB   12....       LCALL   ?Subroutine11 & 0xFFFF
   \                     ??CrossCallReturnLabel_7:
   \   0001FE   7033         JNZ     ??afIncomingData_11
   \   000200                ; Setup parameters for call to function aps_FindGroupForEndpoint
   \   000200   85..82       MOV     DPL,?XSP + 0
   \   000203   85..83       MOV     DPH,?XSP + 1
   \   000206   E0           MOVX    A,@DPTR
   \   000207   F9           MOV     R1,A
   \   000208   7401         MOV     A,#0x1
   \   00020A   12....       LCALL   ?XSTACK_DISP0_8
   \   00020D   12....       LCALL   ?Subroutine8 & 0xFFFF
   \                     ??CrossCallReturnLabel_112:
   \   000210   12....       LCALL   `??aps_FindGroupForEndpoint::?relay`; Banked call to: aps_FindGroupForEndpoint
   \   000213   E9           MOV     A,R1
   \   000214   85..82       MOV     DPL,?XSP + 0
   \   000217   85..83       MOV     DPH,?XSP + 1
   \   00021A   F0           MOVX    @DPTR,A
   \   00021B   64FE         XRL     A,#0xfe
   \   00021D   603E         JZ      ??afIncomingData_1
   \   00021F                ; Setup parameters for call to function afFindEndPointDesc
   \   00021F   12....       LCALL   `??afFindEndPointDesc::?relay`; Banked call to: afFindEndPointDesc
   \   000222   8A..         MOV     ?V4,R2
   \   000224   8B..         MOV     ?V5,R3
   \   000226   AE..         MOV     R6,?V4
   \   000228   AF..         MOV     R7,?V5
   \   00022A   EE           MOV     A,R6
   \   00022B   4F           ORL     A,R7
   \   00022C   6003         JZ      $+5
   \   00022E   02....       LJMP    ??afIncomingData_5 & 0xFFFF
   \   000231   802A         SJMP    ??afIncomingData_1
   \                     ??afIncomingData_11:
   \   000233   7401         MOV     A,#0x1
   \   000235   12....       LCALL   ?XSTACK_DISP0_8
   \   000238   12....       LCALL   ?Subroutine20 & 0xFFFF
   \                     ??CrossCallReturnLabel_26:
   \   00023B   7020         JNZ     ??afIncomingData_1
   \   00023D   7403         MOV     A,#0x3
   \   00023F   12....       LCALL   ?XSTACK_DISP0_8
   \   000242   12....       LCALL   ??Subroutine54_0 & 0xFFFF
   \                     ??CrossCallReturnLabel_113:
   \   000245   12....       LCALL   ??Subroutine56_0 & 0xFFFF
   \                     ??CrossCallReturnLabel_124:
   \   000248   7403         MOV     A,#0x3
   \   00024A   12....       LCALL   ?XSTACK_DISP0_8
   \   00024D   12....       LCALL   ??Subroutine44_0 & 0xFFFF
   \                     ??CrossCallReturnLabel_74:
   \   000250   7403         MOV     A,#0x3
   \   000252   12....       LCALL   ?XSTACK_DISP0_8
   \   000255   E0           MOVX    A,@DPTR
   \   000256   F8           MOV     R0,A
   \   000257   49           ORL     A,R1
   \   000258   6003         JZ      $+5
   \   00025A   02....       LJMP    ??afIncomingData_4 & 0xFFFF
    460                else
    461                  epDesc = NULL;
    462              }
    463              else
    464                epDesc = NULL;
    465            }
    466          }
   \                     ??afIncomingData_1:
   \   00025D   7409         MOV     A,#0x9
   \   00025F   02....       LJMP    ?Subroutine3 & 0xFFFF

   \                                 In  segment BANKED_CODE, align 1, keep-with-next
   \                     ?Subroutine23:
   \   000000   E0           MOVX    A,@DPTR
   \   000001   85..82       MOV     DPL,?V6
   \   000004   85..83       MOV     DPH,?V7
   \   000007   F0           MOVX    @DPTR,A
   \   000008   22           RET

   \                                 In  segment BANKED_CODE, align 1, keep-with-next
   \                     ?Subroutine20:
   \   000000   12....       LCALL   ?Subroutine40 & 0xFFFF
   \                     ??CrossCallReturnLabel_63:
   \   000003   F4           CPL     A
   \   000004   22           RET

   \                                 In  segment BANKED_CODE, align 1, keep-with-next
   \                     ?Subroutine12:
   \   000000   12....       LCALL   ?Subroutine40 & 0xFFFF
   \                     ??CrossCallReturnLabel_62:
   \   000003   FE           MOV     R6,A
   \   000004   A3           INC     DPTR
   \   000005   E0           MOVX    A,@DPTR
   \   000006   FF           MOV     R7,A
   \   000007   22           RET

   \                                 In  segment BANKED_CODE, align 1, keep-with-next
   \                     ?Subroutine40:
   \   000000   A3           INC     DPTR
   \   000001   E0           MOVX    A,@DPTR
   \   000002   F583         MOV     DPH,A
   \   000004   8882         MOV     DPL,R0
   \   000006   A3           INC     DPTR
   \   000007   A3           INC     DPTR
   \   000008   E0           MOVX    A,@DPTR
   \   000009   22           RET

   \                                 In  segment BANKED_CODE, align 1, keep-with-next
   \                     ?Subroutine11:
   \   000000   12....       LCALL   ?Subroutine39 & 0xFFFF
   \                     ??CrossCallReturnLabel_69:
   \   000003   540C         ANL     A,#0xc
   \   000005   640C         XRL     A,#0xc
   \   000007   22           RET

   \                                 In  segment BANKED_CODE, align 1, keep-with-next
   \                     ?Subroutine10:
   \   000000   12....       LCALL   ?Subroutine38 & 0xFFFF
   \                     ??CrossCallReturnLabel_61:
   \   000003   E0           MOVX    A,@DPTR
   \   000004   22           RET

   \                                 In  segment BANKED_CODE, align 1, keep-with-next
   \                     ?Subroutine38:
   \   000000   E0           MOVX    A,@DPTR
   \   000001   F8           MOV     R0,A
   \   000002   A3           INC     DPTR
   \   000003   E0           MOVX    A,@DPTR
   \   000004   C8           XCH     A,R0
   \   000005   2408         ADD     A,#0x8
   \   000007   F582         MOV     DPL,A
   \   000009   E4           CLR     A
   \   00000A   38           ADDC    A,R0
   \   00000B   F583         MOV     DPH,A
   \   00000D   22           RET

   \                                 In  segment BANKED_CODE, align 1, keep-with-next
   \                     ?Subroutine9:
   \   000000   E0           MOVX    A,@DPTR
   \   000001   F5..         MOV     ?V6,A
   \   000003   A3           INC     DPTR
   \   000004   E0           MOVX    A,@DPTR
   \   000005   F5..         MOV     ?V7,A
   \   000007   22           RET

   \                                 In  segment BANKED_CODE, align 1, keep-with-next
   \                     ?Subroutine5:
   \   000000   A3           INC     DPTR
   \   000001   A3           INC     DPTR
   \   000002   A3           INC     DPTR
   \   000003                REQUIRE ??Subroutine45_0
   \   000003                ; // Fall through to label ??Subroutine45_0

   \                                 In  segment BANKED_CODE, align 1, keep-with-next
   \                     ?Subroutine3:
   \   000000   12....       LCALL   ?DEALLOC_XSTACK8
   \   000003                REQUIRE ??Subroutine46_0
   \   000003                ; // Fall through to label ??Subroutine46_0

   \                                 In  segment BANKED_CODE, align 1, keep-with-next
   \                     ?Subroutine21:
   \   000000   A3           INC     DPTR
   \   000001   A3           INC     DPTR
   \   000002   A3           INC     DPTR
   \   000003                REQUIRE ??Subroutine47_0
   \   000003                ; // Fall through to label ??Subroutine47_0

   \                                 In  segment BANKED_CODE, align 1, keep-with-next
   \                     ??Subroutine47_0:
   \   000000   12....       LCALL   ?Subroutine41 & 0xFFFF
   \                     ??CrossCallReturnLabel_121:
   \   000003   A3           INC     DPTR
   \   000004   22           RET

   \                                 In  segment BANKED_CODE, align 1, keep-with-next
   \                     ?Subroutine8:
   \   000000   12....       LCALL   ?Subroutine41 & 0xFFFF
   \                     ??CrossCallReturnLabel_120:
   \   000003   A3           INC     DPTR
   \   000004                REQUIRE ??Subroutine49_0
   \   000004                ; // Fall through to label ??Subroutine49_0

   \                                 In  segment BANKED_CODE, align 1, keep-with-next
   \                     ??Subroutine49_0:
   \   000000   A3           INC     DPTR
   \   000001                REQUIRE ??Subroutine50_0
   \   000001                ; // Fall through to label ??Subroutine50_0

   \                                 In  segment BANKED_CODE, align 1, keep-with-next
   \                     ??Subroutine50_0:
   \   000000   A3           INC     DPTR
   \   000001   A3           INC     DPTR
   \   000002                REQUIRE ??Subroutine51_0
   \   000002                ; // Fall through to label ??Subroutine51_0

   \                                 In  segment BANKED_CODE, align 1, keep-with-next
   \                     ??Subroutine52_0:
   \   000000   A3           INC     DPTR
   \   000001                REQUIRE ??Subroutine53_0
   \   000001                ; // Fall through to label ??Subroutine53_0

   \                                 In  segment BANKED_CODE, align 1, keep-with-next
   \                     ??Subroutine53_0:
   \   000000   A3           INC     DPTR
   \   000001   A3           INC     DPTR
   \   000002                REQUIRE ??Subroutine54_0
   \   000002                ; // Fall through to label ??Subroutine54_0

   \                                 In  segment BANKED_CODE, align 1, keep-with-next
   \                     ??Subroutine54_0:
   \   000000   E0           MOVX    A,@DPTR
   \   000001   F8           MOV     R0,A
   \   000002   12....       LCALL   ?Subroutine41 & 0xFFFF
   \                     ??CrossCallReturnLabel_122:
   \   000005   22           RET

   \                                 In  segment BANKED_CODE, align 1, keep-with-next
   \                     ?Subroutine41:
   \   000000   A3           INC     DPTR
   \   000001                REQUIRE ??Subroutine55_0
   \   000001                ; // Fall through to label ??Subroutine55_0

   \                                 In  segment BANKED_CODE, align 1, keep-with-next
   \                     ??Subroutine55_0:
   \   000000   E0           MOVX    A,@DPTR
   \   000001   F583         MOV     DPH,A
   \   000003   8882         MOV     DPL,R0
   \   000005   22           RET
    467          
    468          /*********************************************************************
    469           * @fn          afBuildMSGIncoming
    470           *
    471           * @brief       Build the message for the app
    472           *
    473           * @param
    474           *
    475           * @return      pointer to next in data buffer
    476           */

   \                                 In  segment BANKED_CODE, align 1, keep-with-next
    477          static void afBuildMSGIncoming( aps_FrameFormat_t *aff, endPointDesc_t *epDesc,
   \                     afBuildMSGIncoming:
    478                           zAddrType_t *SrcAddress, uint16 SrcPanId, NLDE_Signal_t *sig,
    479                           uint8 nwkSeqNum, uint8 SecurityUse, uint32 timestamp, uint8 radius )
    480          {
   \   000000                REQUIRE ?V0
   \   000000                REQUIRE ?V1
   \   000000                REQUIRE ?V2
   \   000000                REQUIRE ?V3
   \   000000                REQUIRE ?V4
   \   000000                REQUIRE ?V5
   \   000000                REQUIRE ?V6
   \   000000                REQUIRE ?V7
   \   000000   74F0         MOV     A,#-0x10
   \   000002   12....       LCALL   ?BANKED_ENTER_XDATA
   \   000005                ; Saved register size: 16
   \   000005                ; Auto size: 1
   \   000005   74FF         MOV     A,#-0x1
   \   000007   12....       LCALL   ?ALLOC_XSTACK8
   \   00000A   E9           MOV     A,R1
   \   00000B   85..82       MOV     DPL,?XSP + 0
   \   00000E   85..83       MOV     DPH,?XSP + 1
   \   000011   F0           MOVX    @DPTR,A
   \   000012   8A..         MOV     ?V0,R2
   \   000014   8B..         MOV     ?V1,R3
   \   000016   8C..         MOV     ?V4,R4
   \   000018   8D..         MOV     ?V5,R5
    481            afIncomingMSGPacket_t *MSGpkt;
    482            const uint8 len = sizeof( afIncomingMSGPacket_t ) + aff->asduLength;
    483            uint8 *asdu = aff->asdu;
   \   00001A   EA           MOV     A,R2
   \   00001B   240E         ADD     A,#0xe
   \   00001D   F582         MOV     DPL,A
   \   00001F   E4           CLR     A
   \   000020   35..         ADDC    A,?V1
   \   000022   F583         MOV     DPH,A
   \   000024   12....       LCALL   ?Subroutine9 & 0xFFFF
    484            MSGpkt = (afIncomingMSGPacket_t *)osal_msg_allocate( len );
   \                     ??CrossCallReturnLabel_2:
   \   000027                ; Setup parameters for call to function osal_msg_allocate
   \   000027   EA           MOV     A,R2
   \   000028   12....       LCALL   ?Subroutine32 & 0xFFFF
   \                     ??CrossCallReturnLabel_47:
   \   00002B   2427         ADD     A,#0x27
   \   00002D   FA           MOV     R2,A
   \   00002E   7B00         MOV     R3,#0x0
   \   000030   12....       LCALL   `??osal_msg_allocate::?relay`; Banked call to: osal_msg_allocate
   \   000033   8A..         MOV     ?V2,R2
   \   000035   8B..         MOV     ?V3,R3
   \   000037   AE..         MOV     R6,?V2
   \   000039   AF..         MOV     R7,?V3
    485          
    486            if ( MSGpkt == NULL )
   \   00003B   EE           MOV     A,R6
   \   00003C   4F           ORL     A,R7
   \   00003D   7003         JNZ     $+5
   \   00003F   02....       LJMP    ??afBuildMSGIncoming_0 & 0xFFFF
    487            {
    488              return;
    489            }
    490          
    491            MSGpkt->hdr.event = AF_INCOMING_MSG_CMD;
   \   000042   8E82         MOV     DPL,R6
   \   000044   8F83         MOV     DPH,R7
   \   000046   741A         MOV     A,#0x1a
   \   000048   12....       LCALL   ?Subroutine34 & 0xFFFF
    492            MSGpkt->groupId = aff->GroupID;
   \                     ??CrossCallReturnLabel_51:
   \   00004B   12....       LCALL   ?Subroutine13 & 0xFFFF
   \                     ??CrossCallReturnLabel_10:
   \   00004E   12....       LCALL   ?Subroutine24 & 0xFFFF
    493            MSGpkt->clusterId = aff->ClusterID;
   \                     ??CrossCallReturnLabel_29:
   \   000051   12....       LCALL   ?Subroutine13 & 0xFFFF
   \                     ??CrossCallReturnLabel_11:
   \   000054   A3           INC     DPTR
   \   000055   A3           INC     DPTR
   \   000056   12....       LCALL   ??Subroutine44_0 & 0xFFFF
    494            afCopyAddress( &MSGpkt->srcAddr, SrcAddress );
   \                     ??CrossCallReturnLabel_75:
   \   000059                ; Setup parameters for call to function afCopyAddress
   \   000059   7411         MOV     A,#0x11
   \   00005B   12....       LCALL   ?XSTACK_DISP0_8
   \   00005E   12....       LCALL   ?Subroutine19 & 0xFFFF
   \                     ??CrossCallReturnLabel_22:
   \   000061   EE           MOV     A,R6
   \   000062   2406         ADD     A,#0x6
   \   000064   FA           MOV     R2,A
   \   000065   E4           CLR     A
   \   000066   3F           ADDC    A,R7
   \   000067   FB           MOV     R3,A
   \   000068   12....       LCALL   `??afCopyAddress::?relay`; Banked call to: afCopyAddress
    495            MSGpkt->srcAddr.endPoint = aff->SrcEndPoint;
   \   00006B   85..82       MOV     DPL,?V0
   \   00006E   85..83       MOV     DPH,?V1
   \   000071   A3           INC     DPTR
   \   000072   A3           INC     DPTR
   \   000073   A3           INC     DPTR
   \   000074   E0           MOVX    A,@DPTR
   \   000075   C0E0         PUSH    A
   \   000077   EE           MOV     A,R6
   \   000078   240F         ADD     A,#0xf
   \   00007A   F582         MOV     DPL,A
   \   00007C   E4           CLR     A
   \   00007D   3F           ADDC    A,R7
   \   00007E   F583         MOV     DPH,A
   \   000080   D0E0         POP     A
   \   000082   F0           MOVX    @DPTR,A
    496            MSGpkt->endPoint = epDesc->endPoint;
   \   000083   85..82       MOV     DPL,?V4
   \   000086   85..83       MOV     DPH,?V5
   \   000089   E0           MOVX    A,@DPTR
   \   00008A   C0E0         PUSH    A
   \   00008C   EE           MOV     A,R6
   \   00008D   2414         ADD     A,#0x14
   \   00008F   F582         MOV     DPL,A
   \   000091   E4           CLR     A
   \   000092   3F           ADDC    A,R7
   \   000093   F583         MOV     DPH,A
   \   000095   D0E0         POP     A
   \   000097   F0           MOVX    @DPTR,A
    497            MSGpkt->wasBroadcast = aff->wasBroadcast;
   \   000098   E5..         MOV     A,?V0
   \   00009A   240C         ADD     A,#0xc
   \   00009C   F582         MOV     DPL,A
   \   00009E   E4           CLR     A
   \   00009F   35..         ADDC    A,?V1
   \   0000A1   F583         MOV     DPH,A
   \   0000A3   E0           MOVX    A,@DPTR
   \   0000A4   C0E0         PUSH    A
   \   0000A6   EE           MOV     A,R6
   \   0000A7   2415         ADD     A,#0x15
   \   0000A9   F582         MOV     DPL,A
   \   0000AB   E4           CLR     A
   \   0000AC   3F           ADDC    A,R7
   \   0000AD   F583         MOV     DPH,A
   \   0000AF   D0E0         POP     A
   \   0000B1   F0           MOVX    @DPTR,A
   \   0000B2   7415         MOV     A,#0x15
   \   0000B4   12....       LCALL   ?XSTACK_DISP0_8
   \   0000B7   12....       LCALL   ?Subroutine16 & 0xFFFF
    498            MSGpkt->LinkQuality = sig->LinkQuality;
   \                     ??CrossCallReturnLabel_16:
   \   0000BA   E0           MOVX    A,@DPTR
   \   0000BB   C0E0         PUSH    A
   \   0000BD   EE           MOV     A,R6
   \   0000BE   2416         ADD     A,#0x16
   \   0000C0   F582         MOV     DPL,A
   \   0000C2   E4           CLR     A
   \   0000C3   3F           ADDC    A,R7
   \   0000C4   F583         MOV     DPH,A
   \   0000C6   D0E0         POP     A
   \   0000C8   12....       LCALL   ?Subroutine36 & 0xFFFF
    499            MSGpkt->correlation = sig->correlation;
   \                     ??CrossCallReturnLabel_56:
   \   0000CB   A3           INC     DPTR
   \   0000CC   E0           MOVX    A,@DPTR
   \   0000CD   C0E0         PUSH    A
   \   0000CF   EE           MOV     A,R6
   \   0000D0   2417         ADD     A,#0x17
   \   0000D2   F582         MOV     DPL,A
   \   0000D4   E4           CLR     A
   \   0000D5   3F           ADDC    A,R7
   \   0000D6   F583         MOV     DPH,A
   \   0000D8   D0E0         POP     A
   \   0000DA   12....       LCALL   ?Subroutine36 & 0xFFFF
    500            MSGpkt->rssi = sig->rssi;
   \                     ??CrossCallReturnLabel_57:
   \   0000DD   A3           INC     DPTR
   \   0000DE   A3           INC     DPTR
   \   0000DF   E0           MOVX    A,@DPTR
   \   0000E0   C0E0         PUSH    A
   \   0000E2   EE           MOV     A,R6
   \   0000E3   2418         ADD     A,#0x18
   \   0000E5   F582         MOV     DPL,A
   \   0000E7   E4           CLR     A
   \   0000E8   3F           ADDC    A,R7
   \   0000E9   F583         MOV     DPH,A
   \   0000EB   D0E0         POP     A
   \   0000ED   F0           MOVX    @DPTR,A
    501            MSGpkt->SecurityUse = SecurityUse;
   \   0000EE   7417         MOV     A,#0x17
   \   0000F0   12....       LCALL   ?XSTACK_DISP0_8
   \   0000F3   E0           MOVX    A,@DPTR
   \   0000F4   C0E0         PUSH    A
   \   0000F6   EE           MOV     A,R6
   \   0000F7   2419         ADD     A,#0x19
   \   0000F9   F582         MOV     DPL,A
   \   0000FB   E4           CLR     A
   \   0000FC   3F           ADDC    A,R7
   \   0000FD   F583         MOV     DPH,A
   \   0000FF   D0E0         POP     A
   \   000101   F0           MOVX    @DPTR,A
    502            MSGpkt->timestamp = timestamp;
   \   000102   7418         MOV     A,#0x18
   \   000104   12....       LCALL   ?XSTACK_DISP0_8
   \   000107   12....       LCALL   ?XLOAD_R0123
   \   00010A   EE           MOV     A,R6
   \   00010B   241A         ADD     A,#0x1a
   \   00010D   F582         MOV     DPL,A
   \   00010F   E4           CLR     A
   \   000110   3F           ADDC    A,R7
   \   000111   F583         MOV     DPH,A
   \   000113   12....       LCALL   ?XSTORE_R0123
    503            MSGpkt->nwkSeqNum = nwkSeqNum;
   \   000116   85..82       MOV     DPL,?XSP + 0
   \   000119   85..83       MOV     DPH,?XSP + 1
   \   00011C   E0           MOVX    A,@DPTR
   \   00011D   C0E0         PUSH    A
   \   00011F   EE           MOV     A,R6
   \   000120   241E         ADD     A,#0x1e
   \   000122   F582         MOV     DPL,A
   \   000124   E4           CLR     A
   \   000125   3F           ADDC    A,R7
   \   000126   F583         MOV     DPH,A
   \   000128   D0E0         POP     A
   \   00012A   F0           MOVX    @DPTR,A
    504            MSGpkt->macSrcAddr = aff->macSrcAddr;
   \   00012B   E5..         MOV     A,?V0
   \   00012D   2415         ADD     A,#0x15
   \   00012F   F582         MOV     DPL,A
   \   000131   E4           CLR     A
   \   000132   35..         ADDC    A,?V1
   \   000134   F583         MOV     DPH,A
   \   000136   12....       LCALL   ?Subroutine17 & 0xFFFF
   \                     ??CrossCallReturnLabel_18:
   \   000139   2424         ADD     A,#0x24
   \   00013B   F582         MOV     DPL,A
   \   00013D   E4           CLR     A
   \   00013E   3F           ADDC    A,R7
   \   00013F   F583         MOV     DPH,A
   \   000141   12....       LCALL   ?Subroutine24 & 0xFFFF
    505            MSGpkt->macDestAddr = aff->macDestAddr;
   \                     ??CrossCallReturnLabel_30:
   \   000144   A3           INC     DPTR
   \   000145   A3           INC     DPTR
   \   000146   A3           INC     DPTR
   \   000147   A3           INC     DPTR
   \   000148   A3           INC     DPTR
   \   000149   A3           INC     DPTR
   \   00014A   A3           INC     DPTR
   \   00014B   A3           INC     DPTR
   \   00014C   12....       LCALL   ?Subroutine17 & 0xFFFF
   \                     ??CrossCallReturnLabel_19:
   \   00014F   2412         ADD     A,#0x12
   \   000151   12....       LCALL   ?Subroutine25 & 0xFFFF
    506            MSGpkt->srcAddr.panId = SrcPanId;
   \                     ??CrossCallReturnLabel_81:
   \   000154   7413         MOV     A,#0x13
   \   000156   12....       LCALL   ?XSTACK_DISP0_8
   \   000159   12....       LCALL   ?Subroutine17 & 0xFFFF
   \                     ??CrossCallReturnLabel_20:
   \   00015C   2410         ADD     A,#0x10
   \   00015E   12....       LCALL   ?Subroutine25 & 0xFFFF
    507            MSGpkt->cmd.TransSeqNumber = 0;
   \                     ??CrossCallReturnLabel_82:
   \   000161   EE           MOV     A,R6
   \   000162   241F         ADD     A,#0x1f
   \   000164   F582         MOV     DPL,A
   \   000166   E4           CLR     A
   \   000167   3F           ADDC    A,R7
   \   000168   F583         MOV     DPH,A
   \   00016A   E4           CLR     A
   \   00016B   F0           MOVX    @DPTR,A
    508            MSGpkt->cmd.DataLength = aff->asduLength;
   \   00016C   EE           MOV     A,R6
   \   00016D   2420         ADD     A,#0x20
   \   00016F   F8           MOV     R0,A
   \   000170   E4           CLR     A
   \   000171   3F           ADDC    A,R7
   \   000172   F9           MOV     R1,A
   \   000173   E5..         MOV     A,?V0
   \   000175   12....       LCALL   ?Subroutine32 & 0xFFFF
   \                     ??CrossCallReturnLabel_48:
   \   000178   8882         MOV     DPL,R0
   \   00017A   8983         MOV     DPH,R1
   \   00017C   F0           MOVX    @DPTR,A
   \   00017D   A3           INC     DPTR
   \   00017E   E4           CLR     A
   \   00017F   F0           MOVX    @DPTR,A
    509            MSGpkt->radius = radius;
   \   000180   741C         MOV     A,#0x1c
   \   000182   12....       LCALL   ?XSTACK_DISP0_8
   \   000185   E0           MOVX    A,@DPTR
   \   000186   C0E0         PUSH    A
   \   000188   EE           MOV     A,R6
   \   000189   2426         ADD     A,#0x26
   \   00018B   F582         MOV     DPL,A
   \   00018D   E4           CLR     A
   \   00018E   3F           ADDC    A,R7
   \   00018F   F583         MOV     DPH,A
   \   000191   D0E0         POP     A
   \   000193   12....       LCALL   ?Subroutine36 & 0xFFFF
    510          
    511            if ( MSGpkt->cmd.DataLength )
   \                     ??CrossCallReturnLabel_58:
   \   000196   12....       LCALL   ??Subroutine45_0 & 0xFFFF
   \                     ??CrossCallReturnLabel_88:
   \   000199   6031         JZ      ??afBuildMSGIncoming_1
    512            {
    513              MSGpkt->cmd.Data = (uint8 *)(MSGpkt + 1);
   \   00019B   EE           MOV     A,R6
   \   00019C   2427         ADD     A,#0x27
   \   00019E   FA           MOV     R2,A
   \   00019F   E4           CLR     A
   \   0001A0   3F           ADDC    A,R7
   \   0001A1   FB           MOV     R3,A
   \   0001A2   12....       LCALL   ?Subroutine33 & 0xFFFF
   \                     ??CrossCallReturnLabel_49:
   \   0001A5   12....       LCALL   ?Subroutine29 & 0xFFFF
    514              osal_memcpy( MSGpkt->cmd.Data, asdu, MSGpkt->cmd.DataLength );
   \                     ??CrossCallReturnLabel_41:
   \   0001A8                ; Setup parameters for call to function osal_memcpy
   \   0001A8   85....       MOV     ?V0,?V6
   \   0001AB   85....       MOV     ?V1,?V7
   \   0001AE   75..00       MOV     ?V2,#0x0
   \   0001B1   78..         MOV     R0,#?V0
   \   0001B3   12....       LCALL   ?PUSH_XSTACK_I_THREE
   \   0001B6   EE           MOV     A,R6
   \   0001B7   2420         ADD     A,#0x20
   \   0001B9   F582         MOV     DPL,A
   \   0001BB   E4           CLR     A
   \   0001BC   3F           ADDC    A,R7
   \   0001BD   F583         MOV     DPH,A
   \   0001BF   12....       LCALL   ?Subroutine19 & 0xFFFF
    515            }
   \                     ??CrossCallReturnLabel_23:
   \   0001C2   12....       LCALL   `??osal_memcpy::?relay`; Banked call to: osal_memcpy
   \   0001C5   7403         MOV     A,#0x3
   \   0001C7   12....       LCALL   ?DEALLOC_XSTACK8
   \   0001CA   8007         SJMP    ??afBuildMSGIncoming_2
    516            else
    517            {
    518              MSGpkt->cmd.Data = NULL;
   \                     ??afBuildMSGIncoming_1:
   \   0001CC   12....       LCALL   ?Subroutine33 & 0xFFFF
    519            }
   \                     ??CrossCallReturnLabel_50:
   \   0001CF   E4           CLR     A
   \   0001D0   F0           MOVX    @DPTR,A
   \   0001D1   A3           INC     DPTR
   \   0001D2   F0           MOVX    @DPTR,A
    520          
    521          #if defined ( MT_AF_CB_FUNC )
    522            // If ZDO or SAPI have registered for this endpoint, dont intercept it here
    523            if (AFCB_CHECK(CB_ID_AF_DATA_IND, *(epDesc->task_id)))
    524            {
    525              MT_AfIncomingMsg( (void *)MSGpkt );
    526              // Release the memory.
    527              osal_msg_deallocate( (void *)MSGpkt );
    528            }
    529            else
    530          #endif
    531            {
    532              // Send message through task message.
    533              osal_msg_send( *(epDesc->task_id), (uint8 *)MSGpkt );
   \                     ??afBuildMSGIncoming_2:
   \   0001D3                ; Setup parameters for call to function osal_msg_send
   \   0001D3   EE           MOV     A,R6
   \   0001D4   FA           MOV     R2,A
   \   0001D5   EF           MOV     A,R7
   \   0001D6   FB           MOV     R3,A
   \   0001D7   12....       LCALL   ??Subroutine43_0 & 0xFFFF
    534            }
   \                     ??CrossCallReturnLabel_68:
   \   0001DA   12....       LCALL   `??osal_msg_send::?relay`; Banked call to: osal_msg_send
    535          }
   \                     ??afBuildMSGIncoming_0:
   \   0001DD   7401         MOV     A,#0x1
   \   0001DF   02....       LJMP    ?Subroutine3 & 0xFFFF

   \                                 In  segment BANKED_CODE, align 1, keep-with-next
   \                     ?Subroutine33:
   \   000000   EE           MOV     A,R6
   \   000001   2422         ADD     A,#0x22
   \   000003   F582         MOV     DPL,A
   \   000005   E4           CLR     A
   \   000006   3F           ADDC    A,R7
   \   000007   F583         MOV     DPH,A
   \   000009   22           RET

   \                                 In  segment BANKED_CODE, align 1, keep-with-next
   \                     ?Subroutine32:
   \   000000   2410         ADD     A,#0x10
   \   000002   F582         MOV     DPL,A
   \   000004   E4           CLR     A
   \   000005   35..         ADDC    A,?V1
   \   000007   F583         MOV     DPH,A
   \   000009   E0           MOVX    A,@DPTR
   \   00000A   22           RET

   \                                 In  segment BANKED_CODE, align 1, keep-with-next
   \                     ?Subroutine25:
   \   000000   F582         MOV     DPL,A
   \   000002   E4           CLR     A
   \   000003   3F           ADDC    A,R7
   \   000004   F583         MOV     DPH,A
   \   000006                REQUIRE ??Subroutine44_0
   \   000006                ; // Fall through to label ??Subroutine44_0

   \                                 In  segment BANKED_CODE, align 1, keep-with-next
   \                     ?Subroutine24:
   \   000000   E8           MOV     A,R0
   \   000001   F0           MOVX    @DPTR,A
   \   000002   A3           INC     DPTR
   \   000003   E9           MOV     A,R1
   \   000004   12....       LCALL   ?Subroutine34 & 0xFFFF
   \                     ??CrossCallReturnLabel_52:
   \   000007   A3           INC     DPTR
   \   000008   A3           INC     DPTR
   \   000009   22           RET

   \                                 In  segment BANKED_CODE, align 1, keep-with-next
   \                     ?Subroutine34:
   \   000000   F0           MOVX    @DPTR,A
   \   000001                ; Setup parameters for call to function afFindEndPointDescList
   \   000001   85..82       MOV     DPL,?V0
   \   000004   85..83       MOV     DPH,?V1
   \   000007   22           RET

   \                                 In  segment BANKED_CODE, align 1, keep-with-next
   \                     ?Subroutine17:
   \   000000   12....       LCALL   ?Subroutine37 & 0xFFFF
   \                     ??CrossCallReturnLabel_136:
   \   000003   EE           MOV     A,R6
   \   000004   22           RET

   \                                 In  segment BANKED_CODE, align 1, keep-with-next
   \                     ?Subroutine13:
   \   000000   A3           INC     DPTR
   \   000001   A3           INC     DPTR
   \   000002   A3           INC     DPTR
   \   000003   A3           INC     DPTR
   \   000004   12....       LCALL   ?Subroutine37 & 0xFFFF
   \                     ??CrossCallReturnLabel_133:
   \   000007   8E82         MOV     DPL,R6
   \   000009   8F83         MOV     DPH,R7
   \   00000B   A3           INC     DPTR
   \   00000C   A3           INC     DPTR
   \   00000D   22           RET

   \                                 In  segment BANKED_CODE, align 1, keep-with-next
   \                     ?Subroutine16:
   \   000000   12....       LCALL   ?Subroutine37 & 0xFFFF
   \                     ??CrossCallReturnLabel_135:
   \   000003   8882         MOV     DPL,R0
   \   000005   8983         MOV     DPH,R1
   \   000007   22           RET

   \                                 In  segment BANKED_CODE, align 1, keep-with-next
   \                     ?Subroutine36:
   \   000000   F0           MOVX    @DPTR,A
   \   000001   8882         MOV     DPL,R0
   \   000003   8983         MOV     DPH,R1
   \   000005   22           RET
    536          
    537          /*********************************************************************
    538           * @fn      AF_DataRequest
    539           *
    540           * @brief   Common functionality for invoking APSDE_DataReq() for both
    541           *          SendMulti and MSG-Send.
    542           *
    543           * input parameters
    544           *
    545           * @param  *dstAddr - Full ZB destination address: Nwk Addr + End Point.
    546           * @param  *srcEP - Origination (i.e. respond to or ack to) End Point Descr.
    547           * @param   cID - A valid cluster ID as specified by the Profile.
    548           * @param   len - Number of bytes of data pointed to by next param.
    549           * @param  *buf - A pointer to the data bytes to send.
    550           * @param  *transID - A pointer to a byte which can be modified and which will
    551           *                    be used as the transaction sequence number of the msg.
    552           * @param   options - Valid bit mask of Tx options.
    553           * @param   radius - Normally set to AF_DEFAULT_RADIUS.
    554           *
    555           * output parameters
    556           *
    557           * @param  *transID - Incremented by one if the return value is success.
    558           *
    559           * @return  afStatus_t - See previous definition of afStatus_... types.
    560           */

   \                                 In  segment XDATA_I, align 1, keep-with-next
    561          uint8 AF_DataRequestDiscoverRoute = DISC_ROUTE_NETWORK;
   \                     AF_DataRequestDiscoverRoute:
   \   000000                DS 1
   \   000001                REQUIRE `?<Initializer for AF_DataRequestDiscoverRoute>`
   \   000001                REQUIRE __INIT_XDATA_I

   \                                 In  segment BANKED_CODE, align 1, keep-with-next
    562          afStatus_t AF_DataRequest( afAddrType_t *dstAddr, endPointDesc_t *srcEP,
   \                     AF_DataRequest:
    563                                     uint16 cID, uint16 len, uint8 *buf, uint8 *transID,
    564                                     uint8 options, uint8 radius )
    565          {
   \   000000                REQUIRE ?V0
   \   000000                REQUIRE ?V1
   \   000000                REQUIRE ?V2
   \   000000                REQUIRE ?V4
   \   000000                REQUIRE ?V5
   \   000000                REQUIRE ?V6
   \   000000                REQUIRE ?V7
   \   000000   74F0         MOV     A,#-0x10
   \   000002   12....       LCALL   ?BANKED_ENTER_XDATA
   \   000005                ; Saved register size: 16
   \   000005                ; Auto size: 30
   \   000005   74E2         MOV     A,#-0x1e
   \   000007   12....       LCALL   ?ALLOC_XSTACK8
   \   00000A   EA           MOV     A,R2
   \   00000B   FE           MOV     R6,A
   \   00000C   EB           MOV     A,R3
   \   00000D   FF           MOV     R7,A
   \   00000E   8C..         MOV     ?V0,R4
   \   000010   8D..         MOV     ?V1,R5
   \   000012   89..         MOV     ?V2,R1
    566            pDescCB pfnDescCB;
    567            ZStatus_t stat;
    568            APSDE_DataReq_t req;
    569            afDataReqMTU_t mtu;
    570            epList_t *pList;
    571          
    572            // Verify source end point
    573            if ( srcEP == NULL )
   \   000014   EC           MOV     A,R4
   \   000015   45..         ORL     A,?V1
   \   000017   7003         JNZ     $+5
   \   000019   02....       LJMP    ??AF_DataRequest_0 & 0xFFFF
    574            {
    575              return afStatus_INVALID_PARAMETER;
    576            }
    577          
    578          #if !defined( REFLECTOR )
    579            if ( dstAddr->addrMode == afAddrNotPresent )
    580            {
    581              return afStatus_INVALID_PARAMETER;
    582            }
    583          #endif
    584          
    585            // Check if route is available before sending data
    586            if ( options & AF_LIMIT_CONCENTRATOR  )
   \   00001C   E9           MOV     A,R1
   \   00001D   A2E3         MOV     C,0xE0 /* A   */.3
   \   00001F   5042         JNC     ??AF_DataRequest_1
    587            {
    588              if ( dstAddr->addrMode != afAddr16Bit )
   \   000021   8E82         MOV     DPL,R6
   \   000023   8F83         MOV     DPH,R7
   \   000025   A3           INC     DPTR
   \   000026   A3           INC     DPTR
   \   000027   A3           INC     DPTR
   \   000028   A3           INC     DPTR
   \   000029   A3           INC     DPTR
   \   00002A   A3           INC     DPTR
   \   00002B   A3           INC     DPTR
   \   00002C   A3           INC     DPTR
   \   00002D   E0           MOVX    A,@DPTR
   \   00002E   6402         XRL     A,#0x2
   \   000030   6003         JZ      $+5
   \   000032   02....       LJMP    ??AF_DataRequest_0 & 0xFFFF
    589              {
    590                return ( afStatus_INVALID_PARAMETER );
    591              }
    592          
    593              // First, make sure the destination is not its self, then check for an existing route.
    594              if ( (dstAddr->addr.shortAddr != NLME_GetShortAddr())
    595                  && (RTG_CheckRtStatus( dstAddr->addr.shortAddr, RT_ACTIVE, (MTO_ROUTE | NO_ROUTE_CACHE) ) != RTG_SUCCESS) )
   \   000035                ; Setup parameters for call to function NLME_GetShortAddr
   \   000035   12....       LCALL   `??NLME_GetShortAddr::?relay`; Banked call to: NLME_GetShortAddr
   \   000038   8A..         MOV     ?V4,R2
   \   00003A   8B..         MOV     ?V5,R3
   \   00003C   A8..         MOV     R0,?V4
   \   00003E   A9..         MOV     R1,?V5
   \   000040   8E82         MOV     DPL,R6
   \   000042   8F83         MOV     DPH,R7
   \   000044   E0           MOVX    A,@DPTR
   \   000045   68           XRL     A,R0
   \   000046   7003         JNZ     ??AF_DataRequest_2
   \   000048   A3           INC     DPTR
   \   000049   E0           MOVX    A,@DPTR
   \   00004A   69           XRL     A,R1
   \                     ??AF_DataRequest_2:
   \   00004B   6016         JZ      ??AF_DataRequest_1
   \   00004D                ; Setup parameters for call to function RTG_CheckRtStatus
   \   00004D   7C03         MOV     R4,#0x3
   \   00004F   7901         MOV     R1,#0x1
   \   000051   8E82         MOV     DPL,R6
   \   000053   8F83         MOV     DPH,R7
   \   000055   12....       LCALL   ??Subroutine51_0 & 0xFFFF
   \                     ??CrossCallReturnLabel_104:
   \   000058   12....       LCALL   `??RTG_CheckRtStatus::?relay`; Banked call to: RTG_CheckRtStatus
   \   00005B   E9           MOV     A,R1
   \   00005C   6005         JZ      ??AF_DataRequest_1
    596              {
    597                // A valid route to a concentrator wasn't found
    598                return ( afStatus_NO_ROUTE );
   \   00005E   79CD         MOV     R1,#-0x33
   \   000060   02....       LJMP    ??AF_DataRequest_3 & 0xFFFF
    599              }
    600            }
    601          
    602            // Validate broadcasting
    603            if ( ( dstAddr->addrMode == afAddr16Bit     ) ||
    604                 ( dstAddr->addrMode == afAddrBroadcast )    )
   \                     ??AF_DataRequest_1:
   \   000063   8E82         MOV     DPL,R6
   \   000065   8F83         MOV     DPH,R7
   \   000067   A3           INC     DPTR
   \   000068   A3           INC     DPTR
   \   000069   A3           INC     DPTR
   \   00006A   A3           INC     DPTR
   \   00006B   A3           INC     DPTR
   \   00006C   A3           INC     DPTR
   \   00006D   A3           INC     DPTR
   \   00006E   A3           INC     DPTR
   \   00006F   E0           MOVX    A,@DPTR
   \   000070   6402         XRL     A,#0x2
   \   000072   6011         JZ      ??AF_DataRequest_4
   \   000074   8E82         MOV     DPL,R6
   \   000076   8F83         MOV     DPH,R7
   \   000078   A3           INC     DPTR
   \   000079   A3           INC     DPTR
   \   00007A   A3           INC     DPTR
   \   00007B   A3           INC     DPTR
   \   00007C   A3           INC     DPTR
   \   00007D   A3           INC     DPTR
   \   00007E   A3           INC     DPTR
   \   00007F   A3           INC     DPTR
   \   000080   E0           MOVX    A,@DPTR
   \   000081   640F         XRL     A,#0xf
   \   000083   704B         JNZ     ??AF_DataRequest_5
    605            {
    606              // Check for valid broadcast values
    607              if( ADDR_NOT_BCAST != NLME_IsAddressBroadcast( dstAddr->addr.shortAddr )  )
   \                     ??AF_DataRequest_4:
   \   000085                ; Setup parameters for call to function NLME_IsAddressBroadcast
   \   000085   8E82         MOV     DPL,R6
   \   000087   8F83         MOV     DPH,R7
   \   000089   12....       LCALL   ??Subroutine51_0 & 0xFFFF
   \                     ??CrossCallReturnLabel_105:
   \   00008C   12....       LCALL   `??NLME_IsAddressBroadcast::?relay`; Banked call to: NLME_IsAddressBroadcast
   \   00008F   E9           MOV     A,R1
   \   000090   8E82         MOV     DPL,R6
   \   000092   8F83         MOV     DPH,R7
   \   000094   A3           INC     DPTR
   \   000095   A3           INC     DPTR
   \   000096   A3           INC     DPTR
   \   000097   A3           INC     DPTR
   \   000098   A3           INC     DPTR
   \   000099   A3           INC     DPTR
   \   00009A   A3           INC     DPTR
   \   00009B   A3           INC     DPTR
   \   00009C   602B         JZ      ??AF_DataRequest_6
    608              {
    609                // Force mode to broadcast
    610                dstAddr->addrMode = afAddrBroadcast;
   \   00009E   740F         MOV     A,#0xf
   \   0000A0   F0           MOVX    @DPTR,A
    611              }
    612              else
    613              {
    614                // Address is not a valid broadcast type
    615                if ( dstAddr->addrMode == afAddrBroadcast )
    616                {
    617                  return afStatus_INVALID_PARAMETER;
    618                }
    619              }
    620            }
    621            else if ( dstAddr->addrMode != afAddr64Bit &&
    622                      dstAddr->addrMode != afAddrGroup &&
    623                      dstAddr->addrMode != afAddrNotPresent )
    624            {
    625              return afStatus_INVALID_PARAMETER;
    626            }
    627          
    628            // Set destination address
    629            req.dstAddr.addrMode = dstAddr->addrMode;
   \                     ??AF_DataRequest_7:
   \   0000A1   EE           MOV     A,R6
   \   0000A2   2408         ADD     A,#0x8
   \   0000A4   F8           MOV     R0,A
   \   0000A5   E4           CLR     A
   \   0000A6   3F           ADDC    A,R7
   \   0000A7   F9           MOV     R1,A
   \   0000A8   8882         MOV     DPL,R0
   \   0000AA   8983         MOV     DPH,R1
   \   0000AC   E0           MOVX    A,@DPTR
   \   0000AD   C0E0         PUSH    A
   \   0000AF   740A         MOV     A,#0xa
   \   0000B1   12....       LCALL   ?XSTACK_DISP0_8
   \   0000B4   D0E0         POP     A
   \   0000B6   12....       LCALL   ?Subroutine31 & 0xFFFF
    630            if ( dstAddr->addrMode == afAddr64Bit )
   \                     ??CrossCallReturnLabel_45:
   \   0000B9   704B         JNZ     ??AF_DataRequest_8
    631            {
    632              osal_cpyExtAddr( req.dstAddr.addr.extAddr, dstAddr->addr.extAddr );
   \   0000BB                ; Setup parameters for call to function sAddrExtCpy
   \   0000BB   EE           MOV     A,R6
   \   0000BC   FC           MOV     R4,A
   \   0000BD   EF           MOV     A,R7
   \   0000BE   FD           MOV     R5,A
   \   0000BF   7402         MOV     A,#0x2
   \   0000C1   12....       LCALL   ?XSTACK_DISP101_8
   \   0000C4   12....       LCALL   `??sAddrExtCpy::?relay`; Banked call to: sAddrExtCpy
   \   0000C7   804C         SJMP    ??CrossCallReturnLabel_76
    633            }
   \                     ??AF_DataRequest_6:
   \   0000C9   E0           MOVX    A,@DPTR
   \   0000CA   640F         XRL     A,#0xf
   \   0000CC   70D3         JNZ     ??AF_DataRequest_7
   \   0000CE   8031         SJMP    ??AF_DataRequest_0
   \                     ??AF_DataRequest_5:
   \   0000D0   8E82         MOV     DPL,R6
   \   0000D2   8F83         MOV     DPH,R7
   \   0000D4   A3           INC     DPTR
   \   0000D5   A3           INC     DPTR
   \   0000D6   A3           INC     DPTR
   \   0000D7   A3           INC     DPTR
   \   0000D8   A3           INC     DPTR
   \   0000D9   A3           INC     DPTR
   \   0000DA   A3           INC     DPTR
   \   0000DB   A3           INC     DPTR
   \   0000DC   E0           MOVX    A,@DPTR
   \   0000DD   6403         XRL     A,#0x3
   \   0000DF   60C0         JZ      ??AF_DataRequest_7
   \   0000E1   8E82         MOV     DPL,R6
   \   0000E3   8F83         MOV     DPH,R7
   \   0000E5   A3           INC     DPTR
   \   0000E6   A3           INC     DPTR
   \   0000E7   A3           INC     DPTR
   \   0000E8   A3           INC     DPTR
   \   0000E9   A3           INC     DPTR
   \   0000EA   A3           INC     DPTR
   \   0000EB   A3           INC     DPTR
   \   0000EC   A3           INC     DPTR
   \   0000ED   E0           MOVX    A,@DPTR
   \   0000EE   6401         XRL     A,#0x1
   \   0000F0   60AF         JZ      ??AF_DataRequest_7
   \   0000F2   8E82         MOV     DPL,R6
   \   0000F4   8F83         MOV     DPH,R7
   \   0000F6   A3           INC     DPTR
   \   0000F7   A3           INC     DPTR
   \   0000F8   A3           INC     DPTR
   \   0000F9   A3           INC     DPTR
   \   0000FA   A3           INC     DPTR
   \   0000FB   A3           INC     DPTR
   \   0000FC   A3           INC     DPTR
   \   0000FD   A3           INC     DPTR
   \   0000FE   E0           MOVX    A,@DPTR
   \   0000FF   60A0         JZ      ??AF_DataRequest_7
   \                     ??AF_DataRequest_0:
   \   000101   7902         MOV     R1,#0x2
   \   000103   02....       LJMP    ??AF_DataRequest_3 & 0xFFFF
    634            else
    635            {
    636              req.dstAddr.addr.shortAddr = dstAddr->addr.shortAddr;
   \                     ??AF_DataRequest_8:
   \   000106   8E82         MOV     DPL,R6
   \   000108   8F83         MOV     DPH,R7
   \   00010A   12....       LCALL   ??Subroutine56_0 & 0xFFFF
    637            }
   \                     ??CrossCallReturnLabel_125:
   \   00010D   7402         MOV     A,#0x2
   \   00010F   12....       LCALL   ?XSTACK_DISP0_8
   \   000112   12....       LCALL   ??Subroutine44_0 & 0xFFFF
    638          
    639            // This option is to use Wildcard ProfileID in outgoing packets
    640            if ( options & AF_WILDCARD_PROFILEID )
   \                     ??CrossCallReturnLabel_76:
   \   000115   E5..         MOV     A,?V2
   \   000117   A2E1         MOV     C,0xE0 /* A   */.1
   \   000119   7411         MOV     A,#0x11
   \   00011B   5009         JNC     ??AF_DataRequest_9
    641            {
    642              req.profileID = ZDO_WILDCARD_PROFILE_ID;
   \   00011D   12....       LCALL   ?XSTACK_DISP0_8
   \   000120   74FF         MOV     A,#-0x1
   \   000122   F0           MOVX    @DPTR,A
   \   000123   A3           INC     DPTR
   \   000124   8078         SJMP    ??AF_DataRequest_10
    643            }
    644            else
    645            {
    646              req.profileID = ZDO_PROFILE_ID;
   \                     ??AF_DataRequest_9:
   \   000126   12....       LCALL   ?XSTACK_DISP0_8
   \   000129   E4           CLR     A
   \   00012A   F0           MOVX    @DPTR,A
   \   00012B   A3           INC     DPTR
   \   00012C   F0           MOVX    @DPTR,A
    647          
    648              if ( (pfnDescCB = afGetDescCB( srcEP )) )
   \   00012D   90....       MOV     DPTR,#epList
   \                     ??AF_DataRequest_11:
   \   000130   12....       LCALL   ??Subroutine45_0 & 0xFFFF
   \                     ??CrossCallReturnLabel_83:
   \   000133   6049         JZ      ??AF_DataRequest_12
   \   000135   8882         MOV     DPL,R0
   \   000137   8983         MOV     DPH,R1
   \   000139   12....       LCALL   ??Subroutine50_0 & 0xFFFF
   \                     ??CrossCallReturnLabel_108:
   \   00013C   E5..         MOV     A,?V0
   \   00013E   6A           XRL     A,R2
   \   00013F   7003         JNZ     ??AF_DataRequest_13
   \   000141   E5..         MOV     A,?V1
   \   000143   6B           XRL     A,R3
   \                     ??AF_DataRequest_13:
   \   000144   8882         MOV     DPL,R0
   \   000146   8983         MOV     DPH,R1
   \   000148   70E6         JNZ     ??AF_DataRequest_11
   \   00014A   A3           INC     DPTR
   \   00014B   A3           INC     DPTR
   \   00014C   A3           INC     DPTR
   \   00014D   A3           INC     DPTR
   \   00014E   12....       LCALL   ??Subroutine56_0 & 0xFFFF
   \                     ??CrossCallReturnLabel_126:
   \   000151   E8           MOV     A,R0
   \   000152   FC           MOV     R4,A
   \   000153   E9           MOV     A,R1
   \   000154   FD           MOV     R5,A
   \   000155   EC           MOV     A,R4
   \   000156   4D           ORL     A,R5
   \   000157   6025         JZ      ??AF_DataRequest_12
    649              {
    650                uint16 *pID = (uint16 *)(pfnDescCB(
    651                                             AF_DESCRIPTOR_PROFILE_ID, srcEP->endPoint ));
   \   000159                ; Setup parameters for indirect call
   \   000159   85..82       MOV     DPL,?V0
   \   00015C   85..83       MOV     DPH,?V1
   \   00015F   E0           MOVX    A,@DPTR
   \   000160   FA           MOV     R2,A
   \   000161   7902         MOV     R1,#0x2
   \   000163   8C82         MOV     DPL,R4
   \   000165   8D83         MOV     DPH,R5
   \   000167   12....       LCALL   ?CALL_IND
    652                if ( pID )
   \   00016A   EA           MOV     A,R2
   \   00016B   4B           ORL     A,R3
   \   00016C   6031         JZ      ??AF_DataRequest_14
    653                {
    654                  req.profileID = *pID;
   \   00016E   12....       LCALL   ?Subroutine18 & 0xFFFF
   \                     ??CrossCallReturnLabel_132:
   \   000171   7411         MOV     A,#0x11
   \   000173   12....       LCALL   ?XSTACK_DISP0_8
   \   000176   12....       LCALL   ??Subroutine44_0 & 0xFFFF
    655                  osal_mem_free( pID );
   \                     ??CrossCallReturnLabel_77:
   \   000179                ; Setup parameters for call to function osal_mem_free
   \   000179   12....       LCALL   `??osal_mem_free::?relay`; Banked call to: osal_mem_free
   \   00017C   8021         SJMP    ??AF_DataRequest_14
    656                }
    657              }
    658              else if ( srcEP->simpleDesc )
   \                     ??AF_DataRequest_12:
   \   00017E   85..82       MOV     DPL,?V0
   \   000181   85..83       MOV     DPH,?V1
   \   000184   12....       LCALL   ?Subroutine5 & 0xFFFF
   \                     ??CrossCallReturnLabel_92:
   \   000187   6016         JZ      ??AF_DataRequest_14
    659              {
    660                req.profileID = srcEP->simpleDesc->AppProfId;
   \   000189   85..82       MOV     DPL,?V0
   \   00018C   85..83       MOV     DPH,?V1
   \   00018F   12....       LCALL   ?Subroutine21 & 0xFFFF
    661              }
    662            }
   \                     ??CrossCallReturnLabel_97:
   \   000192   12....       LCALL   ??Subroutine56_0 & 0xFFFF
   \                     ??CrossCallReturnLabel_127:
   \   000195   7411         MOV     A,#0x11
   \   000197   12....       LCALL   ?XSTACK_DISP0_8
   \   00019A   E8           MOV     A,R0
   \   00019B   F0           MOVX    @DPTR,A
   \   00019C   A3           INC     DPTR
   \   00019D   E9           MOV     A,R1
   \                     ??AF_DataRequest_10:
   \   00019E   F0           MOVX    @DPTR,A
    663          
    664            req.txOptions = 0;
   \                     ??AF_DataRequest_14:
   \   00019F   7417         MOV     A,#0x17
   \   0001A1   12....       LCALL   ?XSTACK_DISP0_8
   \   0001A4   E4           CLR     A
   \   0001A5   F0           MOVX    @DPTR,A
   \   0001A6   A3           INC     DPTR
   \   0001A7   F0           MOVX    @DPTR,A
    665          
    666            if ( ( options & AF_ACK_REQUEST              ) &&
    667                 ( req.dstAddr.addrMode != AddrBroadcast ) &&
    668                 ( req.dstAddr.addrMode != AddrGroup     )    )
   \   0001A8   E5..         MOV     A,?V2
   \   0001AA   A2E4         MOV     C,0xE0 /* A   */.4
   \   0001AC   501A         JNC     ??AF_DataRequest_15
   \   0001AE   740A         MOV     A,#0xa
   \   0001B0   12....       LCALL   ?XSTACK_DISP0_8
   \   0001B3   E0           MOVX    A,@DPTR
   \   0001B4   640F         XRL     A,#0xf
   \   0001B6   6010         JZ      ??AF_DataRequest_15
   \   0001B8   E0           MOVX    A,@DPTR
   \   0001B9   6401         XRL     A,#0x1
   \   0001BB   600B         JZ      ??AF_DataRequest_15
    669            {
    670              req.txOptions |=  APS_TX_OPTIONS_ACK;
   \   0001BD   7417         MOV     A,#0x17
   \   0001BF   12....       LCALL   ?XSTACK_DISP0_8
   \   0001C2   7404         MOV     A,#0x4
   \   0001C4   F0           MOVX    @DPTR,A
   \   0001C5   A3           INC     DPTR
   \   0001C6   E4           CLR     A
   \   0001C7   F0           MOVX    @DPTR,A
    671            }
    672          
    673            if ( options & AF_SKIP_ROUTING )
   \                     ??AF_DataRequest_15:
   \   0001C8   E5..         MOV     A,?V2
   \   0001CA   A2E7         MOV     C,0xE0 /* A   */.7
   \   0001CC   5009         JNC     ??AF_DataRequest_16
    674            {
    675              req.txOptions |=  APS_TX_OPTIONS_SKIP_ROUTING;
   \   0001CE   7417         MOV     A,#0x17
   \   0001D0   12....       LCALL   ?XSTACK_DISP0_8
   \   0001D3   E0           MOVX    A,@DPTR
   \   0001D4   4410         ORL     A,#0x10
   \   0001D6   F0           MOVX    @DPTR,A
    676            }
    677          
    678            if ( options & AF_EN_SECURITY )
   \                     ??AF_DataRequest_16:
   \   0001D7   E5..         MOV     A,?V2
   \   0001D9   A2E6         MOV     C,0xE0 /* A   */.6
   \   0001DB   5012         JNC     ??AF_DataRequest_17
    679            {
    680              req.txOptions |= APS_TX_OPTIONS_SECURITY_ENABLE;
   \   0001DD   7417         MOV     A,#0x17
   \   0001DF   12....       LCALL   ?XSTACK_DISP0_8
   \   0001E2   E0           MOVX    A,@DPTR
   \   0001E3   4401         ORL     A,#0x1
   \   0001E5   F0           MOVX    @DPTR,A
    681              mtu.aps.secure = TRUE;
   \   0001E6   7401         MOV     A,#0x1
   \   0001E8   12....       LCALL   ?XSTACK_DISP0_8
   \   0001EB   7401         MOV     A,#0x1
   \   0001ED   8006         SJMP    ??AF_DataRequest_18
    682            }
    683            else
    684            {
    685              mtu.aps.secure = FALSE;
   \                     ??AF_DataRequest_17:
   \   0001EF   7401         MOV     A,#0x1
   \   0001F1   12....       LCALL   ?XSTACK_DISP0_8
   \   0001F4   E4           CLR     A
   \                     ??AF_DataRequest_18:
   \   0001F5   F0           MOVX    @DPTR,A
    686            }
    687          
    688            if ( options & AF_PREPROCESS )
   \   0001F6   E5..         MOV     A,?V2
   \   0001F8   A2E2         MOV     C,0xE0 /* A   */.2
   \   0001FA   5009         JNC     ??AF_DataRequest_19
    689            {
    690              req.txOptions |=  APS_TX_OPTIONS_PREPROCESS;
   \   0001FC   7417         MOV     A,#0x17
   \   0001FE   12....       LCALL   ?XSTACK_DISP0_8
   \   000201   E0           MOVX    A,@DPTR
   \   000202   4440         ORL     A,#0x40
   \   000204   F0           MOVX    @DPTR,A
    691            }
    692          
    693            mtu.kvp = FALSE;
   \                     ??AF_DataRequest_19:
   \   000205   85..82       MOV     DPL,?XSP + 0
   \   000208   85..83       MOV     DPH,?XSP + 1
   \   00020B   E4           CLR     A
   \   00020C   F0           MOVX    @DPTR,A
    694          
    695            if ( options & AF_SUPRESS_ROUTE_DISC_NETWORK )
   \   00020D   E5..         MOV     A,?V2
   \   00020F   A2E5         MOV     C,0xE0 /* A   */.5
   \   000211   5009         JNC     ??AF_DataRequest_20
    696            {
    697              req.discoverRoute = DISC_ROUTE_INITIATE;
   \   000213   741A         MOV     A,#0x1a
   \   000215   12....       LCALL   ?XSTACK_DISP0_8
   \   000218   7404         MOV     A,#0x4
   \   00021A   800D         SJMP    ??AF_DataRequest_21
    698            }
    699            else
    700            {
    701              req.discoverRoute = AF_DataRequestDiscoverRoute;
   \                     ??AF_DataRequest_20:
   \   00021C   90....       MOV     DPTR,#AF_DataRequestDiscoverRoute
   \   00021F   E0           MOVX    A,@DPTR
   \   000220   C0E0         PUSH    A
   \   000222   741A         MOV     A,#0x1a
   \   000224   12....       LCALL   ?XSTACK_DISP0_8
   \   000227   D0E0         POP     A
   \                     ??AF_DataRequest_21:
   \   000229   F0           MOVX    @DPTR,A
   \   00022A   7434         MOV     A,#0x34
   \   00022C   12....       LCALL   ?XSTACK_DISP0_8
    702            }
   \   00022F   12....       LCALL   ?Subroutine9 & 0xFFFF
    703          
    704            req.transID       = *transID;
   \                     ??CrossCallReturnLabel_3:
   \   000232   85..82       MOV     DPL,?V6
   \   000235   F583         MOV     DPH,A
   \   000237   E0           MOVX    A,@DPTR
   \   000238   C0E0         PUSH    A
   \   00023A   7419         MOV     A,#0x19
   \   00023C   12....       LCALL   ?XSTACK_DISP0_8
   \   00023F   D0E0         POP     A
   \   000241   12....       LCALL   ?Subroutine30 & 0xFFFF
    705            req.srcEP         = srcEP->endPoint;
   \                     ??CrossCallReturnLabel_43:
   \   000244   C0E0         PUSH    A
   \   000246   740B         MOV     A,#0xb
   \   000248   12....       LCALL   ?XSTACK_DISP0_8
   \   00024B   D0E0         POP     A
   \   00024D   F0           MOVX    @DPTR,A
    706            req.dstEP         = dstAddr->endPoint;
   \   00024E   8E82         MOV     DPL,R6
   \   000250   8F83         MOV     DPH,R7
   \   000252   A3           INC     DPTR
   \   000253   A3           INC     DPTR
   \   000254   A3           INC     DPTR
   \   000255   A3           INC     DPTR
   \   000256   A3           INC     DPTR
   \   000257   A3           INC     DPTR
   \   000258   A3           INC     DPTR
   \   000259   A3           INC     DPTR
   \   00025A   A3           INC     DPTR
   \   00025B   E0           MOVX    A,@DPTR
   \   00025C   C0E0         PUSH    A
   \   00025E   740C         MOV     A,#0xc
   \   000260   12....       LCALL   ?XSTACK_DISP0_8
   \   000263   D0E0         POP     A
   \   000265   F0           MOVX    @DPTR,A
    707            req.clusterID     = cID;
   \   000266   742E         MOV     A,#0x2e
   \   000268   12....       LCALL   ?XSTACK_DISP0_8
   \   00026B   12....       LCALL   ??Subroutine56_0 & 0xFFFF
   \                     ??CrossCallReturnLabel_128:
   \   00026E   740F         MOV     A,#0xf
   \   000270   12....       LCALL   ?XSTACK_DISP0_8
   \   000273   12....       LCALL   ??Subroutine44_0 & 0xFFFF
   \                     ??CrossCallReturnLabel_78:
   \   000276   7430         MOV     A,#0x30
   \   000278   12....       LCALL   ?XSTACK_DISP0_8
   \   00027B   E0           MOVX    A,@DPTR
   \   00027C   FE           MOV     R6,A
   \   00027D   A3           INC     DPTR
   \   00027E   E0           MOVX    A,@DPTR
   \   00027F   FF           MOV     R7,A
    708            req.asduLen       = len;
   \   000280   7413         MOV     A,#0x13
   \   000282   12....       LCALL   ?XSTACK_DISP0_8
   \   000285   EE           MOV     A,R6
   \   000286   F0           MOVX    @DPTR,A
   \   000287   A3           INC     DPTR
   \   000288   EF           MOV     A,R7
   \   000289   F0           MOVX    @DPTR,A
    709            req.asdu          = buf;
   \   00028A   7432         MOV     A,#0x32
   \   00028C   12....       LCALL   ?XSTACK_DISP0_8
   \   00028F   12....       LCALL   ??Subroutine56_0 & 0xFFFF
   \                     ??CrossCallReturnLabel_129:
   \   000292   7415         MOV     A,#0x15
   \   000294   12....       LCALL   ?XSTACK_DISP0_8
   \   000297   12....       LCALL   ??Subroutine44_0 & 0xFFFF
    710            req.radiusCounter = radius;
   \                     ??CrossCallReturnLabel_79:
   \   00029A   7436         MOV     A,#0x36
   \   00029C   12....       LCALL   ?XSTACK_DISP0_8
   \   00029F   E0           MOVX    A,@DPTR
   \   0002A0   C0E0         PUSH    A
   \   0002A2   741B         MOV     A,#0x1b
   \   0002A4   12....       LCALL   ?XSTACK_DISP0_8
   \   0002A7   D0E0         POP     A
   \   0002A9   12....       LCALL   ?Subroutine30 & 0xFFFF
    711          #if defined ( INTER_PAN )
    712            req.dstPanId      = dstAddr->panId;
    713          #endif // INTER_PAN
    714          
    715            // Look if there is a Callback function registered for this endpoint
    716            // The callback is used to control the AF Transaction ID used when sending messages
    717            pList = afFindEndPointDescList( srcEP->endPoint );
   \                     ??CrossCallReturnLabel_44:
   \   0002AC   F9           MOV     R1,A
   \   0002AD   12....       LCALL   `??afFindEndPointDescList::?relay`; Banked call to: afFindEndPointDescList
   \   0002B0   8A..         MOV     ?V4,R2
   \   0002B2   8B..         MOV     ?V5,R3
   \   0002B4   A8..         MOV     R0,?V4
   \   0002B6   A9..         MOV     R1,?V5
    718          
    719            if ( ( pList != NULL ) && ( pList->pfnApplCB != NULL ) )
   \   0002B8   E8           MOV     A,R0
   \   0002B9   49           ORL     A,R1
   \   0002BA   6022         JZ      ??AF_DataRequest_22
   \   0002BC   8882         MOV     DPL,R0
   \   0002BE   8983         MOV     DPH,R1
   \   0002C0   A3           INC     DPTR
   \   0002C1   A3           INC     DPTR
   \   0002C2   A3           INC     DPTR
   \   0002C3   A3           INC     DPTR
   \   0002C4   A3           INC     DPTR
   \   0002C5   12....       LCALL   ?Subroutine7 & 0xFFFF
   \                     ??CrossCallReturnLabel_100:
   \   0002C8   6014         JZ      ??AF_DataRequest_22
    720            {
    721              pList->pfnApplCB( &req );
   \   0002CA                ; Setup parameters for indirect call
   \   0002CA   7402         MOV     A,#0x2
   \   0002CC   12....       LCALL   ?XSTACK_DISP101_8
   \   0002CF   8882         MOV     DPL,R0
   \   0002D1   8983         MOV     DPH,R1
   \   0002D3   A3           INC     DPTR
   \   0002D4   A3           INC     DPTR
   \   0002D5   A3           INC     DPTR
   \   0002D6   A3           INC     DPTR
   \   0002D7   A3           INC     DPTR
   \   0002D8   12....       LCALL   ?Subroutine22 & 0xFFFF
    722            }
   \                     ??CrossCallReturnLabel_117:
   \   0002DB   12....       LCALL   ?CALL_IND
    723          
    724          #if defined ( INTER_PAN )
    725            if ( StubAPS_InterPan( dstAddr->panId, dstAddr->endPoint ) )
    726            {
    727              if ( len > INTERP_DataReqMTU() )
    728              {
    729                stat = afStatus_INVALID_PARAMETER;
    730              }
    731              else
    732              {
    733                stat = INTERP_DataReq( &req );
    734              }
    735            }
    736            else
    737          #endif // INTER_PAN
    738            {
    739              if (len > afDataReqMTU( &mtu ) )
   \                     ??AF_DataRequest_22:
   \   0002DE                ; Setup parameters for call to function afDataReqMTU
   \   0002DE   AA..         MOV     R2,?XSP + 0
   \   0002E0   AB..         MOV     R3,?XSP + 1
   \   0002E2   12....       LCALL   `??afDataReqMTU::?relay`; Banked call to: afDataReqMTU
   \   0002E5   E9           MOV     A,R1
   \   0002E6   C3           CLR     C
   \   0002E7   9E           SUBB    A,R6
   \   0002E8   E4           CLR     A
   \   0002E9   9F           SUBB    A,R7
   \   0002EA   5019         JNC     ??AF_DataRequest_23
    740              {
    741                if (apsfSendFragmented)
   \   0002EC   90....       MOV     DPTR,#apsfSendFragmented
   \   0002EF   12....       LCALL   ??Subroutine45_0 & 0xFFFF
   \                     ??CrossCallReturnLabel_89:
   \   0002F2   600D         JZ      ??AF_DataRequest_24
    742                {
    743                  stat = (*apsfSendFragmented)( &req );
   \   0002F4                ; Setup parameters for indirect call
   \   0002F4   7402         MOV     A,#0x2
   \   0002F6   12....       LCALL   ?XSTACK_DISP101_8
   \   0002F9   12....       LCALL   ??Subroutine55_0 & 0xFFFF
    744                }
   \                     ??CrossCallReturnLabel_119:
   \   0002FC   12....       LCALL   ?CALL_IND
   \   0002FF   800C         SJMP    ??AF_DataRequest_25
    745                else
    746                {
    747                  stat = afStatus_INVALID_PARAMETER;
   \                     ??AF_DataRequest_24:
   \   000301   7E02         MOV     R6,#0x2
   \   000303   800A         SJMP    ??AF_DataRequest_26
    748                }
    749              }
    750              else
    751              {
    752                stat = APSDE_DataReq( &req );
   \                     ??AF_DataRequest_23:
   \   000305                ; Setup parameters for call to function APSDE_DataReq
   \   000305   7402         MOV     A,#0x2
   \   000307   12....       LCALL   ?XSTACK_DISP101_8
   \   00030A   12....       LCALL   `??APSDE_DataReq::?relay`; Banked call to: APSDE_DataReq
   \                     ??AF_DataRequest_25:
   \   00030D   E9           MOV     A,R1
   \   00030E   FE           MOV     R6,A
    753              }
    754            }
    755          
    756            /*
    757             * If this is an EndPoint-to-EndPoint message on the same device, it will not
    758             * get added to the NWK databufs. So it will not go OTA and it will not get
    759             * a MACCB_DATA_CONFIRM_CMD callback. Thus it is necessary to generate the
    760             * AF_DATA_CONFIRM_CMD here. Note that APSDE_DataConfirm() only generates one
    761             * message with the first in line TransSeqNumber, even on a multi message.
    762             * Also note that a reflected msg will not have its confirmation generated
    763             * here.
    764             */
    765            if ( (req.dstAddr.addrMode == Addr16Bit) &&
    766                 (req.dstAddr.addr.shortAddr == NLME_GetShortAddr()) )
   \                     ??AF_DataRequest_26:
   \   00030F   740A         MOV     A,#0xa
   \   000311   12....       LCALL   ?XSTACK_DISP0_8
   \   000314   E0           MOVX    A,@DPTR
   \   000315   6402         XRL     A,#0x2
   \   000317   702E         JNZ     ??AF_DataRequest_27
   \   000319                ; Setup parameters for call to function NLME_GetShortAddr
   \   000319   12....       LCALL   `??NLME_GetShortAddr::?relay`; Banked call to: NLME_GetShortAddr
   \   00031C   8A..         MOV     ?V4,R2
   \   00031E   8B..         MOV     ?V5,R3
   \   000320   A8..         MOV     R0,?V4
   \   000322   A9..         MOV     R1,?V5
   \   000324   7402         MOV     A,#0x2
   \   000326   12....       LCALL   ?XSTACK_DISP0_8
   \   000329   E0           MOVX    A,@DPTR
   \   00032A   68           XRL     A,R0
   \   00032B   7003         JNZ     ??AF_DataRequest_28
   \   00032D   A3           INC     DPTR
   \   00032E   E0           MOVX    A,@DPTR
   \   00032F   69           XRL     A,R1
   \                     ??AF_DataRequest_28:
   \   000330   7015         JNZ     ??AF_DataRequest_27
    767            {
    768              afDataConfirm( srcEP->endPoint, *transID, stat );
   \   000332                ; Setup parameters for call to function afDataConfirm
   \   000332   EE           MOV     A,R6
   \   000333   FB           MOV     R3,A
   \   000334   85..82       MOV     DPL,?V6
   \   000337   85..83       MOV     DPH,?V7
   \   00033A   E0           MOVX    A,@DPTR
   \   00033B   FA           MOV     R2,A
   \   00033C   85..82       MOV     DPL,?V0
   \   00033F   85..83       MOV     DPH,?V1
   \   000342   E0           MOVX    A,@DPTR
   \   000343   F9           MOV     R1,A
   \   000344   12....       LCALL   `??afDataConfirm::?relay`; Banked call to: afDataConfirm
    769            }
    770          
    771            if ( stat == afStatus_SUCCESS )
   \                     ??AF_DataRequest_27:
   \   000347   EE           MOV     A,R6
   \   000348   7009         JNZ     ??AF_DataRequest_29
    772            {
    773              (*transID)++;
   \   00034A   85..82       MOV     DPL,?V6
   \   00034D   85..83       MOV     DPH,?V7
   \   000350   E0           MOVX    A,@DPTR
   \   000351   04           INC     A
   \   000352   F0           MOVX    @DPTR,A
    774            }
    775          
    776            return (afStatus_t)stat;
   \                     ??AF_DataRequest_29:
   \   000353   EE           MOV     A,R6
   \   000354   F9           MOV     R1,A
   \                     ??AF_DataRequest_3:
   \   000355   741E         MOV     A,#0x1e
   \   000357                REQUIRE ?Subroutine3
   \   000357                ; // Fall through to label ?Subroutine3
    777          }

   \                                 In  segment BANKED_CODE, align 1, keep-with-next
   \                     ?Subroutine30:
   \   000000   12....       LCALL   ?Subroutine34 & 0xFFFF
   \                     ??CrossCallReturnLabel_53:
   \   000003   E0           MOVX    A,@DPTR
   \   000004   22           RET

   \                                 In  segment BANKED_CODE, align 1, keep-with-next
   \                     ?Subroutine7:
   \   000000   A3           INC     DPTR
   \   000001   A3           INC     DPTR
   \   000002   A3           INC     DPTR
   \   000003   A3           INC     DPTR
   \   000004                REQUIRE ??Subroutine48_0
   \   000004                ; // Fall through to label ??Subroutine48_0

   \                                 In  segment BANKED_CODE, align 1, keep-with-next
   \                     ?Subroutine22:
   \   000000   A3           INC     DPTR
   \   000001                REQUIRE ??Subroutine52_0
   \   000001                ; // Fall through to label ??Subroutine52_0

   \                                 In  segment BANKED_CODE, align 1, keep-with-next
   \                     ?Subroutine31:
   \   000000   12....       LCALL   ?Subroutine36 & 0xFFFF
   \                     ??CrossCallReturnLabel_59:
   \   000003   E0           MOVX    A,@DPTR
   \   000004   6403         XRL     A,#0x3
   \   000006   22           RET
    778          
    779          #if defined ( ZIGBEE_SOURCE_ROUTING )
    780          /*********************************************************************
    781           * @fn      AF_DataRequestSrcRtg
    782           *
    783           * @brief   Common functionality for invoking APSDE_DataReq() for both
    784           *          SendMulti and MSG-Send.
    785           *
    786           * input parameters
    787           *
    788           * @param  *dstAddr - Full ZB destination address: Nwk Addr + End Point.
    789           * @param  *srcEP - Origination (i.e. respond to or ack to) End Point Descr.
    790           * @param   cID - A valid cluster ID as specified by the Profile.
    791           * @param   len - Number of bytes of data pointed to by next param.
    792           * @param  *buf - A pointer to the data bytes to send.
    793           * @param  *transID - A pointer to a byte which can be modified and which will
    794           *                    be used as the transaction sequence number of the msg.
    795           * @param   options - Valid bit mask of Tx options.
    796           * @param   radius - Normally set to AF_DEFAULT_RADIUS.
    797           * @param   relayCnt - Number of devices in the relay list
    798           * @param   pRelayList - Pointer to the relay list
    799           *
    800           * output parameters
    801           *
    802           * @param  *transID - Incremented by one if the return value is success.
    803           *
    804           * @return  afStatus_t - See previous definition of afStatus_... types.
    805           */
    806          

   \                                 In  segment BANKED_CODE, align 1, keep-with-next
    807          afStatus_t AF_DataRequestSrcRtg( afAddrType_t *dstAddr, endPointDesc_t *srcEP,
   \                     AF_DataRequestSrcRtg:
    808                                     uint16 cID, uint16 len, uint8 *buf, uint8 *transID,
    809                                     uint8 options, uint8 radius, uint8 relayCnt, uint16* pRelayList )
    810          {
   \   000000                REQUIRE ?V0
   \   000000                REQUIRE ?V1
   \   000000                REQUIRE ?V2
   \   000000                REQUIRE ?V3
   \   000000   74F4         MOV     A,#-0xc
   \   000002   12....       LCALL   ?BANKED_ENTER_XDATA
   \   000005                ; Saved register size: 12
   \   000005                ; Auto size: 0
   \   000005   EA           MOV     A,R2
   \   000006   FE           MOV     R6,A
   \   000007   EB           MOV     A,R3
   \   000008   FF           MOV     R7,A
   \   000009   8C..         MOV     ?V2,R4
   \   00000B   8D..         MOV     ?V3,R5
   \   00000D   89..         MOV     ?V0,R1
    811            uint8 status;
    812          
    813            /* Add the source route to the source routing table */
    814            status = RTG_AddSrcRtgEntry_Guaranteed( dstAddr->addr.shortAddr, relayCnt,
    815                                                   pRelayList );
   \   00000F                ; Setup parameters for call to function RTG_AddSrcRtgEntry_Guaranteed
   \   00000F   7416         MOV     A,#0x16
   \   000011   12....       LCALL   ?XSTACK_DISP0_8
   \   000014   12....       LCALL   ?Subroutine19 & 0xFFFF
   \                     ??CrossCallReturnLabel_24:
   \   000017   7415         MOV     A,#0x15
   \   000019   12....       LCALL   ?XSTACK_DISP0_8
   \   00001C   E0           MOVX    A,@DPTR
   \   00001D   F9           MOV     R1,A
   \   00001E   8E82         MOV     DPL,R6
   \   000020   8F83         MOV     DPH,R7
   \   000022   12....       LCALL   ??Subroutine51_0 & 0xFFFF
   \                     ??CrossCallReturnLabel_106:
   \   000025   12....       LCALL   `??RTG_AddSrcRtgEntry_Guaranteed::?relay`; Banked call to: RTG_AddSrcRtgEntry_Guaranteed
   \   000028   E9           MOV     A,R1
   \   000029   F9           MOV     R1,A
    816          
    817            if( status == RTG_SUCCESS)
   \   00002A   7043         JNZ     ??AF_DataRequestSrcRtg_0
    818            {
    819              /* Call AF_DataRequest to send the data */
    820              status = AF_DataRequest( dstAddr, srcEP, cID, len, buf, transID, options, radius );
   \   00002C                ; Setup parameters for call to function AF_DataRequest
   \   00002C   7414         MOV     A,#0x14
   \   00002E   12....       LCALL   ?XSTACK_DISP0_8
   \   000031   E0           MOVX    A,@DPTR
   \   000032   F5..         MOV     ?V1,A
   \   000034   78..         MOV     R0,#?V1
   \   000036   12....       LCALL   ?PUSH_XSTACK_I_ONE
   \   000039   7413         MOV     A,#0x13
   \   00003B   12....       LCALL   ?XSTACK_DISP0_8
   \   00003E   12....       LCALL   ?PUSH_XSTACK8_X_TWO
   \   000041   7413         MOV     A,#0x13
   \   000043   12....       LCALL   ?XSTACK_DISP0_8
   \   000046   12....       LCALL   ?PUSH_XSTACK8_X_TWO
   \   000049   7413         MOV     A,#0x13
   \   00004B   12....       LCALL   ?XSTACK_DISP0_8
   \   00004E   12....       LCALL   ?PUSH_XSTACK8_X_TWO
   \   000051   7413         MOV     A,#0x13
   \   000053   12....       LCALL   ?XSTACK_DISP0_8
   \   000056   12....       LCALL   ?PUSH_XSTACK8_X_TWO
   \   000059   A9..         MOV     R1,?V0
   \   00005B   AC..         MOV     R4,?V2
   \   00005D   AD..         MOV     R5,?V3
   \   00005F   EE           MOV     A,R6
   \   000060   FA           MOV     R2,A
   \   000061   EF           MOV     A,R7
   \   000062   FB           MOV     R3,A
   \   000063   12....       LCALL   `??AF_DataRequest::?relay`; Banked call to: AF_DataRequest
   \   000066   7409         MOV     A,#0x9
   \   000068   12....       LCALL   ?DEALLOC_XSTACK8
   \   00006B   E9           MOV     A,R1
   \   00006C   F9           MOV     R1,A
   \   00006D   800B         SJMP    ??AF_DataRequestSrcRtg_1
    821            }
    822            else if( status == RTG_INVALID_PATH )
   \                     ??AF_DataRequestSrcRtg_0:
   \   00006F   7405         MOV     A,#0x5
   \   000071   69           XRL     A,R1
   \   000072   7004         JNZ     ??AF_DataRequestSrcRtg_2
    823            {
    824              /* The source route relay count is exceeding the network limit */
    825              status = afStatus_INVALID_PARAMETER;
   \   000074   7902         MOV     R1,#0x2
   \   000076   8002         SJMP    ??AF_DataRequestSrcRtg_1
    826            }
    827            else
    828            {
    829              /* The guaranteed adding entry fails due to memory failure */
    830              status = afStatus_MEM_FAIL;
   \                     ??AF_DataRequestSrcRtg_2:
   \   000078   7910         MOV     R1,#0x10
    831            }
    832            return status;
   \                     ??AF_DataRequestSrcRtg_1:
   \   00007A   02....       LJMP    ?Subroutine0 & 0xFFFF
    833          }
    834          
    835          #endif
    836          
    837          /*********************************************************************
    838           * @fn      afFindEndPointDescList
    839           *
    840           * @brief   Find the endpoint description entry from the endpoint
    841           *          number.
    842           *
    843           * @param   EndPoint - Application Endpoint to look for
    844           *
    845           * @return  the address to the endpoint/interface description entry
    846           */

   \                                 In  segment BANKED_CODE, align 1, keep-with-next
    847          static epList_t *afFindEndPointDescList( uint8 EndPoint )
   \                     afFindEndPointDescList:
    848          {
   \   000000   C082         PUSH    DPL
   \   000002   C083         PUSH    DPH
   \   000004                ; Saved register size: 2
   \   000004                ; Auto size: 0
    849            epList_t *epSearch;
    850          
    851            for (epSearch = epList; epSearch != NULL; epSearch = epSearch->nextDesc)
   \   000004   90....       MOV     DPTR,#epList
   \   000007   8004         SJMP    ??afFindEndPointDescList_0
   \                     ??afFindEndPointDescList_1:
   \   000009   8A82         MOV     DPL,R2
   \   00000B   8B83         MOV     DPH,R3
   \                     ??afFindEndPointDescList_0:
   \   00000D   12....       LCALL   ??Subroutine48_0 & 0xFFFF
   \                     ??CrossCallReturnLabel_99:
   \   000010   600B         JZ      ??afFindEndPointDescList_2
    852            {
    853              if (epSearch->epDesc->endPoint == EndPoint)
   \   000012   8A82         MOV     DPL,R2
   \   000014   8B83         MOV     DPH,R3
   \   000016   12....       LCALL   ??Subroutine53_0 & 0xFFFF
    854              {
    855                break;
    856              }
    857            }
   \                     ??CrossCallReturnLabel_114:
   \   000019   E0           MOVX    A,@DPTR
   \   00001A   69           XRL     A,R1
   \   00001B   70EC         JNZ     ??afFindEndPointDescList_1
    858          
    859            return epSearch;
   \                     ??afFindEndPointDescList_2:
   \   00001D                REQUIRE ?Subroutine4
   \   00001D                ; // Fall through to label ?Subroutine4
    860          }

   \                                 In  segment BANKED_CODE, align 1, keep-with-next
   \                     ?Subroutine4:
   \   000000   D083         POP     DPH
   \   000002   D082         POP     DPL
   \   000004   02....       LJMP    ?BRET
    861          
    862          /*********************************************************************
    863           * @fn      afFindEndPointDesc
    864           *
    865           * @brief   Find the endpoint description entry from the endpoint
    866           *          number.
    867           *
    868           * @param   EndPoint - Application Endpoint to look for
    869           *
    870           * @return  the address to the endpoint/interface description entry
    871           */

   \                                 In  segment BANKED_CODE, align 1, keep-with-next
    872          endPointDesc_t *afFindEndPointDesc( uint8 EndPoint )
   \                     afFindEndPointDesc:
    873          {
   \   000000                REQUIRE ?V0
   \   000000                REQUIRE ?V1
   \   000000   74F6         MOV     A,#-0xa
   \   000002   12....       LCALL   ?BANKED_ENTER_XDATA
   \   000005                ; Saved register size: 10
   \   000005                ; Auto size: 0
    874            epList_t *epSearch;
    875          
    876            // Look for the endpoint
    877            epSearch = afFindEndPointDescList( EndPoint );
   \   000005                ; Setup parameters for call to function afFindEndPointDescList
   \   000005   12....       LCALL   `??afFindEndPointDescList::?relay`; Banked call to: afFindEndPointDescList
   \   000008   8A82         MOV     DPL,R2
   \   00000A   8B83         MOV     DPH,R3
    878          
    879            if ( epSearch )
   \   00000C   E582         MOV     A,DPL
   \   00000E   4583         ORL     A,DPH
   \   000010   6005         JZ      ??afFindEndPointDesc_0
    880              return ( epSearch->epDesc );
   \   000012   12....       LCALL   ??Subroutine50_0 & 0xFFFF
   \                     ??CrossCallReturnLabel_109:
   \   000015   8004         SJMP    ??afFindEndPointDesc_1
    881            else
    882              return ( (endPointDesc_t *)NULL );
   \                     ??afFindEndPointDesc_0:
   \   000017   7A00         MOV     R2,#0x0
   \   000019   7B00         MOV     R3,#0x0
   \                     ??afFindEndPointDesc_1:
   \   00001B   02....       LJMP    ?Subroutine1 & 0xFFFF
    883          }
    884          
    885          /*********************************************************************
    886           * @fn      afFindSimpleDesc
    887           *
    888           * @brief   Find the Simple Descriptor from the endpoint number.
    889           *
    890           * @param   EP - Application Endpoint to look for.
    891           *
    892           * @return  Non-zero to indicate that the descriptor memory must be freed.
    893           */

   \                                 In  segment BANKED_CODE, align 1, keep-with-next
    894          uint8 afFindSimpleDesc( SimpleDescriptionFormat_t **ppDesc, uint8 EP )
   \                     afFindSimpleDesc:
    895          {
   \   000000                REQUIRE ?V0
   \   000000                REQUIRE ?V2
   \   000000                REQUIRE ?V3
   \   000000   74F4         MOV     A,#-0xc
   \   000002   12....       LCALL   ?BANKED_ENTER_XDATA
   \   000005                ; Saved register size: 12
   \   000005                ; Auto size: 0
   \   000005   EA           MOV     A,R2
   \   000006   FE           MOV     R6,A
   \   000007   EB           MOV     A,R3
   \   000008   FF           MOV     R7,A
   \   000009   89..         MOV     ?V0,R1
    896            epList_t *epItem = afFindEndPointDescList( EP );
   \   00000B                ; Setup parameters for call to function afFindEndPointDescList
   \   00000B   12....       LCALL   `??afFindEndPointDescList::?relay`; Banked call to: afFindEndPointDescList
   \   00000E   8A..         MOV     ?V2,R2
   \   000010   8B..         MOV     ?V3,R3
   \   000012   AC..         MOV     R4,?V2
   \   000014   AD..         MOV     R5,?V3
    897            uint8 rtrn = FALSE;
   \   000016   7900         MOV     R1,#0x0
    898          
    899            if ( epItem )
   \   000018   EC           MOV     A,R4
   \   000019   4D           ORL     A,R5
   \   00001A   6035         JZ      ??afFindSimpleDesc_0
    900            {
    901              if ( epItem->pfnDescCB )
   \   00001C   8C82         MOV     DPL,R4
   \   00001E   8D83         MOV     DPH,R5
   \   000020   12....       LCALL   ?Subroutine7 & 0xFFFF
   \                     ??CrossCallReturnLabel_101:
   \   000023   6018         JZ      ??afFindSimpleDesc_1
    902              {
    903                *ppDesc = epItem->pfnDescCB( AF_DESCRIPTOR_SIMPLE, EP );
   \   000025                ; Setup parameters for indirect call
   \   000025   AA..         MOV     R2,?V0
   \   000027   09           INC     R1
   \   000028   8C82         MOV     DPL,R4
   \   00002A   8D83         MOV     DPH,R5
   \   00002C   12....       LCALL   ?Subroutine22 & 0xFFFF
   \                     ??CrossCallReturnLabel_118:
   \   00002F   12....       LCALL   ?CALL_IND
   \   000032   8E82         MOV     DPL,R6
   \   000034   8F83         MOV     DPH,R7
   \   000036   12....       LCALL   ?Subroutine29 & 0xFFFF
    904                rtrn = TRUE;
   \                     ??CrossCallReturnLabel_42:
   \   000039   7901         MOV     R1,#0x1
   \   00003B   801C         SJMP    ??afFindSimpleDesc_2
    905              }
    906              else
    907              {
    908                *ppDesc = epItem->epDesc->simpleDesc;
   \                     ??afFindSimpleDesc_1:
   \   00003D   8C82         MOV     DPL,R4
   \   00003F   8D83         MOV     DPH,R5
   \   000041   12....       LCALL   ??Subroutine53_0 & 0xFFFF
    909              }
    910            }
   \                     ??CrossCallReturnLabel_115:
   \   000044   12....       LCALL   ??Subroutine49_0 & 0xFFFF
   \                     ??CrossCallReturnLabel_110:
   \   000047   8E82         MOV     DPL,R6
   \   000049   8F83         MOV     DPH,R7
   \   00004B   EA           MOV     A,R2
   \   00004C   F0           MOVX    @DPTR,A
   \   00004D   A3           INC     DPTR
   \   00004E   EB           MOV     A,R3
   \   00004F   8007         SJMP    ??afFindSimpleDesc_3
    911            else
    912            {
    913              *ppDesc = NULL;
   \                     ??afFindSimpleDesc_0:
   \   000051   8E82         MOV     DPL,R6
   \   000053   8F83         MOV     DPH,R7
   \   000055   E4           CLR     A
   \   000056   F0           MOVX    @DPTR,A
   \   000057   A3           INC     DPTR
   \                     ??afFindSimpleDesc_3:
   \   000058   F0           MOVX    @DPTR,A
    914            }
    915          
    916            return rtrn;
   \                     ??afFindSimpleDesc_2:
   \   000059                REQUIRE ?Subroutine0
   \   000059                ; // Fall through to label ?Subroutine0
    917          }
    918          
    919          /*********************************************************************
    920           * @fn      afGetDescCB
    921           *
    922           * @brief   Get the Descriptor callback function.
    923           *
    924           * @param   epDesc - pointer to the endpoint descriptor
    925           *
    926           * @return  function pointer or NULL
    927           */
    928          static pDescCB afGetDescCB( endPointDesc_t *epDesc )
    929          {
    930            epList_t *epSearch;
    931          
    932            // Start at the beginning
    933            epSearch = epList;
    934          
    935            // Look through the list until the end
    936            while ( epSearch )
    937            {
    938              // Is there a match?
    939              if ( epSearch->epDesc == epDesc )
    940              {
    941                return ( epSearch->pfnDescCB );
    942              }
    943              else
    944                epSearch = epSearch->nextDesc;  // Next entry
    945            }
    946          
    947            return ( (pDescCB)NULL );
    948          }
    949          
    950          /*********************************************************************
    951           * @fn      afDataReqMTU
    952           *
    953           * @brief   Get the Data Request MTU(Max Transport Unit).
    954           *
    955           * @param   fields - afDataReqMTU_t
    956           *
    957           * @return  uint8(MTU)
    958           */

   \                                 In  segment BANKED_CODE, align 1, keep-with-next
    959          uint8 afDataReqMTU( afDataReqMTU_t* fields )
   \                     afDataReqMTU:
    960          {
   \   000000   74F7         MOV     A,#-0x9
   \   000002   12....       LCALL   ?BANKED_ENTER_XDATA
   \   000005                ; Saved register size: 9
   \   000005                ; Auto size: 0
    961            uint8 len;
    962            uint8 hdr;
    963          
    964            if ( fields->kvp == TRUE )
   \   000005   8A82         MOV     DPL,R2
   \   000007   8B83         MOV     DPH,R3
   \   000009   E0           MOVX    A,@DPTR
   \   00000A   6401         XRL     A,#0x1
   \   00000C   7004         JNZ     ??afDataReqMTU_0
    965            {
    966              hdr = AF_HDR_KVP_MAX_LEN;
   \   00000E   7E08         MOV     R6,#0x8
   \   000010   8002         SJMP    ??afDataReqMTU_1
    967            }
    968            else
    969            {
    970              hdr = AF_HDR_V1_1_MAX_LEN;
   \                     ??afDataReqMTU_0:
   \   000012   7E00         MOV     R6,#0x0
    971            }
    972          
    973            len = (uint8)(APSDE_DataReqMTU(&fields->aps) - hdr);
    974          
    975            return len;
   \                     ??afDataReqMTU_1:
   \   000014                ; Setup parameters for call to function APSDE_DataReqMTU
   \   000014   A3           INC     DPTR
   \   000015   AA82         MOV     R2,DPL
   \   000017   AB83         MOV     R3,DPH
   \   000019   12....       LCALL   `??APSDE_DataReqMTU::?relay`; Banked call to: APSDE_DataReqMTU
   \   00001C   E9           MOV     A,R1
   \   00001D   C3           CLR     C
   \   00001E   9E           SUBB    A,R6
   \   00001F   F9           MOV     R1,A
   \   000020   02....       LJMP    ?Subroutine2 & 0xFFFF
    976          }
    977          
    978          /*********************************************************************
    979           * @fn      afGetMatch
    980           *
    981           * @brief   Set the allow response flag.
    982           *
    983           * @param   ep - Application Endpoint to look for
    984           * @param   action - true - allow response, false - no response
    985           *
    986           * @return  TRUE allow responses, FALSE no response
    987           */

   \                                 In  segment BANKED_CODE, align 1, keep-with-next
    988          uint8 afGetMatch( uint8 ep )
   \                     afGetMatch:
    989          {
   \   000000                REQUIRE ?V0
   \   000000                REQUIRE ?V1
   \   000000   74F6         MOV     A,#-0xa
   \   000002   12....       LCALL   ?BANKED_ENTER_XDATA
   \   000005                ; Saved register size: 10
   \   000005                ; Auto size: 0
    990            epList_t *epSearch;
    991          
    992            // Look for the endpoint
    993            epSearch = afFindEndPointDescList( ep );
   \   000005                ; Setup parameters for call to function afFindEndPointDescList
   \   000005   12....       LCALL   `??afFindEndPointDescList::?relay`; Banked call to: afFindEndPointDescList
   \   000008   8A82         MOV     DPL,R2
   \   00000A   8B83         MOV     DPH,R3
    994          
    995            if ( epSearch )
   \   00000C   E582         MOV     A,DPL
   \   00000E   4583         ORL     A,DPH
   \   000010   6011         JZ      ??afGetMatch_0
    996            {
    997              if ( epSearch->flags & eEP_AllowMatch )
   \   000012   A3           INC     DPTR
   \   000013   A3           INC     DPTR
   \   000014   A3           INC     DPTR
   \   000015   A3           INC     DPTR
   \   000016   A3           INC     DPTR
   \   000017   A3           INC     DPTR
   \   000018   A3           INC     DPTR
   \   000019   A3           INC     DPTR
   \   00001A   E0           MOVX    A,@DPTR
   \   00001B   A2E0         MOV     C,0xE0 /* A   */.0
   \   00001D   5004         JNC     ??afGetMatch_0
    998                return ( TRUE );
   \   00001F   7901         MOV     R1,#0x1
   \   000021   8002         SJMP    ??afGetMatch_1
    999              else
   1000                return ( FALSE );
   1001            }
   1002            else
   1003              return ( FALSE );
   \                     ??afGetMatch_0:
   \   000023   7900         MOV     R1,#0x0
   \                     ??afGetMatch_1:
   \   000025                REQUIRE ?Subroutine1
   \   000025                ; // Fall through to label ?Subroutine1
   1004          }
   1005          
   1006          /*********************************************************************
   1007           * @fn      afSetMatch
   1008           *
   1009           * @brief   Set the allow response flag.
   1010           *
   1011           * @param   ep - Application Endpoint to look for
   1012           * @param   action - true - allow response, false - no response
   1013           *
   1014           * @return  TRUE if success, FALSE if endpoint not found
   1015           */

   \                                 In  segment BANKED_CODE, align 1, keep-with-next
   1016          uint8 afSetMatch( uint8 ep, uint8 action )
   \                     afSetMatch:
   1017          {
   \   000000                REQUIRE ?V0
   \   000000                REQUIRE ?V1
   \   000000   74F6         MOV     A,#-0xa
   \   000002   12....       LCALL   ?BANKED_ENTER_XDATA
   \   000005                ; Saved register size: 10
   \   000005                ; Auto size: 0
   \   000005   EA           MOV     A,R2
   \   000006   FF           MOV     R7,A
   1018            epList_t *epSearch;
   1019          
   1020            // Look for the endpoint
   1021            epSearch = afFindEndPointDescList( ep );
   \   000007                ; Setup parameters for call to function afFindEndPointDescList
   \   000007   12....       LCALL   `??afFindEndPointDescList::?relay`; Banked call to: afFindEndPointDescList
   \   00000A   8A82         MOV     DPL,R2
   \   00000C   8B83         MOV     DPH,R3
   1022          
   1023            if ( epSearch )
   \   00000E   E582         MOV     A,DPL
   \   000010   4583         ORL     A,DPH
   \   000012   6018         JZ      ??afSetMatch_0
   1024            {
   1025              if ( action )
   \   000014   EF           MOV     A,R7
   \   000015   A3           INC     DPTR
   \   000016   A3           INC     DPTR
   \   000017   A3           INC     DPTR
   \   000018   A3           INC     DPTR
   \   000019   A3           INC     DPTR
   \   00001A   A3           INC     DPTR
   \   00001B   A3           INC     DPTR
   \   00001C   A3           INC     DPTR
   \   00001D   6005         JZ      ??afSetMatch_1
   1026              {
   1027                epSearch->flags |= eEP_AllowMatch;
   \   00001F   E0           MOVX    A,@DPTR
   \   000020   D2E0         SETB    0xE0 /* A   */.0
   \   000022   8003         SJMP    ??afSetMatch_2
   1028              }
   1029              else
   1030              {
   1031                epSearch->flags &= (eEP_AllowMatch ^ 0xFFFF);
   \                     ??afSetMatch_1:
   \   000024   E0           MOVX    A,@DPTR
   \   000025   C2E0         CLR     0xE0 /* A   */.0
   \                     ??afSetMatch_2:
   \   000027   F0           MOVX    @DPTR,A
   1032              }
   1033              return ( TRUE );
   \   000028   7901         MOV     R1,#0x1
   \   00002A   8002         SJMP    ??afSetMatch_3
   1034            }
   1035            else
   1036              return ( FALSE );
   \                     ??afSetMatch_0:
   \   00002C   7900         MOV     R1,#0x0
   \                     ??afSetMatch_3:
   \   00002E   80..         SJMP    ?Subroutine1
   1037          }
   1038          
   1039          /*********************************************************************
   1040           * @fn      afNumEndPoints
   1041           *
   1042           * @brief   Returns the number of endpoints defined (including 0)
   1043           *
   1044           * @param   none
   1045           *
   1046           * @return  number of endpoints
   1047           */

   \                                 In  segment BANKED_CODE, align 1, keep-with-next
   1048          uint8 afNumEndPoints( void )
   \                     afNumEndPoints:
   1049          {
   \   000000   C082         PUSH    DPL
   \   000002   C083         PUSH    DPH
   \   000004                ; Saved register size: 2
   \   000004                ; Auto size: 0
   1050            epList_t *epSearch;
   1051            uint8 endpoints;
   1052          
   1053            // Start at the beginning
   1054            epSearch = epList;
   \   000004   90....       MOV     DPTR,#epList
   \   000007   12....       LCALL   ?Subroutine16 & 0xFFFF
   1055            endpoints = 0;
   \                     ??CrossCallReturnLabel_17:
   \   00000A   7900         MOV     R1,#0x0
   \   00000C   8008         SJMP    ??afNumEndPoints_0
   1056          
   1057            while ( epSearch )
   1058            {
   1059              endpoints++;
   \                     ??afNumEndPoints_1:
   \   00000E   09           INC     R1
   1060              epSearch = epSearch->nextDesc;
   \   00000F   12....       LCALL   ??Subroutine51_0 & 0xFFFF
   1061            }
   \                     ??CrossCallReturnLabel_107:
   \   000012   8A82         MOV     DPL,R2
   \   000014   8B83         MOV     DPH,R3
   \                     ??afNumEndPoints_0:
   \   000016   E582         MOV     A,DPL
   \   000018   4583         ORL     A,DPH
   \   00001A   70F2         JNZ     ??afNumEndPoints_1
   1062          
   1063            return ( endpoints );
   \   00001C   02....       LJMP    ?Subroutine4 & 0xFFFF
   1064          }
   1065          
   1066          /*********************************************************************
   1067           * @fn      afEndPoints
   1068           *
   1069           * @brief   Fills in the passed in buffer with the endpoint (numbers).
   1070           *          Use afNumEndPoints to find out how big a buffer to supply.
   1071           *
   1072           * @param   epBuf - pointer to mem used
   1073           *
   1074           * @return  void
   1075           */

   \                                 In  segment BANKED_CODE, align 1, keep-with-next
   1076          void afEndPoints( uint8 *epBuf, uint8 skipZDO )
   \                     afEndPoints:
   1077          {
   \   000000   C082         PUSH    DPL
   \   000002   C083         PUSH    DPH
   \   000004                ; Saved register size: 2
   \   000004                ; Auto size: 0
   \   000004   E9           MOV     A,R1
   \   000005   FC           MOV     R4,A
   1078            epList_t *epSearch;
   1079            uint8 endPoint;
   1080          
   1081            // Start at the beginning
   1082            epSearch = epList;
   \   000006   90....       MOV     DPTR,#epList
   \   000009   8025         SJMP    ??afEndPoints_0
   1083          
   1084            while ( epSearch )
   1085            {
   1086              endPoint = epSearch->epDesc->endPoint;
   \                     ??afEndPoints_1:
   \   00000B   8882         MOV     DPL,R0
   \   00000D   8983         MOV     DPH,R1
   \   00000F   A3           INC     DPTR
   \   000010   A3           INC     DPTR
   \   000011   E0           MOVX    A,@DPTR
   \   000012   FD           MOV     R5,A
   \   000013   A3           INC     DPTR
   \   000014   E0           MOVX    A,@DPTR
   \   000015   F583         MOV     DPH,A
   \   000017   8D82         MOV     DPL,R5
   \   000019   E0           MOVX    A,@DPTR
   \   00001A   FD           MOV     R5,A
   1087          
   1088              if ( !skipZDO || endPoint != 0 )
   \   00001B   EC           MOV     A,R4
   \   00001C   6003         JZ      ??afEndPoints_2
   \   00001E   ED           MOV     A,R5
   \   00001F   600B         JZ      ??afEndPoints_3
   1089                *epBuf++ = endPoint;
   \                     ??afEndPoints_2:
   \   000021   ED           MOV     A,R5
   \   000022   8A82         MOV     DPL,R2
   \   000024   8B83         MOV     DPH,R3
   \   000026   F0           MOVX    @DPTR,A
   \   000027   A3           INC     DPTR
   \   000028   AA82         MOV     R2,DPL
   \   00002A   AB83         MOV     R3,DPH
   1090          
   1091              epSearch = epSearch->nextDesc;
   \                     ??afEndPoints_3:
   \   00002C   8882         MOV     DPL,R0
   \   00002E   8983         MOV     DPH,R1
   1092            }
   \                     ??afEndPoints_0:
   \   000030   12....       LCALL   ??Subroutine45_0 & 0xFFFF
   \                     ??CrossCallReturnLabel_84:
   \   000033   70D6         JNZ     ??afEndPoints_1
   1093          }
   \   000035   02....       LJMP    ?Subroutine4 & 0xFFFF
   1094          
   1095          /*********************************************************************
   1096           * @fn      afCopyAddress
   1097           *
   1098           * @brief   Fills in the passed in afAddrType_t parameter with the corresponding information
   1099           *          from the zAddrType_t parameter.
   1100           *
   1101           * @param   epBuf - pointer to mem used
   1102           *
   1103           * @return  void
   1104           */

   \                                 In  segment BANKED_CODE, align 1, keep-with-next
   1105          void afCopyAddress( afAddrType_t *afAddr, zAddrType_t *zAddr )
   \                     afCopyAddress:
   1106          {
   \   000000   74F7         MOV     A,#-0x9
   \   000002   12....       LCALL   ?BANKED_ENTER_XDATA
   \   000005                ; Saved register size: 9
   \   000005                ; Auto size: 0
   \   000005   EA           MOV     A,R2
   \   000006   FE           MOV     R6,A
   \   000007   EB           MOV     A,R3
   \   000008   FF           MOV     R7,A
   1107            afAddr->addrMode = (afAddrMode_t)zAddr->addrMode;
   \   000009   EC           MOV     A,R4
   \   00000A   2408         ADD     A,#0x8
   \   00000C   F8           MOV     R0,A
   \   00000D   E4           CLR     A
   \   00000E   3D           ADDC    A,R5
   \   00000F   F9           MOV     R1,A
   \   000010   8882         MOV     DPL,R0
   \   000012   8983         MOV     DPH,R1
   \   000014   E0           MOVX    A,@DPTR
   \   000015   8E82         MOV     DPL,R6
   \   000017   8F83         MOV     DPH,R7
   \   000019   A3           INC     DPTR
   \   00001A   A3           INC     DPTR
   \   00001B   A3           INC     DPTR
   \   00001C   A3           INC     DPTR
   \   00001D   A3           INC     DPTR
   \   00001E   A3           INC     DPTR
   \   00001F   A3           INC     DPTR
   \   000020   A3           INC     DPTR
   \   000021   12....       LCALL   ?Subroutine31 & 0xFFFF
   1108            if ( zAddr->addrMode == Addr64Bit )
   \                     ??CrossCallReturnLabel_46:
   \   000024   7005         JNZ     ??afCopyAddress_0
   1109            {
   1110              (void)osal_cpyExtAddr( afAddr->addr.extAddr, zAddr->addr.extAddr );
   \   000026                ; Setup parameters for call to function sAddrExtCpy
   \   000026   12....       LCALL   `??sAddrExtCpy::?relay`; Banked call to: sAddrExtCpy
   \   000029   800E         SJMP    ??CrossCallReturnLabel_80
   1111            }
   1112            else
   1113            {
   1114              afAddr->addr.shortAddr = zAddr->addr.shortAddr;
   \                     ??afCopyAddress_0:
   \   00002B   8C82         MOV     DPL,R4
   \   00002D   8D83         MOV     DPH,R5
   \   00002F   12....       LCALL   ??Subroutine56_0 & 0xFFFF
   1115            }
   \                     ??CrossCallReturnLabel_130:
   \   000032   8E82         MOV     DPL,R6
   \   000034   8F83         MOV     DPH,R7
   \   000036   12....       LCALL   ??Subroutine44_0 & 0xFFFF
   1116          
   1117            // Since zAddrType_t has no INTER-PAN information, set the panId member to zero.
   1118            afAddr->panId = 0;
   \                     ??CrossCallReturnLabel_80:
   \   000039   8E82         MOV     DPL,R6
   \   00003B   8F83         MOV     DPH,R7
   \   00003D   A3           INC     DPTR
   \   00003E   A3           INC     DPTR
   \   00003F   A3           INC     DPTR
   \   000040   A3           INC     DPTR
   \   000041   A3           INC     DPTR
   \   000042   A3           INC     DPTR
   \   000043   A3           INC     DPTR
   \   000044   A3           INC     DPTR
   \   000045   A3           INC     DPTR
   \   000046   A3           INC     DPTR
   \   000047   E4           CLR     A
   \   000048   F0           MOVX    @DPTR,A
   \   000049   A3           INC     DPTR
   \   00004A   F0           MOVX    @DPTR,A
   1119          }
   \   00004B   02....       LJMP    ?Subroutine2 & 0xFFFF
   1120          
   1121          /**************************************************************************************************
   1122           * @fn          afAPSF_ConfigGet
   1123           *
   1124           * @brief       This function ascertains the fragmentation configuration that corresponds to
   1125           *              the specified EndPoint.
   1126           *
   1127           * input parameters
   1128           *
   1129           * @param       endPoint - The source EP of a Tx or destination EP of a Rx fragmented message.
   1130           *
   1131           * output parameters
   1132           *
   1133           * @param       pCfg - A pointer to an APSF configuration structure to fill with values.
   1134           *
   1135           * @return      None.
   1136           */

   \                                 In  segment BANKED_CODE, align 1, keep-with-next
   1137          void afAPSF_ConfigGet(uint8 endPoint, afAPSF_Config_t *pCfg)
   \                     afAPSF_ConfigGet:
   1138          {
   \   000000                REQUIRE ?V0
   \   000000                REQUIRE ?V1
   \   000000                REQUIRE ?V2
   \   000000                REQUIRE ?V3
   \   000000   74F4         MOV     A,#-0xc
   \   000002   12....       LCALL   ?BANKED_ENTER_XDATA
   \   000005                ; Saved register size: 12
   \   000005                ; Auto size: 0
   \   000005   EA           MOV     A,R2
   \   000006   FE           MOV     R6,A
   \   000007   EB           MOV     A,R3
   \   000008   FF           MOV     R7,A
   1139            epList_t *pList = afFindEndPointDescList(endPoint);
   \   000009                ; Setup parameters for call to function afFindEndPointDescList
   \   000009   12....       LCALL   `??afFindEndPointDescList::?relay`; Banked call to: afFindEndPointDescList
   \   00000C   8A..         MOV     ?V0,R2
   \   00000E   8B..         MOV     ?V1,R3
   \   000010   A8..         MOV     R0,?V0
   \   000012   A9..         MOV     R1,?V1
   1140          
   1141            if (pList == NULL)
   \   000014   E8           MOV     A,R0
   \   000015   49           ORL     A,R1
   \   000016   700D         JNZ     ??afAPSF_ConfigGet_0
   1142            {
   1143              pCfg->frameDelay = APSF_DEFAULT_INTERFRAME_DELAY;
   \   000018   8E82         MOV     DPL,R6
   \   00001A   8F83         MOV     DPH,R7
   \   00001C   7432         MOV     A,#0x32
   \   00001E   F0           MOVX    @DPTR,A
   1144              pCfg->windowSize = APSF_DEFAULT_WINDOW_SIZE;
   \   00001F   A3           INC     DPTR
   \   000020   7401         MOV     A,#0x1
   \   000022   F0           MOVX    @DPTR,A
   \   000023   8021         SJMP    ??afAPSF_ConfigGet_1
   1145            }
   1146            else
   1147            {
   1148              (void)osal_memcpy(pCfg, &pList->apsfCfg, sizeof(afAPSF_Config_t));
   \                     ??afAPSF_ConfigGet_0:
   \   000025                ; Setup parameters for call to function osal_memcpy
   \   000025   E8           MOV     A,R0
   \   000026   2406         ADD     A,#0x6
   \   000028   F5..         MOV     ?V0,A
   \   00002A   E4           CLR     A
   \   00002B   39           ADDC    A,R1
   \   00002C   F5..         MOV     ?V1,A
   \   00002E   75..00       MOV     ?V2,#0x0
   \   000031   78..         MOV     R0,#?V0
   \   000033   12....       LCALL   ?PUSH_XSTACK_I_THREE
   \   000036   7C02         MOV     R4,#0x2
   \   000038   7D00         MOV     R5,#0x0
   \   00003A   EE           MOV     A,R6
   \   00003B   FA           MOV     R2,A
   \   00003C   EF           MOV     A,R7
   \   00003D   FB           MOV     R3,A
   \   00003E   12....       LCALL   `??osal_memcpy::?relay`; Banked call to: osal_memcpy
   \   000041   7403         MOV     A,#0x3
   \   000043   12....       LCALL   ?DEALLOC_XSTACK8
   1149            }
   1150          }
   \                     ??afAPSF_ConfigGet_1:
   \   000046   02....       LJMP    ?Subroutine0 & 0xFFFF
   1151          
   1152          /**************************************************************************************************
   1153           * @fn          afAPSF_ConfigSet
   1154           *
   1155           * @brief       This function attempts to set the fragmentation configuration that corresponds to
   1156           *              the specified EndPoint.
   1157           *
   1158           * input parameters
   1159           *
   1160           * @param       endPoint - The specific EndPoint for which to set the fragmentation configuration.
   1161           * @param       pCfg - A pointer to an APSF configuration structure to fill with values.
   1162           *
   1163           * output parameters
   1164           *
   1165           * None.
   1166           *
   1167           * @return      afStatus_SUCCESS for success.
   1168           *              afStatus_INVALID_PARAMETER if the specified EndPoint is not registered.
   1169           */

   \                                 In  segment BANKED_CODE, align 1, keep-with-next
   1170          afStatus_t afAPSF_ConfigSet(uint8 endPoint, afAPSF_Config_t *pCfg)
   \                     afAPSF_ConfigSet:
   1171          {
   \   000000                REQUIRE ?V0
   \   000000                REQUIRE ?V2
   \   000000                REQUIRE ?V3
   \   000000                REQUIRE ?V4
   \   000000                REQUIRE ?V5
   \   000000                REQUIRE ?V6
   \   000000   74F1         MOV     A,#-0xf
   \   000002   12....       LCALL   ?BANKED_ENTER_XDATA
   \   000005                ; Saved register size: 15
   \   000005                ; Auto size: 0
   \   000005   EA           MOV     A,R2
   \   000006   FE           MOV     R6,A
   \   000007   EB           MOV     A,R3
   \   000008   FF           MOV     R7,A
   1172            epList_t *pList = afFindEndPointDescList(endPoint);
   \   000009                ; Setup parameters for call to function afFindEndPointDescList
   \   000009   12....       LCALL   `??afFindEndPointDescList::?relay`; Banked call to: afFindEndPointDescList
   1173          
   1174            if (pList == NULL)
   \   00000C   EA           MOV     A,R2
   \   00000D   4B           ORL     A,R3
   \   00000E   7004         JNZ     ??afAPSF_ConfigSet_0
   1175            {
   1176              return afStatus_INVALID_PARAMETER;
   \   000010   7902         MOV     R1,#0x2
   \   000012   8021         SJMP    ??afAPSF_ConfigSet_1
   1177            }
   1178          
   1179            (void)osal_memcpy(&pList->apsfCfg, pCfg, sizeof(afAPSF_Config_t));
   \                     ??afAPSF_ConfigSet_0:
   \   000014                ; Setup parameters for call to function osal_memcpy
   \   000014   8E..         MOV     ?V4,R6
   \   000016   8F..         MOV     ?V5,R7
   \   000018   75..00       MOV     ?V6,#0x0
   \   00001B   78..         MOV     R0,#?V4
   \   00001D   12....       LCALL   ?PUSH_XSTACK_I_THREE
   \   000020   7C02         MOV     R4,#0x2
   \   000022   7D00         MOV     R5,#0x0
   \   000024   EA           MOV     A,R2
   \   000025   2406         ADD     A,#0x6
   \   000027   FA           MOV     R2,A
   \   000028   5001         JNC     ??afAPSF_ConfigSet_2
   \   00002A   0B           INC     R3
   \                     ??afAPSF_ConfigSet_2:
   \   00002B   12....       LCALL   `??osal_memcpy::?relay`; Banked call to: osal_memcpy
   \   00002E   7403         MOV     A,#0x3
   \   000030   12....       LCALL   ?DEALLOC_XSTACK8
   1180            return afStatus_SUCCESS;
   \   000033   7900         MOV     R1,#0x0
   \                     ??afAPSF_ConfigSet_1:
   \   000035   7F07         MOV     R7,#0x7
   \   000037   02....       LJMP    ?BANKED_LEAVE_XDATA
   1181          }
   1182          
   1183          /**************************************************************************************************
   1184           * @fn          afSetApplCB
   1185           *
   1186           * @brief       Sets the pointer to the Application Callback function for a
   1187           *              specific EndPoint.
   1188           *
   1189           * input parameters
   1190           *
   1191           * @param       endPoint - The specific EndPoint for which to set Application Callback.
   1192           * @param       pApplFn - A pointer to the Application Callback function.
   1193           *
   1194           * output parameters
   1195           *
   1196           * None.
   1197           *
   1198           * @return      TRUE if success, FALSE if endpoint not found
   1199           */

   \                                 In  segment BANKED_CODE, align 1, keep-with-next
   1200          uint8 afSetApplCB( uint8 endPoint, pApplCB pApplFn )
   \                     afSetApplCB:
   1201          {
   \   000000                REQUIRE ?V0
   \   000000                REQUIRE ?V2
   \   000000                REQUIRE ?V3
   \   000000   74F4         MOV     A,#-0xc
   \   000002   12....       LCALL   ?BANKED_ENTER_XDATA
   \   000005                ; Saved register size: 12
   \   000005                ; Auto size: 0
   \   000005   EA           MOV     A,R2
   \   000006   FE           MOV     R6,A
   \   000007   EB           MOV     A,R3
   \   000008   FF           MOV     R7,A
   1202            if ( pApplFn != NULL )
   \   000009   EE           MOV     A,R6
   \   00000A   4F           ORL     A,R7
   \   00000B   601F         JZ      ??afSetApplCB_0
   1203            {
   1204              epList_t *epSearch;
   1205          
   1206              // Look for the endpoint
   1207              epSearch = afFindEndPointDescList( endPoint );
   \   00000D                ; Setup parameters for call to function afFindEndPointDescList
   \   00000D   12....       LCALL   `??afFindEndPointDescList::?relay`; Banked call to: afFindEndPointDescList
   \   000010   8A82         MOV     DPL,R2
   \   000012   8B83         MOV     DPH,R3
   1208          
   1209              if ( epSearch )
   \   000014   E582         MOV     A,DPL
   \   000016   4583         ORL     A,DPH
   \   000018   6012         JZ      ??afSetApplCB_0
   1210              {
   1211                epSearch->pfnApplCB = pApplFn;
   \   00001A   A3           INC     DPTR
   \   00001B   A3           INC     DPTR
   \   00001C   A3           INC     DPTR
   \   00001D   A3           INC     DPTR
   \   00001E   A3           INC     DPTR
   \   00001F   A3           INC     DPTR
   \   000020   A3           INC     DPTR
   \   000021   A3           INC     DPTR
   \   000022   A3           INC     DPTR
   \   000023   EE           MOV     A,R6
   \   000024   F0           MOVX    @DPTR,A
   \   000025   A3           INC     DPTR
   \   000026   EF           MOV     A,R7
   \   000027   F0           MOVX    @DPTR,A
   1212          
   1213                return ( TRUE );
   \   000028   7901         MOV     R1,#0x1
   \   00002A   8002         SJMP    ??afSetApplCB_1
   1214              }
   1215            }
   1216          
   1217            return ( FALSE );
   \                     ??afSetApplCB_0:
   \   00002C   7900         MOV     R1,#0x0
   \                     ??afSetApplCB_1:
   \   00002E   02....       LJMP    ?Subroutine0 & 0xFFFF
   1218          }

   \                                 In  segment XDATA_ID, align 1, keep-with-next
   \                     `?<Initializer for AF_DataRequestDiscoverRoute>`:
   \   000000   01           DB 1

   \                                 In  segment BANK_RELAYS, align 1
   \                     `??afRegisterExtended::?relay`:
   \   000000   12....       LCALL   ?BDISPATCH
   \   000003   ......       DC24    afRegisterExtended

   \                                 In  segment BANK_RELAYS, align 1
   \                     `??afRegister::?relay`:
   \   000000   12....       LCALL   ?BDISPATCH
   \   000003   ......       DC24    afRegister

   \                                 In  segment BANK_RELAYS, align 1
   \                     `??afDelete::?relay`:
   \   000000   12....       LCALL   ?BDISPATCH
   \   000003   ......       DC24    afDelete

   \                                 In  segment BANK_RELAYS, align 1
   \                     `??afDataConfirm::?relay`:
   \   000000   12....       LCALL   ?BDISPATCH
   \   000003   ......       DC24    afDataConfirm

   \                                 In  segment BANK_RELAYS, align 1
   \                     `??afReflectError::?relay`:
   \   000000   12....       LCALL   ?BDISPATCH
   \   000003   ......       DC24    afReflectError

   \                                 In  segment BANK_RELAYS, align 1
   \                     `??afIncomingData::?relay`:
   \   000000   12....       LCALL   ?BDISPATCH
   \   000003   ......       DC24    afIncomingData

   \                                 In  segment BANK_RELAYS, align 1
   \                     `??afBuildMSGIncoming::?relay`:
   \   000000   12....       LCALL   ?BDISPATCH
   \   000003   ......       DC24    afBuildMSGIncoming

   \                                 In  segment BANK_RELAYS, align 1
   \                     `??AF_DataRequest::?relay`:
   \   000000   12....       LCALL   ?BDISPATCH
   \   000003   ......       DC24    AF_DataRequest

   \                                 In  segment BANK_RELAYS, align 1
   \                     `??AF_DataRequestSrcRtg::?relay`:
   \   000000   12....       LCALL   ?BDISPATCH
   \   000003   ......       DC24    AF_DataRequestSrcRtg

   \                                 In  segment BANK_RELAYS, align 1
   \                     `??afFindEndPointDescList::?relay`:
   \   000000   12....       LCALL   ?BDISPATCH
   \   000003   ......       DC24    afFindEndPointDescList

   \                                 In  segment BANK_RELAYS, align 1
   \                     `??afFindEndPointDesc::?relay`:
   \   000000   12....       LCALL   ?BDISPATCH
   \   000003   ......       DC24    afFindEndPointDesc

   \                                 In  segment BANK_RELAYS, align 1
   \                     `??afFindSimpleDesc::?relay`:
   \   000000   12....       LCALL   ?BDISPATCH
   \   000003   ......       DC24    afFindSimpleDesc

   \                                 In  segment BANK_RELAYS, align 1
   \                     `??afDataReqMTU::?relay`:
   \   000000   12....       LCALL   ?BDISPATCH
   \   000003   ......       DC24    afDataReqMTU

   \                                 In  segment BANK_RELAYS, align 1
   \                     `??afGetMatch::?relay`:
   \   000000   12....       LCALL   ?BDISPATCH
   \   000003   ......       DC24    afGetMatch

   \                                 In  segment BANK_RELAYS, align 1
   \                     `??afSetMatch::?relay`:
   \   000000   12....       LCALL   ?BDISPATCH
   \   000003   ......       DC24    afSetMatch

   \                                 In  segment BANK_RELAYS, align 1
   \                     `??afNumEndPoints::?relay`:
   \   000000   12....       LCALL   ?BDISPATCH
   \   000003   ......       DC24    afNumEndPoints

   \                                 In  segment BANK_RELAYS, align 1
   \                     `??afEndPoints::?relay`:
   \   000000   12....       LCALL   ?BDISPATCH
   \   000003   ......       DC24    afEndPoints

   \                                 In  segment BANK_RELAYS, align 1
   \                     `??afCopyAddress::?relay`:
   \   000000   12....       LCALL   ?BDISPATCH
   \   000003   ......       DC24    afCopyAddress

   \                                 In  segment BANK_RELAYS, align 1
   \                     `??afAPSF_ConfigGet::?relay`:
   \   000000   12....       LCALL   ?BDISPATCH
   \   000003   ......       DC24    afAPSF_ConfigGet

   \                                 In  segment BANK_RELAYS, align 1
   \                     `??afAPSF_ConfigSet::?relay`:
   \   000000   12....       LCALL   ?BDISPATCH
   \   000003   ......       DC24    afAPSF_ConfigSet

   \                                 In  segment BANK_RELAYS, align 1
   \                     `??afSetApplCB::?relay`:
   \   000000   12....       LCALL   ?BDISPATCH
   \   000003   ......       DC24    afSetApplCB
   1219          
   1220          /**************************************************************************************************
   1221          */

   Maximum stack usage in bytes:

   ISTACK XSTACK Function
   ------ ------ --------
      1     67   AF_DataRequest
        0     46   -> APSDE_DataReq
        0     46   -> NLME_GetShortAddr
        0     46   -> NLME_IsAddressBroadcast
        0     46   -> RTG_CheckRtStatus
        0     46   -> afDataConfirm
        0     46   -> afDataReqMTU
        0     46   -> afFindEndPointDescList
        0     46   -> osal_mem_free
        0     46   -> sAddrExtCpy
      0     33   AF_DataRequestSrcRtg
        0     21   -> AF_DataRequest
        0     12   -> RTG_AddSrcRtgEntry_Guaranteed
      0     15   afAPSF_ConfigGet
        0     12   -> afFindEndPointDescList
        0     15   -> osal_memcpy
      0     18   afAPSF_ConfigSet
        0     15   -> afFindEndPointDescList
        0     18   -> osal_memcpy
      1     57   afBuildMSGIncoming
        0     17   -> afCopyAddress
        0     20   -> osal_memcpy
        0     17   -> osal_msg_allocate
        0     17   -> osal_msg_send
      1     26   afCopyAddress
        0      9   -> sAddrExtCpy
      1     60   afDataConfirm
        0     14   -> afFindEndPointDesc
        0     14   -> osal_msg_allocate
        0     14   -> osal_msg_send
      0     55   afDataReqMTU
        0      9   -> APSDE_DataReqMTU
      0      9   afDelete
        0      9   -> osal_mem_free
      3      0   afEndPoints
      0     35   afFindEndPointDesc
        0     10   -> afFindEndPointDescList
      2     46   afFindEndPointDescList
      0     12   afFindSimpleDesc
        0     12   -> afFindEndPointDescList
      0     10   afGetMatch
        0     10   -> afFindEndPointDescList
      1     47   afIncomingData
        0     37   -> afBuildMSGIncoming
        0     25   -> afFindEndPointDesc
        0     25   -> afFindEndPointDescList
        0     25   -> aps_FindGroupForEndpoint
        0     25   -> osal_mem_free
      2      0   afNumEndPoints
      1     17   afReflectError
        0     16   -> afFindEndPointDesc
        0     16   -> osal_msg_allocate
        0     16   -> osal_msg_send
      0     12   afRegister
        0     10   -> afFindEndPointDescList
        0     12   -> afRegisterExtended
      0     24   afRegisterExtended
        0     12   -> osal_mem_alloc
      0     12   afSetApplCB
        0     12   -> afFindEndPointDescList
      0     10   afSetMatch
        0     10   -> afFindEndPointDescList


   Segment part sizes:

   Bytes  Function/Label
   -----  --------------
       1  ?<Initializer for AF_DataRequestDiscoverRoute>
      12  ??Subroutine43_0
       6  ??Subroutine44_0
       6  ??Subroutine45_0
       5  ??Subroutine46_0
       5  ??Subroutine47_0
       8  ??Subroutine48_0
       1  ??Subroutine49_0
       2  ??Subroutine50_0
       6  ??Subroutine51_0
       1  ??Subroutine52_0
       2  ??Subroutine53_0
       6  ??Subroutine54_0
       6  ??Subroutine55_0
       4  ??Subroutine56_0
       5  ?Subroutine0
       5  ?Subroutine1
       5  ?Subroutine10
       8  ?Subroutine11
       8  ?Subroutine12
      14  ?Subroutine13
      17  ?Subroutine14
       8  ?Subroutine15
       8  ?Subroutine16
       5  ?Subroutine17
       4  ?Subroutine18
       6  ?Subroutine19
       5  ?Subroutine2
       5  ?Subroutine20
       3  ?Subroutine21
       1  ?Subroutine22
       9  ?Subroutine23
      10  ?Subroutine24
       6  ?Subroutine25
       6  ?Subroutine26
       4  ?Subroutine27
      10  ?Subroutine28
       6  ?Subroutine29
       3  ?Subroutine3
       5  ?Subroutine30
       7  ?Subroutine31
      11  ?Subroutine32
      10  ?Subroutine33
       8  ?Subroutine34
       5  ?Subroutine35
       6  ?Subroutine36
       6  ?Subroutine37
      14  ?Subroutine38
      10  ?Subroutine39
       7  ?Subroutine4
      10  ?Subroutine40
       1  ?Subroutine41
      10  ?Subroutine42
       3  ?Subroutine5
       1  ?Subroutine6
       4  ?Subroutine7
       4  ?Subroutine8
       8  ?Subroutine9
     855  AF_DataRequest
       6  AF_DataRequest::?relay
       1  AF_DataRequestDiscoverRoute
     125  AF_DataRequestSrcRtg
       6  AF_DataRequestSrcRtg::?relay
      73  afAPSF_ConfigGet
       6  afAPSF_ConfigGet::?relay
      58  afAPSF_ConfigSet
       6  afAPSF_ConfigSet::?relay
     482  afBuildMSGIncoming
       6  afBuildMSGIncoming::?relay
      78  afCopyAddress
       6  afCopyAddress::?relay
      66  afDataConfirm
       6  afDataConfirm::?relay
      35  afDataReqMTU
       6  afDataReqMTU::?relay
      92  afDelete
       6  afDelete::?relay
      56  afEndPoints
       6  afEndPoints::?relay
      30  afFindEndPointDesc
       6  afFindEndPointDesc::?relay
      29  afFindEndPointDescList
       6  afFindEndPointDescList::?relay
      89  afFindSimpleDesc
       6  afFindSimpleDesc::?relay
      37  afGetMatch
       6  afGetMatch::?relay
     610  afIncomingData
       6  afIncomingData::?relay
      31  afNumEndPoints
       6  afNumEndPoints::?relay
      97  afReflectError
       6  afReflectError::?relay
      71  afRegister
       6  afRegister::?relay
      97  afRegisterExtended
       6  afRegisterExtended::?relay
      49  afSetApplCB
       6  afSetApplCB::?relay
      48  afSetMatch
       6  afSetMatch::?relay
       2  epList

 
 3 469 bytes in segment BANKED_CODE
   126 bytes in segment BANK_RELAYS
     1 byte  in segment XDATA_I
     1 byte  in segment XDATA_ID
     2 bytes in segment XDATA_Z
 
 3 596 bytes of CODE  memory
     3 bytes of XDATA memory

Errors: none
Warnings: none
