###############################################################################
#
# IAR C/C++ Compiler V9.30.1.3056 for 8051                25/Oct/2016  15:28:52
# Copyright 2004-2015 IAR Systems AB.
# Standalone license - IAR Embedded Workbench for 8051
#
#    Core               =  plain
#    Code model         =  banked
#    Data model         =  large
#    Calling convention =  xdata reentrant
#    Constant location  =  data_rom
#    Dptr setup         =  1,16
#                          
#    Source file        =  
#        E:\资源(G：)\#个人项目\ZigbeeProject\Z-Stack Mesh
#        1.0.0\Projects\zstack\Samples\Demo_App_V1.8饮水机控制增加uart\Module\WaterMachine\WaterMachineDriver.c
#    Command line       =  
#        -f "E:\资源(G：)\#个人项目\ZigbeeProject\Z-Stack Mesh
#        1.0.0\Projects\zstack\Samples\Demo_App_V1.8饮水机控制增加uart\CC2530DB\..\..\..\Tools\CC2530DB\f8wEndev.cfg"
#        (-DCPU32MHZ -DROOT=__near_func -DMAC_CFG_TX_DATA_MAX=3
#        -DMAC_CFG_TX_MAX=6 -DMAC_CFG_RX_MAX=3) -f
#        "E:\资源(G：)\#个人项目\ZigbeeProject\Z-Stack Mesh
#        1.0.0\Projects\zstack\Samples\Demo_App_V1.8饮水机控制增加uart\CC2530DB\..\..\..\Tools\CC2530DB\f8wConfig.cfg"
#        (-DZIGBEEPRO -DSECURE=1 -DZG_SECURE_DYNAMIC=0 -DREFLECTOR
#        -DDEFAULT_CHANLIST=0x00000800 -DZDAPP_CONFIG_PAN_ID=0xFFFF
#        -DNWK_START_DELAY=100 -DEXTENDED_JOINING_RANDOM_MASK=0x007F
#        -DBEACON_REQUEST_DELAY=100 -DBEACON_REQ_DELAY_MASK=0x00FF
#        -DLINK_STATUS_JITTER_MASK=0x007F -DROUTE_EXPIRY_TIME=30
#        -DAPSC_ACK_WAIT_DURATION_POLLED=3000 -DNWK_INDIRECT_MSG_TIMEOUT=7
#        -DMAX_RREQ_ENTRIES=8 -DAPSC_MAX_FRAME_RETRIES=3
#        -DNWK_MAX_DATA_RETRIES=2 -DMAX_POLL_FAILURE_RETRIES=2 -DMAX_BCAST=9
#        -DAPS_MAX_GROUPS=16 -DMAX_RTG_ENTRIES=40 -DNWK_MAX_BINDING_ENTRIES=4
#        -DMAX_BINDING_CLUSTER_IDS=4 "-DDEFAULT_KEY={0x01, 0x03, 0x05, 0x07,
#        0x09, 0x0B, 0x0D, 0x0F, 0x00, 0x02, 0x04, 0x06, 0x08, 0x0A, 0x0C,
#        0x0D}" -DMAC_MAX_FRAME_SIZE=116 -DZDNWKMGR_MIN_TRANSMISSIONS=20
#        "-DCONST=const __code" -DGENERIC=__generic -DRFD_RCVC_ALWAYS_ON=FALSE
#        -DPOLL_RATE=50 -DQUEUED_POLL_RATE=100 -DRESPONSE_POLL_RATE=100)
#        -DREJOIN_POLL_RATE=440 "E:\资源(G：)\#个人项目\ZigbeeProject\Z-Stack
#        Mesh
#        1.0.0\Projects\zstack\Samples\Demo_App_V1.8饮水机控制增加uart\Module\WaterMachine\WaterMachineDriver.c"
#        -D HAL_UART=TRUE -D HAL_UART_ISR=1 -D HAL_UART_DMA=0 -D LOG_OUT -D
#        UART1_PROTOCOL_RESOLVER=1 -D xISQC -D NWK_AUTO_POLL -D xZTOOL_P1 -D
#        ISR_KEYINTERRUPT -D xMT_TASK -D xMT_SYS_FUNC -D xMT_ZDO_FUNC -D
#        xLCD_SUPPORTED=DEBUG -D xPOWER_SAVING -lC
#        "E:\资源(G：)\#个人项目\ZigbeeProject\Z-Stack Mesh
#        1.0.0\Projects\zstack\Samples\Demo_App_V1.8饮水机控制增加uart\CC2530DB\WaterMachine\List"
#        -lA "E:\资源(G：)\#个人项目\ZigbeeProject\Z-Stack Mesh
#        1.0.0\Projects\zstack\Samples\Demo_App_V1.8饮水机控制增加uart\CC2530DB\WaterMachine\List"
#        --diag_suppress Pe001,Pa010 -o
#        "E:\资源(G：)\#个人项目\ZigbeeProject\Z-Stack Mesh
#        1.0.0\Projects\zstack\Samples\Demo_App_V1.8饮水机控制增加uart\CC2530DB\WaterMachine\Obj"
#        -e --no_code_motion --debug --core=plain --dptr=16,1
#        --data_model=large --code_model=banked
#        --calling_convention=xdata_reentrant --place_constants=data_rom
#        --nr_virtual_regs 8 -I "E:\资源(G：)\#个人项目\ZigbeeProject\Z-Stack
#        Mesh
#        1.0.0\Projects\zstack\Samples\Demo_App_V1.8饮水机控制增加uart\CC2530DB\"
#        -I "E:\资源(G：)\#个人项目\ZigbeeProject\Z-Stack Mesh
#        1.0.0\Projects\zstack\Samples\Demo_App_V1.8饮水机控制增加uart\CC2530DB\..\Source\"
#        -I "E:\资源(G：)\#个人项目\ZigbeeProject\Z-Stack Mesh
#        1.0.0\Projects\zstack\Samples\Demo_App_V1.8饮水机控制增加uart\CC2530DB\..\Frame\"
#        -I "E:\资源(G：)\#个人项目\ZigbeeProject\Z-Stack Mesh
#        1.0.0\Projects\zstack\Samples\Demo_App_V1.8饮水机控制增加uart\CC2530DB\..\Module\WaterMachine\"
#        -I "E:\资源(G：)\#个人项目\ZigbeeProject\Z-Stack Mesh
#        1.0.0\Projects\zstack\Samples\Demo_App_V1.8饮水机控制增加uart\CC2530DB\..\..\..\ZMain\TI2530DB\"
#        -I "E:\资源(G：)\#个人项目\ZigbeeProject\Z-Stack Mesh
#        1.0.0\Projects\zstack\Samples\Demo_App_V1.8饮水机控制增加uart\CC2530DB\..\..\..\..\..\Components\hal\include\"
#        -I "E:\资源(G：)\#个人项目\ZigbeeProject\Z-Stack Mesh
#        1.0.0\Projects\zstack\Samples\Demo_App_V1.8饮水机控制增加uart\CC2530DB\..\..\..\..\..\Components\hal\target\CC2530EB\"
#        -I "E:\资源(G：)\#个人项目\ZigbeeProject\Z-Stack Mesh
#        1.0.0\Projects\zstack\Samples\Demo_App_V1.8饮水机控制增加uart\CC2530DB\..\..\..\..\..\Components\mac\include\"
#        -I "E:\资源(G：)\#个人项目\ZigbeeProject\Z-Stack Mesh
#        1.0.0\Projects\zstack\Samples\Demo_App_V1.8饮水机控制增加uart\CC2530DB\..\..\..\..\..\Components\mac\high_level\"
#        -I "E:\资源(G：)\#个人项目\ZigbeeProject\Z-Stack Mesh
#        1.0.0\Projects\zstack\Samples\Demo_App_V1.8饮水机控制增加uart\CC2530DB\..\..\..\..\..\Components\mac\low_level\srf04\"
#        -I "E:\资源(G：)\#个人项目\ZigbeeProject\Z-Stack Mesh
#        1.0.0\Projects\zstack\Samples\Demo_App_V1.8饮水机控制增加uart\CC2530DB\..\..\..\..\..\Components\mac\low_level\srf04\single_chip\"
#        -I "E:\资源(G：)\#个人项目\ZigbeeProject\Z-Stack Mesh
#        1.0.0\Projects\zstack\Samples\Demo_App_V1.8饮水机控制增加uart\CC2530DB\..\..\..\..\..\Components\mt\"
#        -I "E:\资源(G：)\#个人项目\ZigbeeProject\Z-Stack Mesh
#        1.0.0\Projects\zstack\Samples\Demo_App_V1.8饮水机控制增加uart\CC2530DB\..\..\..\..\..\Components\osal\include\"
#        -I "E:\资源(G：)\#个人项目\ZigbeeProject\Z-Stack Mesh
#        1.0.0\Projects\zstack\Samples\Demo_App_V1.8饮水机控制增加uart\CC2530DB\..\..\..\..\..\Components\services\saddr\"
#        -I "E:\资源(G：)\#个人项目\ZigbeeProject\Z-Stack Mesh
#        1.0.0\Projects\zstack\Samples\Demo_App_V1.8饮水机控制增加uart\CC2530DB\..\..\..\..\..\Components\services\sdata\"
#        -I "E:\资源(G：)\#个人项目\ZigbeeProject\Z-Stack Mesh
#        1.0.0\Projects\zstack\Samples\Demo_App_V1.8饮水机控制增加uart\CC2530DB\..\..\..\..\..\Components\stack\af\"
#        -I "E:\资源(G：)\#个人项目\ZigbeeProject\Z-Stack Mesh
#        1.0.0\Projects\zstack\Samples\Demo_App_V1.8饮水机控制增加uart\CC2530DB\..\..\..\..\..\Components\stack\nwk\"
#        -I "E:\资源(G：)\#个人项目\ZigbeeProject\Z-Stack Mesh
#        1.0.0\Projects\zstack\Samples\Demo_App_V1.8饮水机控制增加uart\CC2530DB\..\..\..\..\..\Components\stack\sapi\"
#        -I "E:\资源(G：)\#个人项目\ZigbeeProject\Z-Stack Mesh
#        1.0.0\Projects\zstack\Samples\Demo_App_V1.8饮水机控制增加uart\CC2530DB\..\..\..\..\..\Components\stack\sec\"
#        -I "E:\资源(G：)\#个人项目\ZigbeeProject\Z-Stack Mesh
#        1.0.0\Projects\zstack\Samples\Demo_App_V1.8饮水机控制增加uart\CC2530DB\..\..\..\..\..\Components\stack\sys\"
#        -I "E:\资源(G：)\#个人项目\ZigbeeProject\Z-Stack Mesh
#        1.0.0\Projects\zstack\Samples\Demo_App_V1.8饮水机控制增加uart\CC2530DB\..\..\..\..\..\Components\stack\zdo\"
#        -I "E:\资源(G：)\#个人项目\ZigbeeProject\Z-Stack Mesh
#        1.0.0\Projects\zstack\Samples\Demo_App_V1.8饮水机控制增加uart\CC2530DB\..\..\..\..\..\Components\zmac\"
#        -I "E:\资源(G：)\#个人项目\ZigbeeProject\Z-Stack Mesh
#        1.0.0\Projects\zstack\Samples\Demo_App_V1.8饮水机控制增加uart\CC2530DB\..\..\..\..\..\Components\zmac\f8w\"
#        -Ohz
#    List file          =  
#        E:\资源(G：)\#个人项目\ZigbeeProject\Z-Stack Mesh
#        1.0.0\Projects\zstack\Samples\Demo_App_V1.8饮水机控制增加uart\CC2530DB\WaterMachine\List\WaterMachineDriver.lst
#    Object file        =  
#        E:\资源(G：)\#个人项目\ZigbeeProject\Z-Stack Mesh
#        1.0.0\Projects\zstack\Samples\Demo_App_V1.8饮水机控制增加uart\CC2530DB\WaterMachine\Obj\WaterMachineDriver.r51
#
###############################################################################

E:\资源(G：)\#个人项目\ZigbeeProject\Z-Stack Mesh 1.0.0\Projects\zstack\Samples\Demo_App_V1.8饮水机控制增加uart\Module\WaterMachine\WaterMachineDriver.c
      1          #include "WaterMachineDriver.h"

   \                                 In  segment SFR_AN, at 0x80
   \   union <unnamed> volatile __sfr _A_P0
   \                     _A_P0:
   \   000000                DS 1

   \                                 In  segment SFR_AN, at 0x90
   \   union <unnamed> volatile __sfr _A_P1
   \                     _A_P1:
   \   000000                DS 1

   \                                 In  segment SFR_AN, at 0xf3
   \   unsigned char volatile __sfr P0SEL
   \                     P0SEL:
   \   000000                DS 1

   \                                 In  segment SFR_AN, at 0xf4
   \   unsigned char volatile __sfr P1SEL
   \                     P1SEL:
   \   000000                DS 1

   \                                 In  segment SFR_AN, at 0xfd
   \   unsigned char volatile __sfr P0DIR
   \                     P0DIR:
   \   000000                DS 1

   \                                 In  segment SFR_AN, at 0xfe
   \   unsigned char volatile __sfr P1DIR
   \                     P1DIR:
   \   000000                DS 1
      2          
      3          #include "WaterMachineProtocol.h"
      4          #include "ProtocolHandle.h"
      5          

   \                                 In  segment XDATA_Z, align 1, keep-with-next
      6          WaterM_Info_T WaterM;
   \                     WaterM:
   \   000000                DS 3
   \   000003                REQUIRE __INIT_XDATA_Z
      7          /****************************************************
      8          	函数名:	WaterMachine_Init
      9          	功能:	饮水机IO相关初始化  
     10                  作者:	2016年10月18日20:44:34
     11          ****************************************************/

   \                                 In  segment BANKED_CODE, align 1, keep-with-next
     12          void WaterMachine_Init(void){ 
   \                     WaterMachine_Init:
   \   000000   C082         PUSH    DPL
   \   000002   C083         PUSH    DPH
   \   000004                ; Saved register size: 2
   \   000004                ; Auto size: 0
     13            WaterM.State = WATERM_FINISH;
   \   000004   90....       MOV     DPTR,#WaterM + 2
   \   000007   7410         MOV     A,#0x10
   \   000009   F0           MOVX    @DPTR,A
     14            WaterM.Short_Addr = 0;
   \   00000A   90....       MOV     DPTR,#WaterM
   \   00000D   E4           CLR     A
   \   00000E   F0           MOVX    @DPTR,A
   \   00000F   A3           INC     DPTR
   \   000010   F0           MOVX    @DPTR,A
     15            
     16            P0SEL &= ~BV(4);//继电器 工作灯
   \   000011   53F3EF       ANL     0xf3,#0xef
     17            P0SEL &= ~BV(6);//指示灯
   \   000014   53F3BF       ANL     0xf3,#0xbf
     18            P1SEL &= ~BV(0);//LED1 
   \   000017   53F4FE       ANL     0xf4,#0xfe
     19            P1SEL &= ~BV(1);//LED2
   \   00001A   53F4FD       ANL     0xf4,#0xfd
     20            P1SEL &= ~BV(4);//LED3
   \   00001D   53F4EF       ANL     0xf4,#0xef
     21            P1SEL &= ~BV(3);//温控输入
   \   000020   53F4F7       ANL     0xf4,#0xf7
     22             
     23            P0DIR |= BV(4);//继电器 工作灯
   \   000023   43FD10       ORL     0xfd,#0x10
     24            P0DIR |= BV(6);//指示灯
   \   000026   43FD40       ORL     0xfd,#0x40
     25            P1DIR |= BV(0); 
   \   000029   43FE01       ORL     0xfe,#0x1
     26            P1DIR |= BV(1);
   \   00002C   43FE02       ORL     0xfe,#0x2
     27            P1DIR |= BV(4); 
   \   00002F   43FE10       ORL     0xfe,#0x10
     28            P1DIR &= ~BV(3);//温控输入 
   \   000032   53FEF7       ANL     0xfe,#0xf7
     29            
     30            P1_0 = 1;
   \   000035   D290         SETB    0x90.0
     31            P1_1 = 1;
   \   000037   D291         SETB    0x90.1
     32            P1_4 = 1;
   \   000039   D294         SETB    0x90.4
     33            
     34            JDQ_ENABLE;
   \   00003B   D284         SETB    0x80.4
     35            PWRLED_ENABLE; 
   \   00003D   D286         SETB    0x80.6
     36            
     37          }
   \   00003F   D083         POP     DPH
   \   000041   D082         POP     DPL
   \   000043   02....       LJMP    ?BRET
   \   000046                REQUIRE P0SEL
   \   000046                REQUIRE P1SEL
   \   000046                REQUIRE P0DIR
   \   000046                REQUIRE P1DIR
   \   000046                REQUIRE _A_P1
   \   000046                REQUIRE _A_P0
     38          
     39          /****************************************************
     40          	函数名:	WaterMachine_Init
     41          	功能:	饮水机IO相关初始化  
     42                  作者:	2016年10月18日20:44:34
     43          ****************************************************/

   \                                 In  segment BANKED_CODE, align 1, keep-with-next
     44          void State_Check(void){
   \                     State_Check:
   \   000000   74F7         MOV     A,#-0x9
   \   000002   12....       LCALL   ?BANKED_ENTER_XDATA
   \   000005                ; Saved register size: 9
   \   000005                ; Auto size: 0
     45            RUN_STATE oldstate = WaterM.State;
   \   000005   90....       MOV     DPTR,#WaterM + 2
   \   000008   E0           MOVX    A,@DPTR
   \   000009   F8           MOV     R0,A
   \   00000A   FE           MOV     R6,A
     46            if(WaterM.State != WATERM_AWAIT){//如果没有关闭电源智控 
   \   00000B   601A         JZ      ??State_Check_0
     47              PWRLED_ENABLE;
   \   00000D   D286         SETB    0x80.6
     48              if(TEMPCTRL_READ == TEMPCTRL_ENABLE){//如果温控数据需要加热
   \   00000F   A293         MOV     C,0x90.3
   \   000011   500E         JNC     ??State_Check_1
     49                  JDQ_ENABLE;//打开继电器所控电阻丝
   \   000013   D284         SETB    0x80.4
     50                  WaterM.State = WATERM_RUN;
   \   000015   7411         MOV     A,#0x11
   \                     ??State_Check_2:
   \   000017   F0           MOVX    @DPTR,A
     51                  //printf("电阻丝加热工作\r\n");
     52              }else{
     53                  JDQ_DISABLE;//关闭继电器所控电阻丝
     54                  WaterM.State = WATERM_FINISH;
     55                  //printf("电阻丝加热停止\r\n");
     56              }
     57            }else{
     58              JDQ_DISABLE;
     59              PWRLED_DISABLE;
     60            }
     61            if(WaterM.State != oldstate)
   \   000018   E0           MOVX    A,@DPTR
   \   000019   6E           XRL     A,R6
   \   00001A   6003         JZ      ??State_Check_3
     62              ReportState();
   \   00001C                ; Setup parameters for call to function ReportState
   \   00001C   12....       LCALL   `??ReportState::?relay`; Banked call to: ReportState
     63          }
   \                     ??State_Check_3:
   \   00001F   80..         SJMP    ?Subroutine0
   \                     ??State_Check_1:
   \   000021   C284         CLR     0x80.4
   \   000023   7410         MOV     A,#0x10
   \   000025   80F0         SJMP    ??State_Check_2
   \                     ??State_Check_0:
   \   000027   C284         CLR     0x80.4
   \   000029   C286         CLR     0x80.6
   \   00002B   80F2         SJMP    ??State_Check_3
   \   00002D                REQUIRE _A_P0
   \   00002D                REQUIRE _A_P1

   \                                 In  segment BANKED_CODE, align 1, keep-with-next
   \                     ?Subroutine0:
   \   000000   7F01         MOV     R7,#0x1
   \   000002   02....       LJMP    ?BANKED_LEAVE_XDATA
     64          
     65          /****************************************************
     66          	函数名:	Cmd_P_Handle
     67          	功能:	接收主控指令 
     68                  作者:	2016年10月18日20:44:34
     69          ****************************************************/

   \                                 In  segment BANKED_CODE, align 1, keep-with-next
     70          void Cmd_P_Handle(PROTOCOL_INFO_T* pi){
   \                     Cmd_P_Handle:
   \   000000   74F7         MOV     A,#-0x9
   \   000002   12....       LCALL   ?BANKED_ENTER_XDATA
   \   000005                ; Saved register size: 9
   \   000005                ; Auto size: 0
   \   000005   EA           MOV     A,R2
   \   000006   FE           MOV     R6,A
   \   000007   EB           MOV     A,R3
   \   000008   FF           MOV     R7,A
     71            printf("收到控制命令\r\n");
   \   000009                ; Setup parameters for call to function printf
   \   000009   7A..         MOV     R2,#`?<Constant "\\312\\325\\265\\275\\277\\330\\326\\306\\3` & 0xff
   \   00000B   7B..         MOV     R3,#(`?<Constant "\\312\\325\\265\\275\\277\\330\\326\\306\\3` >> 8) & 0xff
   \   00000D   12....       LCALL   `??printf::?relay`   ; Banked call to: printf
     72            if(pi->protocol.Cmd_P.para1 == (uint8_t)WATERM_CLOSE){
   \   000010   8E82         MOV     DPL,R6
   \   000012   8F83         MOV     DPH,R7
   \   000014   A3           INC     DPTR
   \   000015   A3           INC     DPTR
   \   000016   A3           INC     DPTR
   \   000017   A3           INC     DPTR
   \   000018   A3           INC     DPTR
   \   000019   A3           INC     DPTR
   \   00001A   E0           MOVX    A,@DPTR
   \   00001B   700B         JNZ     ??Cmd_P_Handle_0
     73              WaterM.State = WATERM_AWAIT;
   \   00001D   90....       MOV     DPTR,#WaterM + 2
   \   000020   E4           CLR     A
   \   000021   F0           MOVX    @DPTR,A
     74              printf("智控关闭\r\n");
   \   000022                ; Setup parameters for call to function printf
   \   000022   7A..         MOV     R2,#`?<Constant "\\326\\307\\277\\330\\271\\330\\261\\325\\r` & 0xff
   \   000024   7B..         MOV     R3,#(`?<Constant "\\326\\307\\277\\330\\271\\330\\261\\325\\r` >> 8) & 0xff
   \   000026   800E         SJMP    ??Cmd_P_Handle_1
     75            }else if(pi->protocol.Cmd_P.para1 == (uint8_t)WATERM_OPEN){
   \                     ??Cmd_P_Handle_0:
   \   000028   6401         XRL     A,#0x1
   \   00002A   700D         JNZ     ??Cmd_P_Handle_2
     76              WaterM.State = WATERM_RUN;
   \   00002C   90....       MOV     DPTR,#WaterM + 2
   \   00002F   7411         MOV     A,#0x11
   \   000031   F0           MOVX    @DPTR,A
     77              printf("智控开启\r\n");
   \   000032                ; Setup parameters for call to function printf
   \   000032   7A..         MOV     R2,#`?<Constant "\\326\\307\\277\\330\\277\\252\\306\\364\\r` & 0xff
   \   000034   7B..         MOV     R3,#(`?<Constant "\\326\\307\\277\\330\\277\\252\\306\\364\\r` >> 8) & 0xff
   \                     ??Cmd_P_Handle_1:
   \   000036   12....       LCALL   `??printf::?relay`   ; Banked call to: printf
     78            }
     79            ReportState();
   \                     ??Cmd_P_Handle_2:
   \   000039                ; Setup parameters for call to function ReportState
   \   000039   12....       LCALL   `??ReportState::?relay`; Banked call to: ReportState
     80            
     81            
     82          }
   \   00003C                REQUIRE ?Subroutine0
   \   00003C                ; // Fall through to label ?Subroutine0

   \                                 In  segment BANK_RELAYS, align 1
   \                     `??WaterMachine_Init::?relay`:
   \   000000   12....       LCALL   ?BDISPATCH
   \   000003   ......       DC24    WaterMachine_Init

   \                                 In  segment BANK_RELAYS, align 1
   \                     `??State_Check::?relay`:
   \   000000   12....       LCALL   ?BDISPATCH
   \   000003   ......       DC24    State_Check

   \                                 In  segment BANK_RELAYS, align 1
   \                     `??Cmd_P_Handle::?relay`:
   \   000000   12....       LCALL   ?BDISPATCH
   \   000003   ......       DC24    Cmd_P_Handle

   \                                 In  segment XDATA_ROM_C, align 1
   \                     `?<Constant "\\312\\325\\265\\275\\277\\330\\326\\306\\3`:
   \   000000   CAD5B5BD     DB "\312\325\265\275\277\330\326\306\303\374\301\356\015\012"
   \            BFD8D6C6
   \            C3FCC1EE
   \            0D0A00  

   \                                 In  segment XDATA_ROM_C, align 1
   \                     `?<Constant "\\326\\307\\277\\330\\271\\330\\261\\325\\r`:
   \   000000   D6C7BFD8     DB "\326\307\277\330\271\330\261\325\015\012"
   \            B9D8B1D5
   \            0D0A00  

   \                                 In  segment XDATA_ROM_C, align 1
   \                     `?<Constant "\\326\\307\\277\\330\\277\\252\\306\\364\\r`:
   \   000000   D6C7BFD8     DB "\326\307\277\330\277\252\306\364\015\012"
   \            BFAAC6F4
   \            0D0A00  

   Maximum stack usage in bytes:

   ISTACK XSTACK Function
   ------ ------ --------
      0      9   Cmd_P_Handle
        0      9   -> ReportState
        0      9   -> printf
      0      9   State_Check
        0      9   -> ReportState
      2      0   WaterMachine_Init


   Segment part sizes:

   Bytes  Function/Label
   -----  --------------
      15  ?<Constant "\312\325\265\275\277\330\326\306\3
      11  ?<Constant "\326\307\277\330\271\330\261\325\r
      11  ?<Constant "\326\307\277\330\277\252\306\364\r
       5  ?Subroutine0
      60  Cmd_P_Handle
       6  Cmd_P_Handle::?relay
       1  P0DIR
       1  P0SEL
       1  P1DIR
       1  P1SEL
      45  State_Check
       6  State_Check::?relay
       3  WaterM
      70  WaterMachine_Init
       6  WaterMachine_Init::?relay
       1  _A_P0
       1  _A_P1

 
 180 bytes in segment BANKED_CODE
  18 bytes in segment BANK_RELAYS
   6 bytes in segment SFR_AN
  37 bytes in segment XDATA_ROM_C
   3 bytes in segment XDATA_Z
 
 198 bytes of CODE  memory
  37 bytes of CONST memory
   0 bytes of DATA  memory (+ 6 bytes shared)
   3 bytes of XDATA memory

Errors: none
Warnings: none
