///////////////////////////////////////////////////////////////////////////////
//
// IAR C/C++ Compiler V9.30.1.3056 for 8051               31/Oct/2016  11:56:46
// Copyright 2004-2015 IAR Systems AB.
// Standalone license - IAR Embedded Workbench for 8051
//
//    Core               =  plain
//    Code model         =  banked
//    Data model         =  large
//    Calling convention =  xdata reentrant
//    Constant location  =  data_rom
//    Dptr setup         =  1,16
//                          
//    Source file        =  
//        E:\资源\个人项目\ZigbeeProject\Z-Stack Mesh
//        1.0.0\Projects\zstack\Samples\Demo_App_V2.03优化动态内存
//        -最后无错修改\Frame\ESP8266_Driver.c
//    Command line       =  
//        -f "E:\资源\个人项目\ZigbeeProject\Z-Stack Mesh
//        1.0.0\Projects\zstack\Samples\Demo_App_V2.03优化动态内存
//        -最后无错修改\CC2530DB\..\..\..\Tools\CC2530DB\f8wEndev.cfg"
//        (-DCPU32MHZ -DROOT=__near_func -DMAC_CFG_TX_DATA_MAX=3
//        -DMAC_CFG_TX_MAX=6 -DMAC_CFG_RX_MAX=3) -f
//        "E:\资源\个人项目\ZigbeeProject\Z-Stack Mesh
//        1.0.0\Projects\zstack\Samples\Demo_App_V2.03优化动态内存
//        -最后无错修改\CC2530DB\..\..\..\Tools\CC2530DB\f8wConfig.cfg"
//        (-DZIGBEEPRO -DSECURE=1 -DZG_SECURE_DYNAMIC=0 -DREFLECTOR
//        -DDEFAULT_CHANLIST=0x00000800 -DZDAPP_CONFIG_PAN_ID=0xFFFF
//        -DNWK_START_DELAY=100 -DEXTENDED_JOINING_RANDOM_MASK=0x007F
//        -DBEACON_REQUEST_DELAY=100 -DBEACON_REQ_DELAY_MASK=0x00FF
//        -DLINK_STATUS_JITTER_MASK=0x007F -DROUTE_EXPIRY_TIME=30
//        -DAPSC_ACK_WAIT_DURATION_POLLED=3000 -DNWK_INDIRECT_MSG_TIMEOUT=7
//        -DMAX_RREQ_ENTRIES=8 -DAPSC_MAX_FRAME_RETRIES=3
//        -DNWK_MAX_DATA_RETRIES=2 -DMAX_POLL_FAILURE_RETRIES=2 -DMAX_BCAST=9
//        -DAPS_MAX_GROUPS=16 -DMAX_RTG_ENTRIES=40 -DNWK_MAX_BINDING_ENTRIES=4
//        -DMAX_BINDING_CLUSTER_IDS=4 "-DDEFAULT_KEY={0x01, 0x03, 0x05, 0x07,
//        0x09, 0x0B, 0x0D, 0x0F, 0x00, 0x02, 0x04, 0x06, 0x08, 0x0A, 0x0C,
//        0x0D}" -DMAC_MAX_FRAME_SIZE=116 -DZDNWKMGR_MIN_TRANSMISSIONS=20
//        "-DCONST=const __code" -DGENERIC=__generic -DRFD_RCVC_ALWAYS_ON=FALSE
//        -DPOLL_RATE=50 -DQUEUED_POLL_RATE=100 -DRESPONSE_POLL_RATE=100)
//        -DREJOIN_POLL_RATE=440 "E:\资源\个人项目\ZigbeeProject\Z-Stack Mesh
//        1.0.0\Projects\zstack\Samples\Demo_App_V2.03优化动态内存
//        -最后无错修改\Frame\ESP8266_Driver.c" -D HAL_UART=TRUE -D
//        HAL_UART_ISR=1 -D HAL_UART_DMA=0 -D LOG_OUT -D
//        UART1_PROTOCOL_RESOLVER=1 -D xISQC -D NWK_AUTO_POLL -D xZTOOL_P1 -D
//        ISR_KEYINTERRUPT -D xMT_TASK -D xMT_SYS_FUNC -D xMT_ZDO_FUNC -D
//        xLCD_SUPPORTED=DEBUG -D xPOWER_SAVING -lC
//        "E:\资源\个人项目\ZigbeeProject\Z-Stack Mesh
//        1.0.0\Projects\zstack\Samples\Demo_App_V2.03优化动态内存
//        -最后无错修改\CC2530DB\WaterMachine\List" -lA
//        "E:\资源\个人项目\ZigbeeProject\Z-Stack Mesh
//        1.0.0\Projects\zstack\Samples\Demo_App_V2.03优化动态内存
//        -最后无错修改\CC2530DB\WaterMachine\List" --diag_suppress Pe001,Pa010
//        -o "E:\资源\个人项目\ZigbeeProject\Z-Stack Mesh
//        1.0.0\Projects\zstack\Samples\Demo_App_V2.03优化动态内存
//        -最后无错修改\CC2530DB\WaterMachine\Obj" -e --no_code_motion --debug
//        --core=plain --dptr=16,1 --data_model=large --code_model=banked
//        --calling_convention=xdata_reentrant --place_constants=data_rom
//        --nr_virtual_regs 8 -I "E:\资源\个人项目\ZigbeeProject\Z-Stack Mesh
//        1.0.0\Projects\zstack\Samples\Demo_App_V2.03优化动态内存
//        -最后无错修改\CC2530DB\" -I "E:\资源\个人项目\ZigbeeProject\Z-Stack
//        Mesh 1.0.0\Projects\zstack\Samples\Demo_App_V2.03优化动态内存
//        -最后无错修改\CC2530DB\..\Source\" -I
//        "E:\资源\个人项目\ZigbeeProject\Z-Stack Mesh
//        1.0.0\Projects\zstack\Samples\Demo_App_V2.03优化动态内存
//        -最后无错修改\CC2530DB\..\Frame\" -I
//        "E:\资源\个人项目\ZigbeeProject\Z-Stack Mesh
//        1.0.0\Projects\zstack\Samples\Demo_App_V2.03优化动态内存
//        -最后无错修改\CC2530DB\..\Module\WaterMachine\" -I
//        "E:\资源\个人项目\ZigbeeProject\Z-Stack Mesh
//        1.0.0\Projects\zstack\Samples\Demo_App_V2.03优化动态内存
//        -最后无错修改\CC2530DB\..\..\..\ZMain\TI2530DB\" -I
//        "E:\资源\个人项目\ZigbeeProject\Z-Stack Mesh
//        1.0.0\Projects\zstack\Samples\Demo_App_V2.03优化动态内存
//        -最后无错修改\CC2530DB\..\..\..\..\..\Components\hal\include\" -I
//        "E:\资源\个人项目\ZigbeeProject\Z-Stack Mesh
//        1.0.0\Projects\zstack\Samples\Demo_App_V2.03优化动态内存
//        -最后无错修改\CC2530DB\..\..\..\..\..\Components\hal\target\CC2530EB\"
//        -I "E:\资源\个人项目\ZigbeeProject\Z-Stack Mesh
//        1.0.0\Projects\zstack\Samples\Demo_App_V2.03优化动态内存
//        -最后无错修改\CC2530DB\..\..\..\..\..\Components\mac\include\" -I
//        "E:\资源\个人项目\ZigbeeProject\Z-Stack Mesh
//        1.0.0\Projects\zstack\Samples\Demo_App_V2.03优化动态内存
//        -最后无错修改\CC2530DB\..\..\..\..\..\Components\mac\high_level\" -I
//        "E:\资源\个人项目\ZigbeeProject\Z-Stack Mesh
//        1.0.0\Projects\zstack\Samples\Demo_App_V2.03优化动态内存
//        -最后无错修改\CC2530DB\..\..\..\..\..\Components\mac\low_level\srf04\"
//        -I "E:\资源\个人项目\ZigbeeProject\Z-Stack Mesh
//        1.0.0\Projects\zstack\Samples\Demo_App_V2.03优化动态内存
//        -最后无错修改\CC2530DB\..\..\..\..\..\Components\mac\low_level\srf04\single_chip\"
//        -I "E:\资源\个人项目\ZigbeeProject\Z-Stack Mesh
//        1.0.0\Projects\zstack\Samples\Demo_App_V2.03优化动态内存
//        -最后无错修改\CC2530DB\..\..\..\..\..\Components\mt\" -I
//        "E:\资源\个人项目\ZigbeeProject\Z-Stack Mesh
//        1.0.0\Projects\zstack\Samples\Demo_App_V2.03优化动态内存
//        -最后无错修改\CC2530DB\..\..\..\..\..\Components\osal\include\" -I
//        "E:\资源\个人项目\ZigbeeProject\Z-Stack Mesh
//        1.0.0\Projects\zstack\Samples\Demo_App_V2.03优化动态内存
//        -最后无错修改\CC2530DB\..\..\..\..\..\Components\services\saddr\" -I
//        "E:\资源\个人项目\ZigbeeProject\Z-Stack Mesh
//        1.0.0\Projects\zstack\Samples\Demo_App_V2.03优化动态内存
//        -最后无错修改\CC2530DB\..\..\..\..\..\Components\services\sdata\" -I
//        "E:\资源\个人项目\ZigbeeProject\Z-Stack Mesh
//        1.0.0\Projects\zstack\Samples\Demo_App_V2.03优化动态内存
//        -最后无错修改\CC2530DB\..\..\..\..\..\Components\stack\af\" -I
//        "E:\资源\个人项目\ZigbeeProject\Z-Stack Mesh
//        1.0.0\Projects\zstack\Samples\Demo_App_V2.03优化动态内存
//        -最后无错修改\CC2530DB\..\..\..\..\..\Components\stack\nwk\" -I
//        "E:\资源\个人项目\ZigbeeProject\Z-Stack Mesh
//        1.0.0\Projects\zstack\Samples\Demo_App_V2.03优化动态内存
//        -最后无错修改\CC2530DB\..\..\..\..\..\Components\stack\sapi\" -I
//        "E:\资源\个人项目\ZigbeeProject\Z-Stack Mesh
//        1.0.0\Projects\zstack\Samples\Demo_App_V2.03优化动态内存
//        -最后无错修改\CC2530DB\..\..\..\..\..\Components\stack\sec\" -I
//        "E:\资源\个人项目\ZigbeeProject\Z-Stack Mesh
//        1.0.0\Projects\zstack\Samples\Demo_App_V2.03优化动态内存
//        -最后无错修改\CC2530DB\..\..\..\..\..\Components\stack\sys\" -I
//        "E:\资源\个人项目\ZigbeeProject\Z-Stack Mesh
//        1.0.0\Projects\zstack\Samples\Demo_App_V2.03优化动态内存
//        -最后无错修改\CC2530DB\..\..\..\..\..\Components\stack\zdo\" -I
//        "E:\资源\个人项目\ZigbeeProject\Z-Stack Mesh
//        1.0.0\Projects\zstack\Samples\Demo_App_V2.03优化动态内存
//        -最后无错修改\CC2530DB\..\..\..\..\..\Components\zmac\" -I
//        "E:\资源\个人项目\ZigbeeProject\Z-Stack Mesh
//        1.0.0\Projects\zstack\Samples\Demo_App_V2.03优化动态内存
//        -最后无错修改\CC2530DB\..\..\..\..\..\Components\zmac\f8w\" -Ohz
//    List file          =  
//        E:\资源\个人项目\ZigbeeProject\Z-Stack Mesh
//        1.0.0\Projects\zstack\Samples\Demo_App_V2.03优化动态内存
//        -最后无错修改\CC2530DB\WaterMachine\List\ESP8266_Driver.s51
//
///////////////////////////////////////////////////////////////////////////////

        NAME ESP8266_Driver

        RTMODEL "__SystemLibrary", "CLib"
        RTMODEL "__calling_convention", "xdata_reentrant"
        RTMODEL "__code_model", "banked"
        RTMODEL "__core", "plain"
        RTMODEL "__data_model", "large"
        RTMODEL "__dptr_size", "16"
        RTMODEL "__extended_stack", "disabled"
        RTMODEL "__iar_require _formatted_write", "unknown"
        RTMODEL "__location_for_constants", "data"
        RTMODEL "__number_of_dptrs", "1"
        RTMODEL "__rt_version", "1"

        RSEG DOVERLAY:DATA:NOROOT(0)
        RSEG IOVERLAY:IDATA:NOROOT(0)
        RSEG ISTACK:IDATA:NOROOT(0)
        RSEG PSTACK:XDATA:NOROOT(0)
        RSEG XSTACK:XDATA:NOROOT(0)

        EXTERN ?V0
        EXTERN ?V1
        EXTERN ?V2
        EXTERN ?V3
        EXTERN ?V4
        EXTERN ?V5
        EXTERN ?ALLOC_XSTACK8
        EXTERN ?BANKED_ENTER_XDATA
        EXTERN ?BANKED_LEAVE_XDATA
        EXTERN ?BDISPATCH
        EXTERN ?BRET
        EXTERN ?CALL_IND
        EXTERN ?DEALLOC_XSTACK8
        EXTERN ?MOVE_LONG8_XDATA_XDATA
        EXTERN ?PUSH_XSTACK_I_TWO
        EXTERN ?S_SHL
        EXTERN ?XSP
        EXTERN ?XSTACK_DISP100_8
        EXTERN ?XSTACK_DISP101_8
        EXTERN ?XSTACK_DISP102_8
        EXTERN __INIT_XDATA_I
        EXTERN __INIT_XDATA_Z

        PUBLIC `??ESP8266_CMD_Send::?relay`
        FUNCTION `??ESP8266_CMD_Send::?relay`,0203H
        PUBLIC `??ESP8266_Data_Send::?relay`
        FUNCTION `??ESP8266_Data_Send::?relay`,0203H
        PUBLIC `??ESP8266_Init::?relay`
        FUNCTION `??ESP8266_Init::?relay`,0203H
        PUBLIC `??ESP8266_Poll::?relay`
        FUNCTION `??ESP8266_Poll::?relay`,0203H
        PUBLIC `??ESP8266_Protocol_Send::?relay`
        FUNCTION `??ESP8266_Protocol_Send::?relay`,0203H
        PUBLIC `??ESP8266_Run::?relay`
        FUNCTION `??ESP8266_Run::?relay`,0203H
        PUBLIC `??SetSsidPwd::?relay`
        FUNCTION `??SetSsidPwd::?relay`,0203H
        PUBLIC ESP8266_CMD_Send
        FUNCTION ESP8266_CMD_Send,0a1203H
        ARGFRAME XSTACK, 94, STACK
        ARGFRAME IOVERLAY, 0, STATIC
        ARGFRAME DOVERLAY, 0, STATIC
        LOCFRAME XSTACK, 12, STACK
        PUBLIC ESP8266_CONN
        PUBLIC ESP8266_Conn_Flag
        PUBLIC ESP8266_Data_Send
        FUNCTION ESP8266_Data_Send,0a1603H
        ARGFRAME XSTACK, 0, STACK
        LOCFRAME XSTACK, 30, STACK
        PUBLIC ESP8266_Init
        FUNCTION ESP8266_Init,021203H
        ARGFRAME XSTACK, 0, STACK
        LOCFRAME ISTACK, 2, STACK
        PUBLIC ESP8266_Pack_Buff
        PUBLIC ESP8266_Pack_Queue
        PUBLIC ESP8266_Poll
        FUNCTION ESP8266_Poll,0a1203H
        ARGFRAME XSTACK, 0, STACK
        LOCFRAME XSTACK, 10, STACK
        PUBLIC ESP8266_Protocol_Send
        FUNCTION ESP8266_Protocol_Send,021203H
        ARGFRAME XSTACK, 0, STACK
        LOCFRAME ISTACK, 2, STACK
        PUBLIC ESP8266_Run
        FUNCTION ESP8266_Run,021203H
        ARGFRAME XSTACK, 0, STACK
        LOCFRAME ISTACK, 2, STACK
        PUBLIC ESP8266_Section
        PUBLIC ESP8266_State
        PUBLIC ESP_8266_CMD
        PUBLIC ESP_Change
        PUBLIC SetSsidPwd
        FUNCTION SetSsidPwd,0a1203H
        ARGFRAME XSTACK, 0, STACK
        LOCFRAME XSTACK, 98, STACK
        PUBLIC pack
        
          CFI Names cfiNames0
          CFI StackFrame CFA_SP SP IDATA
          CFI StackFrame CFA_PSP16 PSP16 XDATA
          CFI StackFrame CFA_XSP16 XSP16 XDATA
          CFI StaticOverlayFrame CFA_IOVERLAY IOVERLAY
          CFI StaticOverlayFrame CFA_DOVERLAY DOVERLAY
          CFI Resource `PSW.CY`:1, `B.BR0`:1, `B.BR1`:1, `B.BR2`:1, `B.BR3`:1
          CFI Resource `B.BR4`:1, `B.BR5`:1, `B.BR6`:1, `B.BR7`:1, `VB.BR8`:1
          CFI Resource `VB.BR9`:1, `VB.BR10`:1, `VB.BR11`:1, `VB.BR12`:1
          CFI Resource `VB.BR13`:1, `VB.BR14`:1, `VB.BR15`:1, VB:8, B:8, A:8
          CFI Resource PSW:8, DPL0:8, DPH0:8, R0:8, R1:8, R2:8, R3:8, R4:8, R5:8
          CFI Resource R6:8, R7:8, V0:8, V1:8, V2:8, V3:8, V4:8, V5:8, V6:8, V7:8
          CFI Resource SP:8, PSPH:8, PSPL:8, PSP16:16, XSPH:8, XSPL:8, XSP16:16
          CFI VirtualResource ?RET:24
          CFI Resource ?BRET_EXT:8
          CFI VirtualResource ?RET_HIGH:8, ?RET_LOW:8
          CFI ResourceParts PSP16 PSPH, PSPL
          CFI ResourceParts XSP16 XSPH, XSPL
          CFI ResourceParts ?RET ?BRET_EXT, ?RET_HIGH, ?RET_LOW
          CFI EndNames cfiNames0
        
          CFI Common cfiCommon0 Using cfiNames0
          CFI CodeAlign 1
          CFI DataAlign -1
          CFI ReturnAddress ?RET CODE
          CFI CFA_DOVERLAY Used
          CFI CFA_IOVERLAY Used
          CFI CFA_SP SP+-3
          CFI CFA_PSP16 PSP16+0
          CFI CFA_XSP16 XSP16+0
          CFI `PSW.CY` SameValue
          CFI `B.BR0` SameValue
          CFI `B.BR1` SameValue
          CFI `B.BR2` SameValue
          CFI `B.BR3` SameValue
          CFI `B.BR4` SameValue
          CFI `B.BR5` SameValue
          CFI `B.BR6` SameValue
          CFI `B.BR7` SameValue
          CFI `VB.BR8` SameValue
          CFI `VB.BR9` SameValue
          CFI `VB.BR10` SameValue
          CFI `VB.BR11` SameValue
          CFI `VB.BR12` SameValue
          CFI `VB.BR13` SameValue
          CFI `VB.BR14` SameValue
          CFI `VB.BR15` SameValue
          CFI VB SameValue
          CFI B Undefined
          CFI A Undefined
          CFI PSW SameValue
          CFI DPL0 SameValue
          CFI DPH0 SameValue
          CFI R0 Undefined
          CFI R1 Undefined
          CFI R2 Undefined
          CFI R3 Undefined
          CFI R4 Undefined
          CFI R5 Undefined
          CFI R6 SameValue
          CFI R7 SameValue
          CFI V0 SameValue
          CFI V1 SameValue
          CFI V2 SameValue
          CFI V3 SameValue
          CFI V4 SameValue
          CFI V5 SameValue
          CFI V6 SameValue
          CFI V7 SameValue
          CFI PSPH Undefined
          CFI PSPL Undefined
          CFI XSPH Undefined
          CFI XSPL Undefined
          CFI ?RET Concat
          CFI ?BRET_EXT Frame(CFA_SP, 3)
          CFI ?RET_HIGH Frame(CFA_SP, 2)
          CFI ?RET_LOW Frame(CFA_SP, 1)
          CFI EndCommon cfiCommon0
        
        
          CFI Common cfiCommon1 Using cfiNames0
          CFI CodeAlign 1
          CFI DataAlign -1
          CFI ReturnAddress ?RET CODE
          CFI CFA_DOVERLAY Used
          CFI CFA_IOVERLAY Used
          CFI CFA_SP SP+-2
          CFI CFA_PSP16 PSP16+0
          CFI CFA_XSP16 XSP16+0
          CFI `PSW.CY` SameValue
          CFI `B.BR0` SameValue
          CFI `B.BR1` SameValue
          CFI `B.BR2` SameValue
          CFI `B.BR3` SameValue
          CFI `B.BR4` SameValue
          CFI `B.BR5` SameValue
          CFI `B.BR6` SameValue
          CFI `B.BR7` SameValue
          CFI `VB.BR8` SameValue
          CFI `VB.BR9` SameValue
          CFI `VB.BR10` SameValue
          CFI `VB.BR11` SameValue
          CFI `VB.BR12` SameValue
          CFI `VB.BR13` SameValue
          CFI `VB.BR14` SameValue
          CFI `VB.BR15` SameValue
          CFI VB SameValue
          CFI B SameValue
          CFI A SameValue
          CFI PSW SameValue
          CFI DPL0 SameValue
          CFI DPH0 SameValue
          CFI R0 SameValue
          CFI R1 SameValue
          CFI R2 SameValue
          CFI R3 SameValue
          CFI R4 SameValue
          CFI R5 SameValue
          CFI R6 SameValue
          CFI R7 SameValue
          CFI V0 SameValue
          CFI V1 SameValue
          CFI V2 SameValue
          CFI V3 SameValue
          CFI V4 SameValue
          CFI V5 SameValue
          CFI V6 SameValue
          CFI V7 SameValue
          CFI PSPH Undefined
          CFI PSPL Undefined
          CFI XSPH Undefined
          CFI XSPL Undefined
          CFI ?RET Concat
          CFI ?BRET_EXT SameValue
          CFI ?RET_HIGH Frame(CFA_SP, 2)
          CFI ?RET_LOW Frame(CFA_SP, 1)
          CFI EndCommon cfiCommon1
        
HalUARTWrite        SYMBOL "HalUARTWrite"
`??HalUARTWrite::?relay` SYMBOL "?relay", HalUARTWrite
Protocol_Send_Transpond SYMBOL "Protocol_Send_Transpond"
`??Protocol_Send_Transpond::?relay` SYMBOL "?relay", Protocol_Send_Transpond
Queue_Get           SYMBOL "Queue_Get"
`??Queue_Get::?relay` SYMBOL "?relay", Queue_Get
Queue_Init          SYMBOL "Queue_Init"
`??Queue_Init::?relay` SYMBOL "?relay", Queue_Init
Queue_Put           SYMBOL "Queue_Put"
`??Queue_Put::?relay` SYMBOL "?relay", Queue_Put
memcpy              SYMBOL "memcpy"
`??memcpy::?relay`  SYMBOL "?relay", memcpy
osal_mem_alloc      SYMBOL "osal_mem_alloc"
`??osal_mem_alloc::?relay` SYMBOL "?relay", osal_mem_alloc
osal_mem_free       SYMBOL "osal_mem_free"
`??osal_mem_free::?relay` SYMBOL "?relay", osal_mem_free
printf              SYMBOL "printf"
`??printf::?relay`  SYMBOL "?relay", printf
sprintf             SYMBOL "sprintf"
`??sprintf::?relay` SYMBOL "?relay", sprintf
strlen              SYMBOL "strlen"
`??strlen::?relay`  SYMBOL "?relay", strlen
strstr              SYMBOL "strstr"
`??strstr::?relay`  SYMBOL "?relay", strstr
ESP8266_CMD_Send    SYMBOL "ESP8266_CMD_Send"
`??ESP8266_CMD_Send::?relay` SYMBOL "?relay", ESP8266_CMD_Send
ESP8266_Data_Send   SYMBOL "ESP8266_Data_Send"
`??ESP8266_Data_Send::?relay` SYMBOL "?relay", ESP8266_Data_Send
ESP8266_Init        SYMBOL "ESP8266_Init"
`??ESP8266_Init::?relay` SYMBOL "?relay", ESP8266_Init
ESP8266_Poll        SYMBOL "ESP8266_Poll"
`??ESP8266_Poll::?relay` SYMBOL "?relay", ESP8266_Poll
ESP8266_Protocol_Send SYMBOL "ESP8266_Protocol_Send"
`??ESP8266_Protocol_Send::?relay` SYMBOL "?relay", ESP8266_Protocol_Send
ESP8266_Run         SYMBOL "ESP8266_Run"
`??ESP8266_Run::?relay` SYMBOL "?relay", ESP8266_Run
SetSsidPwd          SYMBOL "SetSsidPwd"
`??SetSsidPwd::?relay` SYMBOL "?relay", SetSsidPwd

        EXTERN `??HalUARTWrite::?relay`
        FUNCTION `??HalUARTWrite::?relay`,00H
        EXTERN `??Protocol_Send_Transpond::?relay`
        FUNCTION `??Protocol_Send_Transpond::?relay`,00H
        EXTERN `??Queue_Get::?relay`
        FUNCTION `??Queue_Get::?relay`,00H
        EXTERN `??Queue_Init::?relay`
        FUNCTION `??Queue_Init::?relay`,00H
        EXTERN `??Queue_Put::?relay`
        FUNCTION `??Queue_Put::?relay`,00H
        EXTERN `??memcpy::?relay`
        FUNCTION `??memcpy::?relay`,00H
        EXTERN `??osal_mem_alloc::?relay`
        FUNCTION `??osal_mem_alloc::?relay`,00H
        EXTERN `??osal_mem_free::?relay`
        FUNCTION `??osal_mem_free::?relay`,00H
        EXTERN `??printf::?relay`
        FUNCTION `??printf::?relay`,00H
        EXTERN `??sprintf::?relay`
        FUNCTION `??sprintf::?relay`,00H
        EXTERN `??strlen::?relay`
        FUNCTION `??strlen::?relay`,00H
        EXTERN `??strstr::?relay`
        FUNCTION `??strstr::?relay`,00H
        EXTERN HalUARTWrite
        FUNCTION HalUARTWrite,0202H
        ARGFRAME ISTACK, 2, STACK
        ARGFRAME PSTACK, 0, STACK
        ARGFRAME XSTACK, 0, STACK
        ARGFRAME IOVERLAY, 0, STATIC
        ARGFRAME DOVERLAY, 0, STATIC
        EXTERN Log
        EXTERN Protocol_Send_Transpond
        FUNCTION Protocol_Send_Transpond,0202H
        ARGFRAME ISTACK, 2, STACK
        ARGFRAME PSTACK, 0, STACK
        ARGFRAME XSTACK, 0, STACK
        ARGFRAME IOVERLAY, 0, STATIC
        ARGFRAME DOVERLAY, 0, STATIC
        EXTERN Queue_Get
        FUNCTION Queue_Get,0202H
        ARGFRAME ISTACK, 2, STACK
        ARGFRAME PSTACK, 0, STACK
        ARGFRAME XSTACK, 0, STACK
        ARGFRAME IOVERLAY, 0, STATIC
        ARGFRAME DOVERLAY, 0, STATIC
        EXTERN Queue_Init
        FUNCTION Queue_Init,0202H
        ARGFRAME ISTACK, 2, STACK
        ARGFRAME PSTACK, 0, STACK
        ARGFRAME XSTACK, 0, STACK
        ARGFRAME IOVERLAY, 0, STATIC
        ARGFRAME DOVERLAY, 0, STATIC
        EXTERN Queue_Put
        FUNCTION Queue_Put,0202H
        ARGFRAME ISTACK, 0, STACK
        ARGFRAME PSTACK, 0, STACK
        ARGFRAME XSTACK, 12, STACK
        ARGFRAME IOVERLAY, 0, STATIC
        ARGFRAME DOVERLAY, 0, STATIC
        EXTERN memcpy
        FUNCTION memcpy,010202H
        ARGFRAME ISTACK, 0, STACK
        ARGFRAME PSTACK, 0, STACK
        ARGFRAME XSTACK, 96, STACK
        ARGFRAME IOVERLAY, 0, STATIC
        ARGFRAME DOVERLAY, 0, STATIC
        EXTERN osal_mem_alloc
        FUNCTION osal_mem_alloc,0202H
        ARGFRAME ISTACK, 2, STACK
        ARGFRAME PSTACK, 0, STACK
        ARGFRAME XSTACK, 12, STACK
        ARGFRAME IOVERLAY, 0, STATIC
        ARGFRAME DOVERLAY, 0, STATIC
        EXTERN osal_mem_free
        FUNCTION osal_mem_free,0202H
        ARGFRAME ISTACK, 2, STACK
        ARGFRAME PSTACK, 0, STACK
        ARGFRAME XSTACK, 0, STACK
        ARGFRAME IOVERLAY, 0, STATIC
        ARGFRAME DOVERLAY, 0, STATIC
        EXTERN printf
        FUNCTION printf,0202H
        ARGFRAME ISTACK, 0, STACK
        ARGFRAME PSTACK, 0, STACK
        ARGFRAME XSTACK, 30, STACK
        ARGFRAME IOVERLAY, 0, STATIC
        ARGFRAME DOVERLAY, 0, STATIC
        EXTERN sprintf
        FUNCTION sprintf,0202H
        ARGFRAME ISTACK, 0, STACK
        ARGFRAME PSTACK, 0, STACK
        ARGFRAME XSTACK, 98, STACK
        ARGFRAME IOVERLAY, 0, STATIC
        ARGFRAME DOVERLAY, 0, STATIC
        EXTERN strlen
        FUNCTION strlen,010202H
        ARGFRAME ISTACK, 0, STACK
        ARGFRAME PSTACK, 0, STACK
        ARGFRAME XSTACK, 94, STACK
        ARGFRAME IOVERLAY, 0, STATIC
        ARGFRAME DOVERLAY, 0, STATIC
        EXTERN strstr
        FUNCTION strstr,010202H
        ARGFRAME ISTACK, 0, STACK
        ARGFRAME PSTACK, 0, STACK
        ARGFRAME XSTACK, 10, STACK
        ARGFRAME IOVERLAY, 0, STATIC
        ARGFRAME DOVERLAY, 0, STATIC

// E:\资源\个人项目\ZigbeeProject\Z-Stack Mesh 1.0.0\Projects\zstack\Samples\Demo_App_V2.03优化动态内存 -最后无错修改\Frame\ESP8266_Driver.c
//    1 #include "ESP8266_Driver.h"
//    2 #include "hal_uart.h"
//    3 #include "OnBoard.h"
//    4 #include <stdio.h>
//    5 

        RSEG XDATA_I:XDATA:NOROOT(0)
//    6 ESP8266_CMD_T ESP_8266_CMD = {
ESP_8266_CMD:
        DATA8
        DS 10
        REQUIRE `?<Initializer for ESP_8266_CMD>`
        REQUIRE __INIT_XDATA_I
//    7     "AT+CWMODE=%d\r\n",
//    8     "AT+CWJAP=\"%s\",\"%s\"\r\n",
//    9     "AT+CIPMUX=1\r\n",
//   10     "AT+CIPSERVER=1,8080\r\n",
//   11     "AT+CIPSEND=%d,%d\r\n"
//   12 };
//   13 
//   14 

        RSEG XDATA_Z:XDATA:NOROOT(0)
        DATA16
//   15 QUEUE_T* ESP8266_Pack_Queue;
ESP8266_Pack_Queue:
        DS 2
        REQUIRE __INIT_XDATA_Z

        RSEG XDATA_Z:XDATA:NOROOT(0)
        DATA16
//   16 uint8_t* ESP8266_Pack_Buff;
ESP8266_Pack_Buff:
        DS 2
        REQUIRE __INIT_XDATA_Z
//   17 

        RSEG XDATA_Z:XDATA:NOROOT(0)
        DATA8
//   18 ESP8266_STATE ESP8266_State = ESP8266_BUSY; 
ESP8266_State:
        DS 1
        REQUIRE __INIT_XDATA_Z

        RSEG XDATA_Z:XDATA:NOROOT(0)
        DATA8
//   19 ESP8266_SECTION ESP8266_Section = ESP8266_INIT; 
ESP8266_Section:
        DS 1
        REQUIRE __INIT_XDATA_Z

        RSEG XDATA_Z:XDATA:NOROOT(0)
        DATA8
//   20 uint8_t ESP8266_CONN[CONN_COUNT] = {0}; 
ESP8266_CONN:
        DS 5
        REQUIRE __INIT_XDATA_Z

        RSEG XDATA_Z:XDATA:NOROOT(0)
        DATA8
//   21 uint8_t ESP_Change = 0;
ESP_Change:
        DS 1
        REQUIRE __INIT_XDATA_Z

        RSEG XDATA_Z:XDATA:NOROOT(0)
        DATA8
//   22 uint8_t ESP8266_Conn_Flag = 0;
ESP8266_Conn_Flag:
        DS 1
        REQUIRE __INIT_XDATA_Z

        RSEG XDATA_Z:XDATA:NOROOT(0)
        DATA8
//   23 ESP8266_Pack_T pack = {0};
pack:
        DS 3
        REQUIRE __INIT_XDATA_Z
//   24 
//   25 
//   26 
//   27 

        RSEG BANKED_CODE:CODE:NOROOT(0)
//   28 void ESP8266_Init(void){
ESP8266_Init:
          CFI Block cfiBlock0 Using cfiCommon0
          CFI Function ESP8266_Init
        CODE
        FUNCALL ESP8266_Init, osal_mem_alloc
        LOCFRAME ISTACK, 2, STACK
        LOCFRAME PSTACK, 0, STACK
        LOCFRAME XSTACK, 0, STACK
        LOCFRAME IOVERLAY, 0, STATIC
        LOCFRAME DOVERLAY, 0, STATIC
        ARGFRAME ISTACK, 2, STACK
        ARGFRAME PSTACK, 0, STACK
        ARGFRAME XSTACK, 0, STACK
        ARGFRAME IOVERLAY, 0, STATIC
        ARGFRAME DOVERLAY, 0, STATIC
        FUNCALL ESP8266_Init, Queue_Init
        LOCFRAME ISTACK, 2, STACK
        LOCFRAME PSTACK, 0, STACK
        LOCFRAME XSTACK, 0, STACK
        LOCFRAME IOVERLAY, 0, STATIC
        LOCFRAME DOVERLAY, 0, STATIC
        ARGFRAME ISTACK, 2, STACK
        ARGFRAME PSTACK, 0, STACK
        ARGFRAME XSTACK, 0, STACK
        ARGFRAME IOVERLAY, 0, STATIC
        ARGFRAME DOVERLAY, 0, STATIC
        PUSH    DPL
          CFI DPL0 Frame(CFA_SP, 4)
          CFI CFA_SP SP+-4
        PUSH    DPH
          CFI DPH0 Frame(CFA_SP, 5)
          CFI CFA_SP SP+-5
        ; Saved register size: 2
        ; Auto size: 0
//   29     ESP8266_Pack_Buff = (uint8_t*)osal_mem_alloc(ESP8266_PACK_LEN * sizeof(ESP8266_Pack_T));
        ; Setup parameters for call to function osal_mem_alloc
        MOV     R2,#0x5a
        MOV     R3,#0x0
        LCALL   `??osal_mem_alloc::?relay`; Banked call to: osal_mem_alloc
        MOV     DPTR,#ESP8266_Pack_Buff
        MOV     A,R2
        MOVX    @DPTR,A
        INC     DPTR
        MOV     A,R3
        MOVX    @DPTR,A
//   30     ESP8266_Pack_Queue = Queue_Init(ESP8266_Pack_Buff , sizeof(ESP8266_Pack_T), ESP8266_PACK_LEN); 
        ; Setup parameters for call to function Queue_Init
        MOV     R4,#0x1e
        MOV     R5,#0x0
        MOV     R1,#0x3
        LCALL   `??Queue_Init::?relay`; Banked call to: Queue_Init
        MOV     DPTR,#ESP8266_Pack_Queue
        MOV     A,R2
        MOVX    @DPTR,A
        INC     DPTR
        MOV     A,R3
        MOVX    @DPTR,A
//   31 }
          CFI EndBlock cfiBlock0
        REQUIRE ?Subroutine0
        ; // Fall through to label ?Subroutine0

        RSEG BANKED_CODE:CODE:NOROOT(0)
?Subroutine0:
          CFI Block cfiBlock1 Using cfiCommon0
          CFI NoFunction
          CFI CFA_SP SP+-5
          CFI DPL0 Frame(CFA_SP, 4)
          CFI DPH0 Frame(CFA_SP, 5)
        POP     DPH
          CFI CFA_SP SP+-4
          CFI DPH0 SameValue
        POP     DPL
          CFI CFA_SP SP+-3
          CFI DPL0 SameValue
        LJMP    ?BRET
          CFI EndBlock cfiBlock1
//   32 

        RSEG BANKED_CODE:CODE:NOROOT(0)
//   33 void ESP8266_Poll(uint8_t* data, uint8_t len){
ESP8266_Poll:
          CFI Block cfiBlock2 Using cfiCommon0
          CFI Function ESP8266_Poll
        CODE
        FUNCALL ESP8266_Poll, strstr
        LOCFRAME ISTACK, 0, STACK
        LOCFRAME PSTACK, 0, STACK
        LOCFRAME XSTACK, 10, STACK
        LOCFRAME IOVERLAY, 0, STATIC
        LOCFRAME DOVERLAY, 0, STATIC
        ARGFRAME ISTACK, 0, STACK
        ARGFRAME PSTACK, 0, STACK
        ARGFRAME XSTACK, 10, STACK
        ARGFRAME IOVERLAY, 0, STATIC
        ARGFRAME DOVERLAY, 0, STATIC
        FUNCALL ESP8266_Poll, strstr
        LOCFRAME ISTACK, 0, STACK
        LOCFRAME PSTACK, 0, STACK
        LOCFRAME XSTACK, 10, STACK
        LOCFRAME IOVERLAY, 0, STATIC
        LOCFRAME DOVERLAY, 0, STATIC
        ARGFRAME ISTACK, 0, STACK
        ARGFRAME PSTACK, 0, STACK
        ARGFRAME XSTACK, 10, STACK
        ARGFRAME IOVERLAY, 0, STATIC
        ARGFRAME DOVERLAY, 0, STATIC
        FUNCALL ESP8266_Poll, strstr
        LOCFRAME ISTACK, 0, STACK
        LOCFRAME PSTACK, 0, STACK
        LOCFRAME XSTACK, 10, STACK
        LOCFRAME IOVERLAY, 0, STATIC
        LOCFRAME DOVERLAY, 0, STATIC
        ARGFRAME ISTACK, 0, STACK
        ARGFRAME PSTACK, 0, STACK
        ARGFRAME XSTACK, 10, STACK
        ARGFRAME IOVERLAY, 0, STATIC
        ARGFRAME DOVERLAY, 0, STATIC
        FUNCALL ESP8266_Poll, strstr
        LOCFRAME ISTACK, 0, STACK
        LOCFRAME PSTACK, 0, STACK
        LOCFRAME XSTACK, 10, STACK
        LOCFRAME IOVERLAY, 0, STATIC
        LOCFRAME DOVERLAY, 0, STATIC
        ARGFRAME ISTACK, 0, STACK
        ARGFRAME PSTACK, 0, STACK
        ARGFRAME XSTACK, 10, STACK
        ARGFRAME IOVERLAY, 0, STATIC
        ARGFRAME DOVERLAY, 0, STATIC
        FUNCALL ESP8266_Poll, strstr
        LOCFRAME ISTACK, 0, STACK
        LOCFRAME PSTACK, 0, STACK
        LOCFRAME XSTACK, 10, STACK
        LOCFRAME IOVERLAY, 0, STATIC
        LOCFRAME DOVERLAY, 0, STATIC
        ARGFRAME ISTACK, 0, STACK
        ARGFRAME PSTACK, 0, STACK
        ARGFRAME XSTACK, 10, STACK
        ARGFRAME IOVERLAY, 0, STATIC
        ARGFRAME DOVERLAY, 0, STATIC
        FUNCALL ESP8266_Poll, strstr
        LOCFRAME ISTACK, 0, STACK
        LOCFRAME PSTACK, 0, STACK
        LOCFRAME XSTACK, 10, STACK
        LOCFRAME IOVERLAY, 0, STATIC
        LOCFRAME DOVERLAY, 0, STATIC
        ARGFRAME ISTACK, 0, STACK
        ARGFRAME PSTACK, 0, STACK
        ARGFRAME XSTACK, 10, STACK
        ARGFRAME IOVERLAY, 0, STATIC
        ARGFRAME DOVERLAY, 0, STATIC
        FUNCALL ESP8266_Poll, strstr
        LOCFRAME ISTACK, 0, STACK
        LOCFRAME PSTACK, 0, STACK
        LOCFRAME XSTACK, 10, STACK
        LOCFRAME IOVERLAY, 0, STATIC
        LOCFRAME DOVERLAY, 0, STATIC
        ARGFRAME ISTACK, 0, STACK
        ARGFRAME PSTACK, 0, STACK
        ARGFRAME XSTACK, 10, STACK
        ARGFRAME IOVERLAY, 0, STATIC
        ARGFRAME DOVERLAY, 0, STATIC
        FUNCALL ESP8266_Poll, strstr
        LOCFRAME ISTACK, 0, STACK
        LOCFRAME PSTACK, 0, STACK
        LOCFRAME XSTACK, 10, STACK
        LOCFRAME IOVERLAY, 0, STATIC
        LOCFRAME DOVERLAY, 0, STATIC
        ARGFRAME ISTACK, 0, STACK
        ARGFRAME PSTACK, 0, STACK
        ARGFRAME XSTACK, 10, STACK
        ARGFRAME IOVERLAY, 0, STATIC
        ARGFRAME DOVERLAY, 0, STATIC
        REQUIRE ?V0
        REQUIRE ?V1
        MOV     A,#-0xa
        LCALL   ?BANKED_ENTER_XDATA
          CFI DPH0 load(1, XDATA, add(CFA_XSP16, literal(-1)))
          CFI DPL0 load(1, XDATA, add(CFA_XSP16, literal(-2)))
          CFI ?BRET_EXT load(1, XDATA, add(CFA_XSP16, literal(-3)))
          CFI ?RET_HIGH load(1, XDATA, add(CFA_XSP16, literal(-4)))
          CFI ?RET_LOW load(1, XDATA, add(CFA_XSP16, literal(-5)))
          CFI R7 load(1, XDATA, add(CFA_XSP16, literal(-6)))
          CFI V1 load(1, XDATA, add(CFA_XSP16, literal(-7)))
          CFI V0 load(1, XDATA, add(CFA_XSP16, literal(-8)))
          CFI VB load(1, XDATA, add(CFA_XSP16, literal(-9)))
          CFI R6 load(1, XDATA, add(CFA_XSP16, literal(-10)))
          CFI CFA_SP SP+0
          CFI CFA_XSP16 add(XSP16, 10)
        ; Saved register size: 10
        ; Auto size: 0
        MOV     A,R2
        MOV     R6,A
        MOV     A,R3
        MOV     R7,A
//   34   if(ESP8266_Section == ESP8266_INIT){
        MOV     DPTR,#ESP8266_Section
        MOVX    A,@DPTR
        JNZ     ??ESP8266_Poll_0
//   35       if(strstr((char const*)data,"ready") != NULL || strstr((char const*)data,"OK") != NULL){
        ; Setup parameters for call to function strstr
        MOV     R4,#`?<Constant "ready">` & 0xff
        MOV     R5,#(`?<Constant "ready">` >> 8) & 0xff
        LCALL   `??strstr::?relay`   ; Banked call to: strstr
        MOV     ?V1,R3
        MOV     A,R2
        ORL     A,?V1
        JNZ     ??ESP8266_Poll_1
        ; Setup parameters for call to function strstr
        MOV     R4,#`?<Constant "OK">` & 0xff
        MOV     R5,#(`?<Constant "OK">` >> 8) & 0xff
        MOV     A,R6
        MOV     R2,A
        MOV     A,R7
        MOV     R3,A
        LCALL   `??strstr::?relay`   ; Banked call to: strstr
        MOV     ?V1,R3
        MOV     A,R2
        ORL     A,?V1
        JZ      ??ESP8266_Poll_2
//   36         Log.waring("路由器启动完成\r\n");   
??ESP8266_Poll_1:
        ; Setup parameters for indirect call
        MOV     R2,#`?<Constant "\\302\\267\\323\\311\\306\\367\\306\\364\\2` & 0xff
        MOV     R3,#(`?<Constant "\\302\\267\\323\\311\\306\\367\\306\\364\\2` >> 8) & 0xff
        LCALL   ?Subroutine6 & 0xFFFF
??CrossCallReturnLabel_8:
        LCALL   ?CALL_IND
//   37         ESP8266_Section = ESP8266_CONF;
        MOV     DPTR,#ESP8266_Section
        MOV     A,#0x1
        MOVX    @DPTR,A
//   38         ESP8266_State = ESP8266_READY;
        MOV     DPTR,#ESP8266_State
        LJMP    ??ESP8266_Poll_3 & 0xFFFF
//   39       }else if(strstr((char const*)data,"WIFI GOT IP") != NULL){
??ESP8266_Poll_2:
        ; Setup parameters for call to function strstr
        MOV     R4,#`?<Constant "WIFI GOT IP">` & 0xff
        MOV     R5,#(`?<Constant "WIFI GOT IP">` >> 8) & 0xff
        MOV     A,R6
        MOV     R2,A
        MOV     A,R7
        MOV     R3,A
        LCALL   `??strstr::?relay`   ; Banked call to: strstr
        MOV     ?V1,R3
        MOV     A,R2
        ORL     A,?V1
        JZ      ??ESP8266_Poll_4
//   40         ESP8266_State = ESP8266_CONNECTED;
        MOV     DPTR,#ESP8266_State
        MOV     A,#0x5
        MOVX    @DPTR,A
//   41         Log.waring("路由器连接成功\r\n");   
        ; Setup parameters for indirect call
        MOV     R2,#`?<Constant "\\302\\267\\323\\311\\306\\367\\301\\254\\2` & 0xff
        MOV     R3,#(`?<Constant "\\302\\267\\323\\311\\306\\367\\301\\254\\2` >> 8) & 0xff
        SJMP    ??ESP8266_Poll_5
//   42         ESP8266_Section = ESP8266_CONF;
//   43       }else if(strstr((char const*)data,"WIFI DISCONNECT") != NULL){
??ESP8266_Poll_4:
        ; Setup parameters for call to function strstr
        MOV     R4,#`?<Constant "WIFI DISCONNECT">` & 0xff
        MOV     R5,#(`?<Constant "WIFI DISCONNECT">` >> 8) & 0xff
        MOV     A,R6
        MOV     R2,A
        MOV     A,R7
        MOV     R3,A
        LCALL   `??strstr::?relay`   ; Banked call to: strstr
        MOV     ?V1,R3
        MOV     A,R2
        ORL     A,?V1
        JNZ     $+5
        LJMP    ??ESP8266_Poll_6 & 0xFFFF
//   44         ESP8266_State = ESP8266_CONNFAIL;
        MOV     DPTR,#ESP8266_State
        MOV     A,#0x6
        MOVX    @DPTR,A
//   45         Log.waring("路由器连接失败\r\n"); 
        ; Setup parameters for indirect call
        MOV     R2,#`?<Constant "\\302\\267\\323\\311\\306\\367\\301\\254\\2_1` & 0xff
        MOV     R3,#(`?<Constant "\\302\\267\\323\\311\\306\\367\\301\\254\\2_1` >> 8) & 0xff
??ESP8266_Poll_5:
        LCALL   ?Subroutine6 & 0xFFFF
??CrossCallReturnLabel_9:
        LCALL   ?CALL_IND
//   46         ESP8266_Section = ESP8266_CONF;
        MOV     DPTR,#ESP8266_Section
        LJMP    ??ESP8266_Poll_7 & 0xFFFF
//   47       }
//   48   }else if(ESP8266_Section == ESP8266_WORK || ESP8266_Section == ESP8266_CONF ){
??ESP8266_Poll_0:
        XRL     A,#0x2
        JZ      ??ESP8266_Poll_8
        MOVX    A,@DPTR
        XRL     A,#0x1
        JZ      $+5
        LJMP    ??ESP8266_Poll_6 & 0xFFFF
//   49       if(strstr((char const*)data,"CONNECT") != NULL){
??ESP8266_Poll_8:
        ; Setup parameters for call to function strstr
        MOV     R4,#`?<Constant "CONNECT">` & 0xff
        MOV     R5,#(`?<Constant "CONNECT">` >> 8) & 0xff
        LCALL   `??strstr::?relay`   ; Banked call to: strstr
        MOV     ?V1,R3
        MOV     A,R2
        ORL     A,?V1
        JZ      ??ESP8266_Poll_9
//   50         ESP8266_CONN[(*data)-(uint8_t)'0'] = 1;
        MOV     DPL,R6
        MOV     DPH,R7
        MOVX    A,@DPTR
        MOV     R0,A
        MOV     A,#(ESP8266_CONN + 208) & 0xff
        ADD     A,R0
        MOV     DPL,A
        CLR     A
        ADDC    A,#((ESP8266_CONN - 48) >> 8) & 0xff
        MOV     DPH,A
        MOV     A,#0x1
        MOVX    @DPTR,A
//   51         ESP8266_Conn_Flag |=  1 << ((*data)-(uint8_t)'0');
        MOV     ?V0,A
        MOV     ?V1,#0x0
        MOV     DPL,R6
        MOV     DPH,R7
        MOVX    A,@DPTR
        ADD     A,#-0x30
        MOV     R0,#?V0
        LCALL   ?S_SHL
        MOV     DPTR,#ESP8266_Conn_Flag
        MOVX    A,@DPTR
        ORL     A,?V0
        MOVX    @DPTR,A
//   52         ESP8266_State = ESP8266_READY;
        MOV     DPTR,#ESP8266_State
        MOV     A,#0x1
        MOVX    @DPTR,A
//   53         Log.waring("终端连接\r\n");
        ; Setup parameters for indirect call
        MOV     R2,#`?<Constant "\\326\\325\\266\\313\\301\\254\\275\\323\\r` & 0xff
        MOV     R3,#(`?<Constant "\\326\\325\\266\\313\\301\\254\\275\\323\\r` >> 8) & 0xff
        SJMP    ??ESP8266_Poll_10
//   54       }else if(strstr((char const*)data,"CLOSED") != NULL){ 
??ESP8266_Poll_9:
        ; Setup parameters for call to function strstr
        MOV     R4,#`?<Constant "CLOSED">` & 0xff
        MOV     R5,#(`?<Constant "CLOSED">` >> 8) & 0xff
        MOV     A,R6
        MOV     R2,A
        MOV     A,R7
        MOV     R3,A
        LCALL   `??strstr::?relay`   ; Banked call to: strstr
        MOV     ?V1,R3
        MOV     A,R2
        ORL     A,?V1
        JZ      ??ESP8266_Poll_11
//   55         ESP8266_Conn_Flag &=  0 << ((*data)-(uint8_t)'0');
        MOV     DPTR,#ESP8266_Conn_Flag
        CLR     A
        MOVX    @DPTR,A
//   56         Log.waring("终端退出\r\n");
        ; Setup parameters for indirect call
        MOV     R2,#`?<Constant "\\326\\325\\266\\313\\315\\313\\263\\366\\r` & 0xff
        MOV     R3,#(`?<Constant "\\326\\325\\266\\313\\315\\313\\263\\366\\r` >> 8) & 0xff
        SJMP    ??ESP8266_Poll_10
//   57       }else if(strstr((char const*)data,"OK") != NULL){
??ESP8266_Poll_11:
        ; Setup parameters for call to function strstr
        MOV     R4,#`?<Constant "OK">` & 0xff
        MOV     R5,#(`?<Constant "OK">` >> 8) & 0xff
        MOV     A,R6
        MOV     R2,A
        MOV     A,R7
        MOV     R3,A
        LCALL   `??strstr::?relay`   ; Banked call to: strstr
        MOV     ?V1,R3
        MOV     A,R2
        ORL     A,?V1
        JZ      ??ESP8266_Poll_12
//   58         ESP8266_State = ESP8266_READY;
        MOV     DPTR,#ESP8266_State
??ESP8266_Poll_7:
        MOV     A,#0x1
??ESP8266_Poll_3:
        MOVX    @DPTR,A
        SJMP    ??ESP8266_Poll_6
//   59       }else if(strstr((char const*)data,"ERROR") != NULL){
??ESP8266_Poll_12:
        ; Setup parameters for call to function strstr
        MOV     R4,#`?<Constant "ERROR">` & 0xff
        MOV     R5,#(`?<Constant "ERROR">` >> 8) & 0xff
        MOV     A,R6
        MOV     R2,A
        MOV     A,R7
        MOV     R3,A
        LCALL   `??strstr::?relay`   ; Banked call to: strstr
        MOV     ?V1,R3
        MOV     A,R2
        ORL     A,?V1
        JZ      ??ESP8266_Poll_6
//   60         //ESP8266_State = ESP8266_ERROR; 
//   61         Log.waring("WIFI模块ERROR\r\n"); 
        ; Setup parameters for indirect call
        MOV     R2,#`?<Constant "WIFI\\304\\243\\277\\351ERROR\\r\\n">` & 0xff
        MOV     R3,#(`?<Constant "WIFI\\304\\243\\277\\351ERROR\\r\\n">` >> 8) & 0xff
//   62       } 
//   63   } 
??ESP8266_Poll_10:
        LCALL   ?Subroutine6 & 0xFFFF
??CrossCallReturnLabel_10:
        LCALL   ?CALL_IND
//   64 }
??ESP8266_Poll_6:
          CFI EndBlock cfiBlock2
        REQUIRE ?Subroutine1
        ; // Fall through to label ?Subroutine1

        RSEG BANKED_CODE:CODE:NOROOT(0)
?Subroutine1:
          CFI Block cfiBlock3 Using cfiCommon0
          CFI NoFunction
          CFI CFA_SP SP+0
          CFI CFA_XSP16 add(XSP16, 10)
          CFI VB load(1, XDATA, add(CFA_XSP16, literal(-9)))
          CFI DPL0 load(1, XDATA, add(CFA_XSP16, literal(-2)))
          CFI DPH0 load(1, XDATA, add(CFA_XSP16, literal(-1)))
          CFI R6 load(1, XDATA, add(CFA_XSP16, literal(-10)))
          CFI R7 load(1, XDATA, add(CFA_XSP16, literal(-6)))
          CFI V0 load(1, XDATA, add(CFA_XSP16, literal(-8)))
          CFI V1 load(1, XDATA, add(CFA_XSP16, literal(-7)))
          CFI ?BRET_EXT load(1, XDATA, add(CFA_XSP16, literal(-3)))
          CFI ?RET_HIGH load(1, XDATA, add(CFA_XSP16, literal(-4)))
          CFI ?RET_LOW load(1, XDATA, add(CFA_XSP16, literal(-5)))
        MOV     R7,#0x2
        LJMP    ?BANKED_LEAVE_XDATA
          CFI EndBlock cfiBlock3

        RSEG BANKED_CODE:CODE:NOROOT(0)
?Subroutine6:
          CFI Block cfiCond4 Using cfiCommon0
          CFI Function ESP8266_Poll
          CFI Conditional ??CrossCallReturnLabel_8
          CFI R6 load(1, XDATA, add(CFA_XSP16, literal(-10)))
          CFI VB load(1, XDATA, add(CFA_XSP16, literal(-9)))
          CFI V0 load(1, XDATA, add(CFA_XSP16, literal(-8)))
          CFI V1 load(1, XDATA, add(CFA_XSP16, literal(-7)))
          CFI R7 load(1, XDATA, add(CFA_XSP16, literal(-6)))
          CFI ?RET_LOW load(1, XDATA, add(CFA_XSP16, literal(-5)))
          CFI ?RET_HIGH load(1, XDATA, add(CFA_XSP16, literal(-4)))
          CFI ?BRET_EXT load(1, XDATA, add(CFA_XSP16, literal(-3)))
          CFI DPL0 load(1, XDATA, add(CFA_XSP16, literal(-2)))
          CFI DPH0 load(1, XDATA, add(CFA_XSP16, literal(-1)))
          CFI CFA_SP SP+-2
          CFI CFA_XSP16 add(XSP16, 10)
          CFI Block cfiCond5 Using cfiCommon0
          CFI (cfiCond5) Function ESP8266_Poll
          CFI (cfiCond5) Conditional ??CrossCallReturnLabel_9
          CFI (cfiCond5) R6 load(1, XDATA, add(CFA_XSP16, literal(-10)))
          CFI (cfiCond5) VB load(1, XDATA, add(CFA_XSP16, literal(-9)))
          CFI (cfiCond5) V0 load(1, XDATA, add(CFA_XSP16, literal(-8)))
          CFI (cfiCond5) V1 load(1, XDATA, add(CFA_XSP16, literal(-7)))
          CFI (cfiCond5) R7 load(1, XDATA, add(CFA_XSP16, literal(-6)))
          CFI (cfiCond5) ?RET_LOW load(1, XDATA, add(CFA_XSP16, literal(-5)))
          CFI (cfiCond5) ?RET_HIGH load(1, XDATA, add(CFA_XSP16, literal(-4)))
          CFI (cfiCond5) ?BRET_EXT load(1, XDATA, add(CFA_XSP16, literal(-3)))
          CFI (cfiCond5) DPL0 load(1, XDATA, add(CFA_XSP16, literal(-2)))
          CFI (cfiCond5) DPH0 load(1, XDATA, add(CFA_XSP16, literal(-1)))
          CFI (cfiCond5) CFA_SP SP+-2
          CFI (cfiCond5) CFA_XSP16 add(XSP16, 10)
          CFI Block cfiCond6 Using cfiCommon0
          CFI (cfiCond6) Function ESP8266_Poll
          CFI (cfiCond6) Conditional ??CrossCallReturnLabel_10
          CFI (cfiCond6) R6 load(1, XDATA, add(CFA_XSP16, literal(-10)))
          CFI (cfiCond6) VB load(1, XDATA, add(CFA_XSP16, literal(-9)))
          CFI (cfiCond6) V0 load(1, XDATA, add(CFA_XSP16, literal(-8)))
          CFI (cfiCond6) V1 load(1, XDATA, add(CFA_XSP16, literal(-7)))
          CFI (cfiCond6) R7 load(1, XDATA, add(CFA_XSP16, literal(-6)))
          CFI (cfiCond6) ?RET_LOW load(1, XDATA, add(CFA_XSP16, literal(-5)))
          CFI (cfiCond6) ?RET_HIGH load(1, XDATA, add(CFA_XSP16, literal(-4)))
          CFI (cfiCond6) ?BRET_EXT load(1, XDATA, add(CFA_XSP16, literal(-3)))
          CFI (cfiCond6) DPL0 load(1, XDATA, add(CFA_XSP16, literal(-2)))
          CFI (cfiCond6) DPH0 load(1, XDATA, add(CFA_XSP16, literal(-1)))
          CFI (cfiCond6) CFA_SP SP+-2
          CFI (cfiCond6) CFA_XSP16 add(XSP16, 10)
          CFI Block cfiPicker7 Using cfiCommon1
          CFI (cfiPicker7) NoFunction
          CFI (cfiPicker7) Picker
        MOV     DPTR,#Log + 2
          CFI EndBlock cfiCond4
          CFI EndBlock cfiCond5
          CFI EndBlock cfiCond6
          CFI EndBlock cfiPicker7
        REQUIRE ??Subroutine10_0
        ; // Fall through to label ??Subroutine10_0

        RSEG BANKED_CODE:CODE:NOROOT(0)
??Subroutine10_0:
          CFI Block cfiCond8 Using cfiCommon0
          CFI Function ESP8266_Data_Send
          CFI Conditional ??CrossCallReturnLabel_6
          CFI R6 load(1, XDATA, add(CFA_XSP16, literal(-12)))
          CFI VB load(1, XDATA, add(CFA_XSP16, literal(-11)))
          CFI V0 load(1, XDATA, add(CFA_XSP16, literal(-10)))
          CFI V1 load(1, XDATA, add(CFA_XSP16, literal(-9)))
          CFI V2 load(1, XDATA, add(CFA_XSP16, literal(-8)))
          CFI V3 load(1, XDATA, add(CFA_XSP16, literal(-7)))
          CFI R7 load(1, XDATA, add(CFA_XSP16, literal(-6)))
          CFI ?RET_LOW load(1, XDATA, add(CFA_XSP16, literal(-5)))
          CFI ?RET_HIGH load(1, XDATA, add(CFA_XSP16, literal(-4)))
          CFI ?BRET_EXT load(1, XDATA, add(CFA_XSP16, literal(-3)))
          CFI DPL0 load(1, XDATA, add(CFA_XSP16, literal(-2)))
          CFI DPH0 load(1, XDATA, add(CFA_XSP16, literal(-1)))
          CFI CFA_SP SP+-2
          CFI CFA_XSP16 add(XSP16, 26)
          CFI Block cfiCond9 Using cfiCommon0
          CFI (cfiCond9) Function ESP8266_Data_Send
          CFI (cfiCond9) Conditional ??CrossCallReturnLabel_7
          CFI (cfiCond9) R6 load(1, XDATA, add(CFA_XSP16, literal(-12)))
          CFI (cfiCond9) VB load(1, XDATA, add(CFA_XSP16, literal(-11)))
          CFI (cfiCond9) V0 load(1, XDATA, add(CFA_XSP16, literal(-10)))
          CFI (cfiCond9) V1 load(1, XDATA, add(CFA_XSP16, literal(-9)))
          CFI (cfiCond9) V2 load(1, XDATA, add(CFA_XSP16, literal(-8)))
          CFI (cfiCond9) V3 load(1, XDATA, add(CFA_XSP16, literal(-7)))
          CFI (cfiCond9) R7 load(1, XDATA, add(CFA_XSP16, literal(-6)))
          CFI (cfiCond9) ?RET_LOW load(1, XDATA, add(CFA_XSP16, literal(-5)))
          CFI (cfiCond9) ?RET_HIGH load(1, XDATA, add(CFA_XSP16, literal(-4)))
          CFI (cfiCond9) ?BRET_EXT load(1, XDATA, add(CFA_XSP16, literal(-3)))
          CFI (cfiCond9) DPL0 load(1, XDATA, add(CFA_XSP16, literal(-2)))
          CFI (cfiCond9) DPH0 load(1, XDATA, add(CFA_XSP16, literal(-1)))
          CFI (cfiCond9) CFA_SP SP+-2
          CFI (cfiCond9) CFA_XSP16 add(XSP16, 28)
          CFI Block cfiCond10 Using cfiCommon0
          CFI (cfiCond10) Function ESP8266_Poll
          CFI (cfiCond10) Conditional ??CrossCallReturnLabel_8
          CFI (cfiCond10) R6 load(1, XDATA, add(CFA_XSP16, literal(-10)))
          CFI (cfiCond10) VB load(1, XDATA, add(CFA_XSP16, literal(-9)))
          CFI (cfiCond10) V0 load(1, XDATA, add(CFA_XSP16, literal(-8)))
          CFI (cfiCond10) V1 load(1, XDATA, add(CFA_XSP16, literal(-7)))
          CFI (cfiCond10) R7 load(1, XDATA, add(CFA_XSP16, literal(-6)))
          CFI (cfiCond10) ?RET_LOW load(1, XDATA, add(CFA_XSP16, literal(-5)))
          CFI (cfiCond10) ?RET_HIGH load(1, XDATA, add(CFA_XSP16, literal(-4)))
          CFI (cfiCond10) ?BRET_EXT load(1, XDATA, add(CFA_XSP16, literal(-3)))
          CFI (cfiCond10) DPL0 load(1, XDATA, add(CFA_XSP16, literal(-2)))
          CFI (cfiCond10) DPH0 load(1, XDATA, add(CFA_XSP16, literal(-1)))
          CFI (cfiCond10) CFA_SP SP+-2
          CFI (cfiCond10) CFA_XSP16 add(XSP16, 10)
          CFI Block cfiCond11 Using cfiCommon0
          CFI (cfiCond11) Function ESP8266_Poll
          CFI (cfiCond11) Conditional ??CrossCallReturnLabel_9
          CFI (cfiCond11) R6 load(1, XDATA, add(CFA_XSP16, literal(-10)))
          CFI (cfiCond11) VB load(1, XDATA, add(CFA_XSP16, literal(-9)))
          CFI (cfiCond11) V0 load(1, XDATA, add(CFA_XSP16, literal(-8)))
          CFI (cfiCond11) V1 load(1, XDATA, add(CFA_XSP16, literal(-7)))
          CFI (cfiCond11) R7 load(1, XDATA, add(CFA_XSP16, literal(-6)))
          CFI (cfiCond11) ?RET_LOW load(1, XDATA, add(CFA_XSP16, literal(-5)))
          CFI (cfiCond11) ?RET_HIGH load(1, XDATA, add(CFA_XSP16, literal(-4)))
          CFI (cfiCond11) ?BRET_EXT load(1, XDATA, add(CFA_XSP16, literal(-3)))
          CFI (cfiCond11) DPL0 load(1, XDATA, add(CFA_XSP16, literal(-2)))
          CFI (cfiCond11) DPH0 load(1, XDATA, add(CFA_XSP16, literal(-1)))
          CFI (cfiCond11) CFA_SP SP+-2
          CFI (cfiCond11) CFA_XSP16 add(XSP16, 10)
          CFI Block cfiCond12 Using cfiCommon0
          CFI (cfiCond12) Function ESP8266_Poll
          CFI (cfiCond12) Conditional ??CrossCallReturnLabel_10
          CFI (cfiCond12) R6 load(1, XDATA, add(CFA_XSP16, literal(-10)))
          CFI (cfiCond12) VB load(1, XDATA, add(CFA_XSP16, literal(-9)))
          CFI (cfiCond12) V0 load(1, XDATA, add(CFA_XSP16, literal(-8)))
          CFI (cfiCond12) V1 load(1, XDATA, add(CFA_XSP16, literal(-7)))
          CFI (cfiCond12) R7 load(1, XDATA, add(CFA_XSP16, literal(-6)))
          CFI (cfiCond12) ?RET_LOW load(1, XDATA, add(CFA_XSP16, literal(-5)))
          CFI (cfiCond12) ?RET_HIGH load(1, XDATA, add(CFA_XSP16, literal(-4)))
          CFI (cfiCond12) ?BRET_EXT load(1, XDATA, add(CFA_XSP16, literal(-3)))
          CFI (cfiCond12) DPL0 load(1, XDATA, add(CFA_XSP16, literal(-2)))
          CFI (cfiCond12) DPH0 load(1, XDATA, add(CFA_XSP16, literal(-1)))
          CFI (cfiCond12) CFA_SP SP+-2
          CFI (cfiCond12) CFA_XSP16 add(XSP16, 10)
          CFI Block cfiPicker13 Using cfiCommon1
          CFI (cfiPicker13) NoFunction
          CFI (cfiPicker13) Picker
        LCALL   ?Subroutine9 & 0xFFFF
??CrossCallReturnLabel_12:
        RET
          CFI EndBlock cfiCond8
          CFI EndBlock cfiCond9
          CFI EndBlock cfiCond10
          CFI EndBlock cfiCond11
          CFI EndBlock cfiCond12
          CFI EndBlock cfiPicker13

        RSEG BANKED_CODE:CODE:NOROOT(0)
?Subroutine9:
          CFI Block cfiCond14 Using cfiCommon0
          CFI Function ESP8266_Poll
          CFI Conditional ??CrossCallReturnLabel_12, ??CrossCallReturnLabel_8
          CFI R6 load(1, XDATA, add(CFA_XSP16, literal(-10)))
          CFI VB load(1, XDATA, add(CFA_XSP16, literal(-9)))
          CFI V0 load(1, XDATA, add(CFA_XSP16, literal(-8)))
          CFI V1 load(1, XDATA, add(CFA_XSP16, literal(-7)))
          CFI R7 load(1, XDATA, add(CFA_XSP16, literal(-6)))
          CFI ?RET_LOW load(1, XDATA, add(CFA_XSP16, literal(-5)))
          CFI ?RET_HIGH load(1, XDATA, add(CFA_XSP16, literal(-4)))
          CFI ?BRET_EXT load(1, XDATA, add(CFA_XSP16, literal(-3)))
          CFI DPL0 load(1, XDATA, add(CFA_XSP16, literal(-2)))
          CFI DPH0 load(1, XDATA, add(CFA_XSP16, literal(-1)))
          CFI CFA_SP SP+-4
          CFI CFA_XSP16 add(XSP16, 10)
          CFI Block cfiCond15 Using cfiCommon0
          CFI (cfiCond15) Function ESP8266_Poll
          CFI (cfiCond15) Conditional ??CrossCallReturnLabel_12, ??CrossCallReturnLabel_9
          CFI (cfiCond15) R6 load(1, XDATA, add(CFA_XSP16, literal(-10)))
          CFI (cfiCond15) VB load(1, XDATA, add(CFA_XSP16, literal(-9)))
          CFI (cfiCond15) V0 load(1, XDATA, add(CFA_XSP16, literal(-8)))
          CFI (cfiCond15) V1 load(1, XDATA, add(CFA_XSP16, literal(-7)))
          CFI (cfiCond15) R7 load(1, XDATA, add(CFA_XSP16, literal(-6)))
          CFI (cfiCond15) ?RET_LOW load(1, XDATA, add(CFA_XSP16, literal(-5)))
          CFI (cfiCond15) ?RET_HIGH load(1, XDATA, add(CFA_XSP16, literal(-4)))
          CFI (cfiCond15) ?BRET_EXT load(1, XDATA, add(CFA_XSP16, literal(-3)))
          CFI (cfiCond15) DPL0 load(1, XDATA, add(CFA_XSP16, literal(-2)))
          CFI (cfiCond15) DPH0 load(1, XDATA, add(CFA_XSP16, literal(-1)))
          CFI (cfiCond15) CFA_SP SP+-4
          CFI (cfiCond15) CFA_XSP16 add(XSP16, 10)
          CFI Block cfiCond16 Using cfiCommon0
          CFI (cfiCond16) Function ESP8266_Poll
          CFI (cfiCond16) Conditional ??CrossCallReturnLabel_12, ??CrossCallReturnLabel_10
          CFI (cfiCond16) R6 load(1, XDATA, add(CFA_XSP16, literal(-10)))
          CFI (cfiCond16) VB load(1, XDATA, add(CFA_XSP16, literal(-9)))
          CFI (cfiCond16) V0 load(1, XDATA, add(CFA_XSP16, literal(-8)))
          CFI (cfiCond16) V1 load(1, XDATA, add(CFA_XSP16, literal(-7)))
          CFI (cfiCond16) R7 load(1, XDATA, add(CFA_XSP16, literal(-6)))
          CFI (cfiCond16) ?RET_LOW load(1, XDATA, add(CFA_XSP16, literal(-5)))
          CFI (cfiCond16) ?RET_HIGH load(1, XDATA, add(CFA_XSP16, literal(-4)))
          CFI (cfiCond16) ?BRET_EXT load(1, XDATA, add(CFA_XSP16, literal(-3)))
          CFI (cfiCond16) DPL0 load(1, XDATA, add(CFA_XSP16, literal(-2)))
          CFI (cfiCond16) DPH0 load(1, XDATA, add(CFA_XSP16, literal(-1)))
          CFI (cfiCond16) CFA_SP SP+-4
          CFI (cfiCond16) CFA_XSP16 add(XSP16, 10)
          CFI Block cfiCond17 Using cfiCommon0
          CFI (cfiCond17) Function ESP8266_Data_Send
          CFI (cfiCond17) Conditional ??CrossCallReturnLabel_12, ??CrossCallReturnLabel_6
          CFI (cfiCond17) R6 load(1, XDATA, add(CFA_XSP16, literal(-12)))
          CFI (cfiCond17) VB load(1, XDATA, add(CFA_XSP16, literal(-11)))
          CFI (cfiCond17) V0 load(1, XDATA, add(CFA_XSP16, literal(-10)))
          CFI (cfiCond17) V1 load(1, XDATA, add(CFA_XSP16, literal(-9)))
          CFI (cfiCond17) V2 load(1, XDATA, add(CFA_XSP16, literal(-8)))
          CFI (cfiCond17) V3 load(1, XDATA, add(CFA_XSP16, literal(-7)))
          CFI (cfiCond17) R7 load(1, XDATA, add(CFA_XSP16, literal(-6)))
          CFI (cfiCond17) ?RET_LOW load(1, XDATA, add(CFA_XSP16, literal(-5)))
          CFI (cfiCond17) ?RET_HIGH load(1, XDATA, add(CFA_XSP16, literal(-4)))
          CFI (cfiCond17) ?BRET_EXT load(1, XDATA, add(CFA_XSP16, literal(-3)))
          CFI (cfiCond17) DPL0 load(1, XDATA, add(CFA_XSP16, literal(-2)))
          CFI (cfiCond17) DPH0 load(1, XDATA, add(CFA_XSP16, literal(-1)))
          CFI (cfiCond17) CFA_SP SP+-4
          CFI (cfiCond17) CFA_XSP16 add(XSP16, 26)
          CFI Block cfiCond18 Using cfiCommon0
          CFI (cfiCond18) Function ESP8266_Data_Send
          CFI (cfiCond18) Conditional ??CrossCallReturnLabel_12, ??CrossCallReturnLabel_7
          CFI (cfiCond18) R6 load(1, XDATA, add(CFA_XSP16, literal(-12)))
          CFI (cfiCond18) VB load(1, XDATA, add(CFA_XSP16, literal(-11)))
          CFI (cfiCond18) V0 load(1, XDATA, add(CFA_XSP16, literal(-10)))
          CFI (cfiCond18) V1 load(1, XDATA, add(CFA_XSP16, literal(-9)))
          CFI (cfiCond18) V2 load(1, XDATA, add(CFA_XSP16, literal(-8)))
          CFI (cfiCond18) V3 load(1, XDATA, add(CFA_XSP16, literal(-7)))
          CFI (cfiCond18) R7 load(1, XDATA, add(CFA_XSP16, literal(-6)))
          CFI (cfiCond18) ?RET_LOW load(1, XDATA, add(CFA_XSP16, literal(-5)))
          CFI (cfiCond18) ?RET_HIGH load(1, XDATA, add(CFA_XSP16, literal(-4)))
          CFI (cfiCond18) ?BRET_EXT load(1, XDATA, add(CFA_XSP16, literal(-3)))
          CFI (cfiCond18) DPL0 load(1, XDATA, add(CFA_XSP16, literal(-2)))
          CFI (cfiCond18) DPH0 load(1, XDATA, add(CFA_XSP16, literal(-1)))
          CFI (cfiCond18) CFA_SP SP+-4
          CFI (cfiCond18) CFA_XSP16 add(XSP16, 28)
          CFI Block cfiCond19 Using cfiCommon0
          CFI (cfiCond19) Function ESP8266_Data_Send
          CFI (cfiCond19) Conditional ??CrossCallReturnLabel_11, ??CrossCallReturnLabel_5, ??CrossCallReturnLabel_2
          CFI (cfiCond19) R6 load(1, XDATA, add(CFA_XSP16, literal(-12)))
          CFI (cfiCond19) VB load(1, XDATA, add(CFA_XSP16, literal(-11)))
          CFI (cfiCond19) V0 load(1, XDATA, add(CFA_XSP16, literal(-10)))
          CFI (cfiCond19) V1 load(1, XDATA, add(CFA_XSP16, literal(-9)))
          CFI (cfiCond19) V2 load(1, XDATA, add(CFA_XSP16, literal(-8)))
          CFI (cfiCond19) V3 load(1, XDATA, add(CFA_XSP16, literal(-7)))
          CFI (cfiCond19) R7 load(1, XDATA, add(CFA_XSP16, literal(-6)))
          CFI (cfiCond19) ?RET_LOW load(1, XDATA, add(CFA_XSP16, literal(-5)))
          CFI (cfiCond19) ?RET_HIGH load(1, XDATA, add(CFA_XSP16, literal(-4)))
          CFI (cfiCond19) ?BRET_EXT load(1, XDATA, add(CFA_XSP16, literal(-3)))
          CFI (cfiCond19) DPL0 load(1, XDATA, add(CFA_XSP16, literal(-2)))
          CFI (cfiCond19) DPH0 load(1, XDATA, add(CFA_XSP16, literal(-1)))
          CFI (cfiCond19) CFA_SP SP+-6
          CFI (cfiCond19) CFA_XSP16 add(XSP16, 22)
          CFI Block cfiCond20 Using cfiCommon0
          CFI (cfiCond20) Function ESP8266_Data_Send
          CFI (cfiCond20) Conditional ??CrossCallReturnLabel_11, ??CrossCallReturnLabel_5, ??CrossCallReturnLabel_3
          CFI (cfiCond20) R6 load(1, XDATA, add(CFA_XSP16, literal(-12)))
          CFI (cfiCond20) VB load(1, XDATA, add(CFA_XSP16, literal(-11)))
          CFI (cfiCond20) V0 load(1, XDATA, add(CFA_XSP16, literal(-10)))
          CFI (cfiCond20) V1 load(1, XDATA, add(CFA_XSP16, literal(-9)))
          CFI (cfiCond20) V2 load(1, XDATA, add(CFA_XSP16, literal(-8)))
          CFI (cfiCond20) V3 load(1, XDATA, add(CFA_XSP16, literal(-7)))
          CFI (cfiCond20) R7 load(1, XDATA, add(CFA_XSP16, literal(-6)))
          CFI (cfiCond20) ?RET_LOW load(1, XDATA, add(CFA_XSP16, literal(-5)))
          CFI (cfiCond20) ?RET_HIGH load(1, XDATA, add(CFA_XSP16, literal(-4)))
          CFI (cfiCond20) ?BRET_EXT load(1, XDATA, add(CFA_XSP16, literal(-3)))
          CFI (cfiCond20) DPL0 load(1, XDATA, add(CFA_XSP16, literal(-2)))
          CFI (cfiCond20) DPH0 load(1, XDATA, add(CFA_XSP16, literal(-1)))
          CFI (cfiCond20) CFA_SP SP+-6
          CFI (cfiCond20) CFA_XSP16 add(XSP16, 24)
          CFI Block cfiCond21 Using cfiCommon0
          CFI (cfiCond21) Function ESP8266_Data_Send
          CFI (cfiCond21) Conditional ??CrossCallReturnLabel_11, ??CrossCallReturnLabel_4, ??CrossCallReturnLabel_0
          CFI (cfiCond21) R6 load(1, XDATA, add(CFA_XSP16, literal(-12)))
          CFI (cfiCond21) VB load(1, XDATA, add(CFA_XSP16, literal(-11)))
          CFI (cfiCond21) V0 load(1, XDATA, add(CFA_XSP16, literal(-10)))
          CFI (cfiCond21) V1 load(1, XDATA, add(CFA_XSP16, literal(-9)))
          CFI (cfiCond21) V2 load(1, XDATA, add(CFA_XSP16, literal(-8)))
          CFI (cfiCond21) V3 load(1, XDATA, add(CFA_XSP16, literal(-7)))
          CFI (cfiCond21) R7 load(1, XDATA, add(CFA_XSP16, literal(-6)))
          CFI (cfiCond21) ?RET_LOW load(1, XDATA, add(CFA_XSP16, literal(-5)))
          CFI (cfiCond21) ?RET_HIGH load(1, XDATA, add(CFA_XSP16, literal(-4)))
          CFI (cfiCond21) ?BRET_EXT load(1, XDATA, add(CFA_XSP16, literal(-3)))
          CFI (cfiCond21) DPL0 load(1, XDATA, add(CFA_XSP16, literal(-2)))
          CFI (cfiCond21) DPH0 load(1, XDATA, add(CFA_XSP16, literal(-1)))
          CFI (cfiCond21) CFA_SP SP+-6
          CFI (cfiCond21) CFA_XSP16 add(XSP16, 18)
          CFI Block cfiCond22 Using cfiCommon0
          CFI (cfiCond22) Function ESP8266_Data_Send
          CFI (cfiCond22) Conditional ??CrossCallReturnLabel_11, ??CrossCallReturnLabel_4, ??CrossCallReturnLabel_1
          CFI (cfiCond22) R6 load(1, XDATA, add(CFA_XSP16, literal(-12)))
          CFI (cfiCond22) VB load(1, XDATA, add(CFA_XSP16, literal(-11)))
          CFI (cfiCond22) V0 load(1, XDATA, add(CFA_XSP16, literal(-10)))
          CFI (cfiCond22) V1 load(1, XDATA, add(CFA_XSP16, literal(-9)))
          CFI (cfiCond22) V2 load(1, XDATA, add(CFA_XSP16, literal(-8)))
          CFI (cfiCond22) V3 load(1, XDATA, add(CFA_XSP16, literal(-7)))
          CFI (cfiCond22) R7 load(1, XDATA, add(CFA_XSP16, literal(-6)))
          CFI (cfiCond22) ?RET_LOW load(1, XDATA, add(CFA_XSP16, literal(-5)))
          CFI (cfiCond22) ?RET_HIGH load(1, XDATA, add(CFA_XSP16, literal(-4)))
          CFI (cfiCond22) ?BRET_EXT load(1, XDATA, add(CFA_XSP16, literal(-3)))
          CFI (cfiCond22) DPL0 load(1, XDATA, add(CFA_XSP16, literal(-2)))
          CFI (cfiCond22) DPH0 load(1, XDATA, add(CFA_XSP16, literal(-1)))
          CFI (cfiCond22) CFA_SP SP+-6
          CFI (cfiCond22) CFA_XSP16 add(XSP16, 20)
          CFI Block cfiPicker23 Using cfiCommon1
          CFI (cfiPicker23) NoFunction
          CFI (cfiPicker23) Picker
        MOVX    A,@DPTR
        MOV     R0,A
        INC     DPTR
        MOVX    A,@DPTR
        MOV     DPH,A
        MOV     DPL,R0
        RET
          CFI EndBlock cfiCond14
          CFI EndBlock cfiCond15
          CFI EndBlock cfiCond16
          CFI EndBlock cfiCond17
          CFI EndBlock cfiCond18
          CFI EndBlock cfiCond19
          CFI EndBlock cfiCond20
          CFI EndBlock cfiCond21
          CFI EndBlock cfiCond22
          CFI EndBlock cfiPicker23
//   65 
//   66 

        RSEG BANKED_CODE:CODE:NOROOT(0)
//   67 void ESP8266_Run(void){ 
ESP8266_Run:
          CFI Block cfiBlock24 Using cfiCommon0
          CFI Function ESP8266_Run
        CODE
        FUNCALL ESP8266_Run, ESP8266_CMD_Send
        LOCFRAME ISTACK, 2, STACK
        LOCFRAME PSTACK, 0, STACK
        LOCFRAME XSTACK, 0, STACK
        LOCFRAME IOVERLAY, 0, STATIC
        LOCFRAME DOVERLAY, 0, STATIC
        ARGFRAME ISTACK, 2, STACK
        ARGFRAME PSTACK, 0, STACK
        ARGFRAME XSTACK, 0, STACK
        ARGFRAME IOVERLAY, 0, STATIC
        ARGFRAME DOVERLAY, 0, STATIC
        FUNCALL ESP8266_Run, ESP8266_CMD_Send
        LOCFRAME ISTACK, 2, STACK
        LOCFRAME PSTACK, 0, STACK
        LOCFRAME XSTACK, 0, STACK
        LOCFRAME IOVERLAY, 0, STATIC
        LOCFRAME DOVERLAY, 0, STATIC
        ARGFRAME ISTACK, 2, STACK
        ARGFRAME PSTACK, 0, STACK
        ARGFRAME XSTACK, 0, STACK
        ARGFRAME IOVERLAY, 0, STATIC
        ARGFRAME DOVERLAY, 0, STATIC
        FUNCALL ESP8266_Run, Queue_Get
        LOCFRAME ISTACK, 2, STACK
        LOCFRAME PSTACK, 0, STACK
        LOCFRAME XSTACK, 0, STACK
        LOCFRAME IOVERLAY, 0, STATIC
        LOCFRAME DOVERLAY, 0, STATIC
        ARGFRAME ISTACK, 2, STACK
        ARGFRAME PSTACK, 0, STACK
        ARGFRAME XSTACK, 0, STACK
        ARGFRAME IOVERLAY, 0, STATIC
        ARGFRAME DOVERLAY, 0, STATIC
        FUNCALL ESP8266_Run, HalUARTWrite
        LOCFRAME ISTACK, 2, STACK
        LOCFRAME PSTACK, 0, STACK
        LOCFRAME XSTACK, 0, STACK
        LOCFRAME IOVERLAY, 0, STATIC
        LOCFRAME DOVERLAY, 0, STATIC
        ARGFRAME ISTACK, 2, STACK
        ARGFRAME PSTACK, 0, STACK
        ARGFRAME XSTACK, 0, STACK
        ARGFRAME IOVERLAY, 0, STATIC
        ARGFRAME DOVERLAY, 0, STATIC
        FUNCALL ESP8266_Run, osal_mem_free
        LOCFRAME ISTACK, 2, STACK
        LOCFRAME PSTACK, 0, STACK
        LOCFRAME XSTACK, 0, STACK
        LOCFRAME IOVERLAY, 0, STATIC
        LOCFRAME DOVERLAY, 0, STATIC
        ARGFRAME ISTACK, 2, STACK
        ARGFRAME PSTACK, 0, STACK
        ARGFRAME XSTACK, 0, STACK
        ARGFRAME IOVERLAY, 0, STATIC
        ARGFRAME DOVERLAY, 0, STATIC
        FUNCALL ESP8266_Run, osal_mem_free
        LOCFRAME ISTACK, 2, STACK
        LOCFRAME PSTACK, 0, STACK
        LOCFRAME XSTACK, 0, STACK
        LOCFRAME IOVERLAY, 0, STATIC
        LOCFRAME DOVERLAY, 0, STATIC
        ARGFRAME ISTACK, 2, STACK
        ARGFRAME PSTACK, 0, STACK
        ARGFRAME XSTACK, 0, STACK
        ARGFRAME IOVERLAY, 0, STATIC
        ARGFRAME DOVERLAY, 0, STATIC
        FUNCALL ESP8266_Run, Queue_Get
        LOCFRAME ISTACK, 2, STACK
        LOCFRAME PSTACK, 0, STACK
        LOCFRAME XSTACK, 0, STACK
        LOCFRAME IOVERLAY, 0, STATIC
        LOCFRAME DOVERLAY, 0, STATIC
        ARGFRAME ISTACK, 2, STACK
        ARGFRAME PSTACK, 0, STACK
        ARGFRAME XSTACK, 0, STACK
        ARGFRAME IOVERLAY, 0, STATIC
        ARGFRAME DOVERLAY, 0, STATIC
        PUSH    DPL
          CFI DPL0 Frame(CFA_SP, 4)
          CFI CFA_SP SP+-4
        PUSH    DPH
          CFI DPH0 Frame(CFA_SP, 5)
          CFI CFA_SP SP+-5
        ; Saved register size: 2
        ; Auto size: 0
//   68   if(ESP8266_Section == ESP8266_INIT){
        MOV     DPTR,#ESP8266_Section
        MOVX    A,@DPTR
        JZ      ??ESP8266_Run_0
//   69     return;
//   70   }else if(ESP8266_Section == ESP8266_CONF){
        XRL     A,#0x1
        JNZ     ??ESP8266_Run_1
//   71     ESP8266_CMD_Send("AT+CIPMUX=1\r\n");
        ; Setup parameters for call to function ESP8266_CMD_Send
        MOV     R2,#`?<Constant "AT+CIPMUX=1\\r\\n">` & 0xff
        MOV     R3,#(`?<Constant "AT+CIPMUX=1\\r\\n">` >> 8) & 0xff
        LCALL   `??ESP8266_CMD_Send::?relay`; Banked call to: ESP8266_CMD_Send
//   72     ESP8266_CMD_Send("AT+CIPSERVER=0,8080\r\n");
        ; Setup parameters for call to function ESP8266_CMD_Send
        MOV     R2,#`?<Constant "AT+CIPSERVER=0,8080\\r\\n">` & 0xff
        MOV     R3,#(`?<Constant "AT+CIPSERVER=0,8080\\r\\n">` >> 8) & 0xff
        LCALL   `??ESP8266_CMD_Send::?relay`; Banked call to: ESP8266_CMD_Send
//   73     ESP8266_Section = ESP8266_WORK;
        MOV     DPTR,#ESP8266_Section
        MOV     A,#0x2
        MOVX    @DPTR,A
        SJMP    ??ESP8266_Run_0
//   74   }else if(ESP8266_Section == ESP8266_WORK){
??ESP8266_Run_1:
        MOVX    A,@DPTR
        XRL     A,#0x2
        JNZ     ??ESP8266_Run_0
//   75      if(ESP8266_State == ESP8266_READY){ 
        MOV     DPTR,#ESP8266_State
        MOVX    A,@DPTR
        XRL     A,#0x1
        JNZ     ??ESP8266_Run_2
//   76         if(Queue_Get(ESP8266_Pack_Queue,&pack) == 0){
        ; Setup parameters for call to function Queue_Get
        LCALL   ?Subroutine2 & 0xFFFF
??CrossCallReturnLabel_35:
        LCALL   `??Queue_Get::?relay`; Banked call to: Queue_Get
        MOV     A,R1
        JNZ     ??ESP8266_Run_2
//   77             //ESP8266_State = ESP8266_BUSY;
//   78             HalUARTWrite(HAL_UART_PORT_1,pack.data, pack.len);
        ; Setup parameters for call to function HalUARTWrite
        MOV     DPTR,#pack + 2
        MOVX    A,@DPTR
        MOV     R4,A
        MOV     R5,#0x0
        MOV     DPTR,#pack
        LCALL   ??Subroutine13_0 & 0xFFFF
??CrossCallReturnLabel_26:
        MOV     R1,#0x1
        LCALL   `??HalUARTWrite::?relay`; Banked call to: HalUARTWrite
//   79             osal_mem_free(pack.data);
        ; Setup parameters for call to function osal_mem_free
        MOV     DPTR,#pack
        LCALL   ??Subroutine13_0 & 0xFFFF
//   80         }  
//   81      }
??CrossCallReturnLabel_27:
        LCALL   `??osal_mem_free::?relay`; Banked call to: osal_mem_free
//   82      
//   83      if(ESP8266_Conn_Flag == 0)
??ESP8266_Run_2:
        MOV     DPTR,#ESP8266_Conn_Flag
        MOVX    A,@DPTR
        JNZ     ??ESP8266_Run_0
        SJMP    ??ESP8266_Run_3
//   84        while(Queue_Get(ESP8266_Pack_Queue,&pack) == 0)
//   85          osal_mem_free(pack.data);
??ESP8266_Run_4:
        ; Setup parameters for call to function osal_mem_free
        MOV     DPTR,#pack
        LCALL   ??Subroutine13_0 & 0xFFFF
??CrossCallReturnLabel_28:
        LCALL   `??osal_mem_free::?relay`; Banked call to: osal_mem_free
??ESP8266_Run_3:
        ; Setup parameters for call to function Queue_Get
        LCALL   ?Subroutine2 & 0xFFFF
//   86      
//   87      
//   88   } 
??CrossCallReturnLabel_36:
        LCALL   `??Queue_Get::?relay`; Banked call to: Queue_Get
        MOV     A,R1
        JZ      ??ESP8266_Run_4
//   89 }
??ESP8266_Run_0:
        LJMP    ?Subroutine0 & 0xFFFF
          CFI EndBlock cfiBlock24
//   90 

        RSEG BANKED_CODE:CODE:NOROOT(0)
//   91 int8_t ESP8266_CMD_Send(uint8_t* CMD){ 
ESP8266_CMD_Send:
          CFI Block cfiBlock25 Using cfiCommon0
          CFI Function ESP8266_CMD_Send
        CODE
        FUNCALL ESP8266_CMD_Send, strlen
        LOCFRAME ISTACK, 0, STACK
        LOCFRAME PSTACK, 0, STACK
        LOCFRAME XSTACK, 10, STACK
        LOCFRAME IOVERLAY, 0, STATIC
        LOCFRAME DOVERLAY, 0, STATIC
        ARGFRAME ISTACK, 0, STACK
        ARGFRAME PSTACK, 0, STACK
        ARGFRAME XSTACK, 10, STACK
        ARGFRAME IOVERLAY, 0, STATIC
        ARGFRAME DOVERLAY, 0, STATIC
        FUNCALL ESP8266_CMD_Send, osal_mem_alloc
        LOCFRAME ISTACK, 0, STACK
        LOCFRAME PSTACK, 0, STACK
        LOCFRAME XSTACK, 10, STACK
        LOCFRAME IOVERLAY, 0, STATIC
        LOCFRAME DOVERLAY, 0, STATIC
        ARGFRAME ISTACK, 0, STACK
        ARGFRAME PSTACK, 0, STACK
        ARGFRAME XSTACK, 10, STACK
        ARGFRAME IOVERLAY, 0, STATIC
        ARGFRAME DOVERLAY, 0, STATIC
        FUNCALL ESP8266_CMD_Send, memcpy
        LOCFRAME ISTACK, 0, STACK
        LOCFRAME PSTACK, 0, STACK
        LOCFRAME XSTACK, 12, STACK
        LOCFRAME IOVERLAY, 0, STATIC
        LOCFRAME DOVERLAY, 0, STATIC
        ARGFRAME ISTACK, 0, STACK
        ARGFRAME PSTACK, 0, STACK
        ARGFRAME XSTACK, 12, STACK
        ARGFRAME IOVERLAY, 0, STATIC
        ARGFRAME DOVERLAY, 0, STATIC
        FUNCALL ESP8266_CMD_Send, Queue_Put
        LOCFRAME ISTACK, 0, STACK
        LOCFRAME PSTACK, 0, STACK
        LOCFRAME XSTACK, 10, STACK
        LOCFRAME IOVERLAY, 0, STATIC
        LOCFRAME DOVERLAY, 0, STATIC
        ARGFRAME ISTACK, 0, STACK
        ARGFRAME PSTACK, 0, STACK
        ARGFRAME XSTACK, 10, STACK
        ARGFRAME IOVERLAY, 0, STATIC
        ARGFRAME DOVERLAY, 0, STATIC
        REQUIRE ?V0
        REQUIRE ?V1
        MOV     A,#-0xa
        LCALL   ?BANKED_ENTER_XDATA
          CFI DPH0 load(1, XDATA, add(CFA_XSP16, literal(-1)))
          CFI DPL0 load(1, XDATA, add(CFA_XSP16, literal(-2)))
          CFI ?BRET_EXT load(1, XDATA, add(CFA_XSP16, literal(-3)))
          CFI ?RET_HIGH load(1, XDATA, add(CFA_XSP16, literal(-4)))
          CFI ?RET_LOW load(1, XDATA, add(CFA_XSP16, literal(-5)))
          CFI R7 load(1, XDATA, add(CFA_XSP16, literal(-6)))
          CFI V1 load(1, XDATA, add(CFA_XSP16, literal(-7)))
          CFI V0 load(1, XDATA, add(CFA_XSP16, literal(-8)))
          CFI VB load(1, XDATA, add(CFA_XSP16, literal(-9)))
          CFI R6 load(1, XDATA, add(CFA_XSP16, literal(-10)))
          CFI CFA_SP SP+0
          CFI CFA_XSP16 add(XSP16, 10)
        ; Saved register size: 10
        ; Auto size: 0
        MOV     A,R2
        MOV     R6,A
        MOV     A,R3
        MOV     R7,A
//   92   uint8_t len = strlen((char const*)CMD);
        ; Setup parameters for call to function strlen
        LCALL   `??strlen::?relay`   ; Banked call to: strlen
        MOV     A,R2
        MOV     ?V0,A
//   93   pack.len = len;
        MOV     DPTR,#pack + 2
        MOVX    @DPTR,A
//   94   pack.data = (uint8_t*)osal_mem_alloc(len);
        MOV     ?V1,#0x0
        ; Setup parameters for call to function osal_mem_alloc
        MOV     R3,?V1
        LCALL   `??osal_mem_alloc::?relay`; Banked call to: osal_mem_alloc
        MOV     DPTR,#pack
        MOV     A,R2
        MOVX    @DPTR,A
        INC     DPTR
        MOV     A,R3
        MOVX    @DPTR,A
//   95   memcpy(pack.data, CMD, len); 
        ; Setup parameters for call to function memcpy
        MOV     R0,#?V0
        LCALL   ?PUSH_XSTACK_I_TWO
          CFI CFA_XSP16 add(XSP16, 12)
        MOV     A,R6
        MOV     R4,A
        MOV     A,R7
        MOV     R5,A
        MOV     DPTR,#pack
        LCALL   ??Subroutine13_0 & 0xFFFF
??CrossCallReturnLabel_29:
        LCALL   `??memcpy::?relay`   ; Banked call to: memcpy
        MOV     A,#0x2
        LCALL   ?DEALLOC_XSTACK8
          CFI CFA_XSP16 add(XSP16, 10)
//   96   Queue_Put(ESP8266_Pack_Queue, &pack);
        ; Setup parameters for call to function Queue_Put
        LCALL   ?Subroutine2 & 0xFFFF
??CrossCallReturnLabel_37:
        LCALL   `??Queue_Put::?relay`; Banked call to: Queue_Put
//   97   return 0;
        MOV     R1,#0x0
        LJMP    ?Subroutine1 & 0xFFFF
//   98 }
          CFI EndBlock cfiBlock25
//   99 

        RSEG BANKED_CODE:CODE:NOROOT(0)
//  100 void ESP8266_Data_Send(uint8_t *data, uint8_t  len){
ESP8266_Data_Send:
          CFI Block cfiBlock26 Using cfiCommon0
          CFI Function ESP8266_Data_Send
        CODE
        FUNCALL ESP8266_Data_Send, strlen
        LOCFRAME ISTACK, 0, STACK
        LOCFRAME PSTACK, 0, STACK
        LOCFRAME XSTACK, 12, STACK
        LOCFRAME IOVERLAY, 0, STATIC
        LOCFRAME DOVERLAY, 0, STATIC
        ARGFRAME ISTACK, 0, STACK
        ARGFRAME PSTACK, 0, STACK
        ARGFRAME XSTACK, 12, STACK
        ARGFRAME IOVERLAY, 0, STATIC
        ARGFRAME DOVERLAY, 0, STATIC
        FUNCALL ESP8266_Data_Send, osal_mem_alloc
        LOCFRAME ISTACK, 0, STACK
        LOCFRAME PSTACK, 0, STACK
        LOCFRAME XSTACK, 12, STACK
        LOCFRAME IOVERLAY, 0, STATIC
        LOCFRAME DOVERLAY, 0, STATIC
        ARGFRAME ISTACK, 0, STACK
        ARGFRAME PSTACK, 0, STACK
        ARGFRAME XSTACK, 12, STACK
        ARGFRAME IOVERLAY, 0, STATIC
        ARGFRAME DOVERLAY, 0, STATIC
        FUNCALL ESP8266_Data_Send, sprintf
        LOCFRAME ISTACK, 0, STACK
        LOCFRAME PSTACK, 0, STACK
        LOCFRAME XSTACK, 16, STACK
        LOCFRAME IOVERLAY, 0, STATIC
        LOCFRAME DOVERLAY, 0, STATIC
        ARGFRAME ISTACK, 0, STACK
        ARGFRAME PSTACK, 0, STACK
        ARGFRAME XSTACK, 16, STACK
        ARGFRAME IOVERLAY, 0, STATIC
        ARGFRAME DOVERLAY, 0, STATIC
        FUNCALL ESP8266_Data_Send, Queue_Put
        LOCFRAME ISTACK, 0, STACK
        LOCFRAME PSTACK, 0, STACK
        LOCFRAME XSTACK, 12, STACK
        LOCFRAME IOVERLAY, 0, STATIC
        LOCFRAME DOVERLAY, 0, STATIC
        ARGFRAME ISTACK, 0, STACK
        ARGFRAME PSTACK, 0, STACK
        ARGFRAME XSTACK, 12, STACK
        ARGFRAME IOVERLAY, 0, STATIC
        ARGFRAME DOVERLAY, 0, STATIC
        FUNCALL ESP8266_Data_Send, osal_mem_alloc
        LOCFRAME ISTACK, 0, STACK
        LOCFRAME PSTACK, 0, STACK
        LOCFRAME XSTACK, 12, STACK
        LOCFRAME IOVERLAY, 0, STATIC
        LOCFRAME DOVERLAY, 0, STATIC
        ARGFRAME ISTACK, 0, STACK
        ARGFRAME PSTACK, 0, STACK
        ARGFRAME XSTACK, 12, STACK
        ARGFRAME IOVERLAY, 0, STATIC
        ARGFRAME DOVERLAY, 0, STATIC
        FUNCALL ESP8266_Data_Send, memcpy
        LOCFRAME ISTACK, 0, STACK
        LOCFRAME PSTACK, 0, STACK
        LOCFRAME XSTACK, 14, STACK
        LOCFRAME IOVERLAY, 0, STATIC
        LOCFRAME DOVERLAY, 0, STATIC
        ARGFRAME ISTACK, 0, STACK
        ARGFRAME PSTACK, 0, STACK
        ARGFRAME XSTACK, 14, STACK
        ARGFRAME IOVERLAY, 0, STATIC
        ARGFRAME DOVERLAY, 0, STATIC
        FUNCALL ESP8266_Data_Send, Queue_Put
        LOCFRAME ISTACK, 0, STACK
        LOCFRAME PSTACK, 0, STACK
        LOCFRAME XSTACK, 12, STACK
        LOCFRAME IOVERLAY, 0, STATIC
        LOCFRAME DOVERLAY, 0, STATIC
        ARGFRAME ISTACK, 0, STACK
        ARGFRAME PSTACK, 0, STACK
        ARGFRAME XSTACK, 12, STACK
        ARGFRAME IOVERLAY, 0, STATIC
        ARGFRAME DOVERLAY, 0, STATIC
        FUNCALL ESP8266_Data_Send, printf
        LOCFRAME ISTACK, 0, STACK
        LOCFRAME PSTACK, 0, STACK
        LOCFRAME XSTACK, 30, STACK
        LOCFRAME IOVERLAY, 0, STATIC
        LOCFRAME DOVERLAY, 0, STATIC
        ARGFRAME ISTACK, 0, STACK
        ARGFRAME PSTACK, 0, STACK
        ARGFRAME XSTACK, 30, STACK
        ARGFRAME IOVERLAY, 0, STATIC
        ARGFRAME DOVERLAY, 0, STATIC
        REQUIRE ?V0
        REQUIRE ?V1
        REQUIRE ?V2
        REQUIRE ?V3
        MOV     A,#-0xc
        LCALL   ?BANKED_ENTER_XDATA
          CFI DPH0 load(1, XDATA, add(CFA_XSP16, literal(-1)))
          CFI DPL0 load(1, XDATA, add(CFA_XSP16, literal(-2)))
          CFI ?BRET_EXT load(1, XDATA, add(CFA_XSP16, literal(-3)))
          CFI ?RET_HIGH load(1, XDATA, add(CFA_XSP16, literal(-4)))
          CFI ?RET_LOW load(1, XDATA, add(CFA_XSP16, literal(-5)))
          CFI R7 load(1, XDATA, add(CFA_XSP16, literal(-6)))
          CFI V3 load(1, XDATA, add(CFA_XSP16, literal(-7)))
          CFI V2 load(1, XDATA, add(CFA_XSP16, literal(-8)))
          CFI V1 load(1, XDATA, add(CFA_XSP16, literal(-9)))
          CFI V0 load(1, XDATA, add(CFA_XSP16, literal(-10)))
          CFI VB load(1, XDATA, add(CFA_XSP16, literal(-11)))
          CFI R6 load(1, XDATA, add(CFA_XSP16, literal(-12)))
          CFI CFA_SP SP+0
          CFI CFA_XSP16 add(XSP16, 12)
        ; Saved register size: 12
        ; Auto size: 0
        MOV     ?V0,R2
        MOV     ?V1,R3
        MOV     A,R1
        MOV     R7,A
//  101     uint8_t i; 
//  102     for(i = 0; i < CONN_COUNT; i++){
        MOV     R6,#0x0
//  103       if((ESP8266_Conn_Flag & (1 << i))){
??ESP8266_Data_Send_0:
        MOV     ?V2,#0x1
        MOV     ?V3,#0x0
        MOV     A,R6
        MOV     R0,#?V2
        LCALL   ?S_SHL
        MOV     DPTR,#ESP8266_Conn_Flag
        MOVX    A,@DPTR
        ANL     A,?V2
        JNZ     $+5
        LJMP    ??ESP8266_Data_Send_1 & 0xFFFF
//  104           pack.data = osal_mem_alloc(strlen((char const*)ESP_8266_CMD.SendCMD) + 10);
        ; Setup parameters for call to function strlen
        MOV     DPTR,#ESP_8266_CMD + 8
        LCALL   ??Subroutine13_0 & 0xFFFF
??CrossCallReturnLabel_30:
        LCALL   `??strlen::?relay`   ; Banked call to: strlen
        MOV     ?V3,R3
        MOV     R1,?V3
        ; Setup parameters for call to function osal_mem_alloc
        MOV     A,R2
        ADD     A,#0xa
        MOV     R2,A
        CLR     A
        ADDC    A,R1
        MOV     R3,A
        LCALL   `??osal_mem_alloc::?relay`; Banked call to: osal_mem_alloc
        MOV     DPTR,#pack
        MOV     A,R2
        MOVX    @DPTR,A
        INC     DPTR
        MOV     A,R3
        MOVX    @DPTR,A
//  105           pack.len = sprintf((char*)pack.data,(char const *)ESP_8266_CMD.SendCMD,i,len); 
        ; Setup parameters for call to function sprintf
        MOV     ?V2,R7
        MOV     ?V3,#0x0
        MOV     R0,#?V2
        LCALL   ?PUSH_XSTACK_I_TWO
          CFI CFA_XSP16 add(XSP16, 14)
        MOV     ?V2,R6
        MOV     R0,#?V2
        LCALL   ?PUSH_XSTACK_I_TWO
          CFI CFA_XSP16 add(XSP16, 16)
        MOV     DPTR,#ESP_8266_CMD + 8
        MOVX    A,@DPTR
        MOV     R4,A
        INC     DPTR
        MOVX    A,@DPTR
        MOV     R5,A
        MOV     DPTR,#pack
        LCALL   ??Subroutine13_0 & 0xFFFF
??CrossCallReturnLabel_31:
        LCALL   `??sprintf::?relay`  ; Banked call to: sprintf
        MOV     A,#0x4
        LCALL   ?DEALLOC_XSTACK8
          CFI CFA_XSP16 add(XSP16, 12)
        MOV     A,R2
        MOV     DPTR,#pack + 2
        MOVX    @DPTR,A
//  106           Queue_Put(ESP8266_Pack_Queue, &pack); 
        ; Setup parameters for call to function Queue_Put
        LCALL   ?Subroutine2 & 0xFFFF
??CrossCallReturnLabel_38:
        LCALL   `??Queue_Put::?relay`; Banked call to: Queue_Put
//  107           
//  108           pack.data = osal_mem_alloc(len);
        MOV     ?V2,R7
        ; Setup parameters for call to function osal_mem_alloc
        MOV     R2,?V2
        MOV     R3,?V3
        LCALL   `??osal_mem_alloc::?relay`; Banked call to: osal_mem_alloc
        MOV     DPTR,#pack
        MOV     A,R2
        MOVX    @DPTR,A
        INC     DPTR
        MOV     A,R3
        MOVX    @DPTR,A
//  109           pack.len = len;
        MOV     A,R7
        INC     DPTR
        MOVX    @DPTR,A
//  110           memcpy(pack.data, data, len);
        ; Setup parameters for call to function memcpy
        MOV     R0,#?V2
        LCALL   ?PUSH_XSTACK_I_TWO
          CFI CFA_XSP16 add(XSP16, 14)
        MOV     R4,?V0
        MOV     R5,?V1
        MOV     DPTR,#pack
        LCALL   ??Subroutine13_0 & 0xFFFF
??CrossCallReturnLabel_32:
        LCALL   `??memcpy::?relay`   ; Banked call to: memcpy
        MOV     A,#0x2
        LCALL   ?DEALLOC_XSTACK8
          CFI CFA_XSP16 add(XSP16, 12)
//  111           Queue_Put(ESP8266_Pack_Queue, &pack); 
        ; Setup parameters for call to function Queue_Put
        LCALL   ?Subroutine2 & 0xFFFF
??CrossCallReturnLabel_39:
        LCALL   `??Queue_Put::?relay`; Banked call to: Queue_Put
//  112           printf("发送给WIFI:%X %X %X %X %X %X %X %X %X \r\n",pack.data[0],pack.data[1],pack.data[2],pack.data[3],
//  113                  pack.data[4],pack.data[5],pack.data[6],pack.data[7],pack.data[8]);
        ; Setup parameters for call to function printf
        LCALL   ?Subroutine7 & 0xFFFF
//  114       }
//  115     } 
??CrossCallReturnLabel_14:
        ADD     A,#0x8
        LCALL   ?Subroutine3 & 0xFFFF
??CrossCallReturnLabel_23:
        LCALL   ?PUSH_XSTACK_I_TWO
          CFI CFA_XSP16 add(XSP16, 14)
        LCALL   ?Subroutine7 & 0xFFFF
??CrossCallReturnLabel_15:
        ADD     A,#0x7
        LCALL   ?Subroutine3 & 0xFFFF
??CrossCallReturnLabel_24:
        LCALL   ?PUSH_XSTACK_I_TWO
          CFI CFA_XSP16 add(XSP16, 16)
        LCALL   ?Subroutine7 & 0xFFFF
??CrossCallReturnLabel_16:
        ADD     A,#0x6
        LCALL   ?Subroutine3 & 0xFFFF
??CrossCallReturnLabel_25:
        LCALL   ?PUSH_XSTACK_I_TWO
          CFI CFA_XSP16 add(XSP16, 18)
        LCALL   ?Subroutine4 & 0xFFFF
??CrossCallReturnLabel_0:
        INC     DPTR
        LCALL   ??Subroutine12_0 & 0xFFFF
??CrossCallReturnLabel_17:
        LCALL   ?PUSH_XSTACK_I_TWO
          CFI CFA_XSP16 add(XSP16, 20)
        LCALL   ?Subroutine4 & 0xFFFF
??CrossCallReturnLabel_1:
        LCALL   ??Subroutine12_0 & 0xFFFF
??CrossCallReturnLabel_18:
        LCALL   ?PUSH_XSTACK_I_TWO
          CFI CFA_XSP16 add(XSP16, 22)
        LCALL   ?Subroutine5 & 0xFFFF
??CrossCallReturnLabel_2:
        INC     DPTR
        LCALL   ??Subroutine12_0 & 0xFFFF
??CrossCallReturnLabel_19:
        LCALL   ?PUSH_XSTACK_I_TWO
          CFI CFA_XSP16 add(XSP16, 24)
        LCALL   ?Subroutine5 & 0xFFFF
??CrossCallReturnLabel_3:
        LCALL   ??Subroutine12_0 & 0xFFFF
??CrossCallReturnLabel_20:
        LCALL   ?PUSH_XSTACK_I_TWO
          CFI CFA_XSP16 add(XSP16, 26)
        MOV     DPTR,#pack
        LCALL   ??Subroutine10_0 & 0xFFFF
??CrossCallReturnLabel_6:
        INC     DPTR
        LCALL   ??Subroutine12_0 & 0xFFFF
??CrossCallReturnLabel_21:
        LCALL   ?PUSH_XSTACK_I_TWO
          CFI CFA_XSP16 add(XSP16, 28)
        MOV     DPTR,#pack
        LCALL   ??Subroutine10_0 & 0xFFFF
??CrossCallReturnLabel_7:
        LCALL   ??Subroutine12_0 & 0xFFFF
??CrossCallReturnLabel_22:
        LCALL   ?PUSH_XSTACK_I_TWO
          CFI CFA_XSP16 add(XSP16, 30)
        MOV     R2,#`?<Constant "\\267\\242\\313\\315\\270\\370WIFI:%X %X` & 0xff
        MOV     R3,#(`?<Constant "\\267\\242\\313\\315\\270\\370WIFI:%X %X` >> 8) & 0xff
        LCALL   `??printf::?relay`   ; Banked call to: printf
        MOV     A,#0x12
        LCALL   ?DEALLOC_XSTACK8
          CFI CFA_XSP16 add(XSP16, 12)
??ESP8266_Data_Send_1:
        INC     R6
        MOV     A,R6
        CLR     C
        SUBB    A,#0x5
        JNC     $+5
        LJMP    ??ESP8266_Data_Send_0 & 0xFFFF
//  116 }
        MOV     R7,#0x4
        LJMP    ?BANKED_LEAVE_XDATA
          CFI EndBlock cfiBlock26

        RSEG BANKED_CODE:CODE:NOROOT(0)
?Subroutine7:
          CFI Block cfiCond27 Using cfiCommon0
          CFI Function ESP8266_Data_Send
          CFI Conditional ??CrossCallReturnLabel_14
          CFI R6 load(1, XDATA, add(CFA_XSP16, literal(-12)))
          CFI VB load(1, XDATA, add(CFA_XSP16, literal(-11)))
          CFI V0 load(1, XDATA, add(CFA_XSP16, literal(-10)))
          CFI V1 load(1, XDATA, add(CFA_XSP16, literal(-9)))
          CFI V2 load(1, XDATA, add(CFA_XSP16, literal(-8)))
          CFI V3 load(1, XDATA, add(CFA_XSP16, literal(-7)))
          CFI R7 load(1, XDATA, add(CFA_XSP16, literal(-6)))
          CFI ?RET_LOW load(1, XDATA, add(CFA_XSP16, literal(-5)))
          CFI ?RET_HIGH load(1, XDATA, add(CFA_XSP16, literal(-4)))
          CFI ?BRET_EXT load(1, XDATA, add(CFA_XSP16, literal(-3)))
          CFI DPL0 load(1, XDATA, add(CFA_XSP16, literal(-2)))
          CFI DPH0 load(1, XDATA, add(CFA_XSP16, literal(-1)))
          CFI CFA_SP SP+-2
          CFI CFA_XSP16 add(XSP16, 12)
          CFI Block cfiCond28 Using cfiCommon0
          CFI (cfiCond28) Function ESP8266_Data_Send
          CFI (cfiCond28) Conditional ??CrossCallReturnLabel_15
          CFI (cfiCond28) R6 load(1, XDATA, add(CFA_XSP16, literal(-12)))
          CFI (cfiCond28) VB load(1, XDATA, add(CFA_XSP16, literal(-11)))
          CFI (cfiCond28) V0 load(1, XDATA, add(CFA_XSP16, literal(-10)))
          CFI (cfiCond28) V1 load(1, XDATA, add(CFA_XSP16, literal(-9)))
          CFI (cfiCond28) V2 load(1, XDATA, add(CFA_XSP16, literal(-8)))
          CFI (cfiCond28) V3 load(1, XDATA, add(CFA_XSP16, literal(-7)))
          CFI (cfiCond28) R7 load(1, XDATA, add(CFA_XSP16, literal(-6)))
          CFI (cfiCond28) ?RET_LOW load(1, XDATA, add(CFA_XSP16, literal(-5)))
          CFI (cfiCond28) ?RET_HIGH load(1, XDATA, add(CFA_XSP16, literal(-4)))
          CFI (cfiCond28) ?BRET_EXT load(1, XDATA, add(CFA_XSP16, literal(-3)))
          CFI (cfiCond28) DPL0 load(1, XDATA, add(CFA_XSP16, literal(-2)))
          CFI (cfiCond28) DPH0 load(1, XDATA, add(CFA_XSP16, literal(-1)))
          CFI (cfiCond28) CFA_SP SP+-2
          CFI (cfiCond28) CFA_XSP16 add(XSP16, 14)
          CFI Block cfiCond29 Using cfiCommon0
          CFI (cfiCond29) Function ESP8266_Data_Send
          CFI (cfiCond29) Conditional ??CrossCallReturnLabel_16
          CFI (cfiCond29) R6 load(1, XDATA, add(CFA_XSP16, literal(-12)))
          CFI (cfiCond29) VB load(1, XDATA, add(CFA_XSP16, literal(-11)))
          CFI (cfiCond29) V0 load(1, XDATA, add(CFA_XSP16, literal(-10)))
          CFI (cfiCond29) V1 load(1, XDATA, add(CFA_XSP16, literal(-9)))
          CFI (cfiCond29) V2 load(1, XDATA, add(CFA_XSP16, literal(-8)))
          CFI (cfiCond29) V3 load(1, XDATA, add(CFA_XSP16, literal(-7)))
          CFI (cfiCond29) R7 load(1, XDATA, add(CFA_XSP16, literal(-6)))
          CFI (cfiCond29) ?RET_LOW load(1, XDATA, add(CFA_XSP16, literal(-5)))
          CFI (cfiCond29) ?RET_HIGH load(1, XDATA, add(CFA_XSP16, literal(-4)))
          CFI (cfiCond29) ?BRET_EXT load(1, XDATA, add(CFA_XSP16, literal(-3)))
          CFI (cfiCond29) DPL0 load(1, XDATA, add(CFA_XSP16, literal(-2)))
          CFI (cfiCond29) DPH0 load(1, XDATA, add(CFA_XSP16, literal(-1)))
          CFI (cfiCond29) CFA_SP SP+-2
          CFI (cfiCond29) CFA_XSP16 add(XSP16, 16)
          CFI Block cfiPicker30 Using cfiCommon1
          CFI (cfiPicker30) NoFunction
          CFI (cfiPicker30) Picker
        MOV     DPTR,#pack
          CFI EndBlock cfiCond27
          CFI EndBlock cfiCond28
          CFI EndBlock cfiCond29
          CFI EndBlock cfiPicker30
        REQUIRE ??Subroutine11_0
        ; // Fall through to label ??Subroutine11_0

        RSEG BANKED_CODE:CODE:NOROOT(0)
??Subroutine11_0:
          CFI Block cfiCond31 Using cfiCommon0
          CFI Function ESP8266_Protocol_Send
          CFI Conditional ??CrossCallReturnLabel_13
          CFI DPL0 Frame(CFA_SP, 4)
          CFI DPH0 Frame(CFA_SP, 5)
          CFI CFA_SP SP+-7
          CFI Block cfiCond32 Using cfiCommon0
          CFI (cfiCond32) Function ESP8266_Data_Send
          CFI (cfiCond32) Conditional ??CrossCallReturnLabel_14
          CFI (cfiCond32) R6 load(1, XDATA, add(CFA_XSP16, literal(-12)))
          CFI (cfiCond32) VB load(1, XDATA, add(CFA_XSP16, literal(-11)))
          CFI (cfiCond32) V0 load(1, XDATA, add(CFA_XSP16, literal(-10)))
          CFI (cfiCond32) V1 load(1, XDATA, add(CFA_XSP16, literal(-9)))
          CFI (cfiCond32) V2 load(1, XDATA, add(CFA_XSP16, literal(-8)))
          CFI (cfiCond32) V3 load(1, XDATA, add(CFA_XSP16, literal(-7)))
          CFI (cfiCond32) R7 load(1, XDATA, add(CFA_XSP16, literal(-6)))
          CFI (cfiCond32) ?RET_LOW load(1, XDATA, add(CFA_XSP16, literal(-5)))
          CFI (cfiCond32) ?RET_HIGH load(1, XDATA, add(CFA_XSP16, literal(-4)))
          CFI (cfiCond32) ?BRET_EXT load(1, XDATA, add(CFA_XSP16, literal(-3)))
          CFI (cfiCond32) DPL0 load(1, XDATA, add(CFA_XSP16, literal(-2)))
          CFI (cfiCond32) DPH0 load(1, XDATA, add(CFA_XSP16, literal(-1)))
          CFI (cfiCond32) CFA_SP SP+-2
          CFI (cfiCond32) CFA_XSP16 add(XSP16, 12)
          CFI Block cfiCond33 Using cfiCommon0
          CFI (cfiCond33) Function ESP8266_Data_Send
          CFI (cfiCond33) Conditional ??CrossCallReturnLabel_15
          CFI (cfiCond33) R6 load(1, XDATA, add(CFA_XSP16, literal(-12)))
          CFI (cfiCond33) VB load(1, XDATA, add(CFA_XSP16, literal(-11)))
          CFI (cfiCond33) V0 load(1, XDATA, add(CFA_XSP16, literal(-10)))
          CFI (cfiCond33) V1 load(1, XDATA, add(CFA_XSP16, literal(-9)))
          CFI (cfiCond33) V2 load(1, XDATA, add(CFA_XSP16, literal(-8)))
          CFI (cfiCond33) V3 load(1, XDATA, add(CFA_XSP16, literal(-7)))
          CFI (cfiCond33) R7 load(1, XDATA, add(CFA_XSP16, literal(-6)))
          CFI (cfiCond33) ?RET_LOW load(1, XDATA, add(CFA_XSP16, literal(-5)))
          CFI (cfiCond33) ?RET_HIGH load(1, XDATA, add(CFA_XSP16, literal(-4)))
          CFI (cfiCond33) ?BRET_EXT load(1, XDATA, add(CFA_XSP16, literal(-3)))
          CFI (cfiCond33) DPL0 load(1, XDATA, add(CFA_XSP16, literal(-2)))
          CFI (cfiCond33) DPH0 load(1, XDATA, add(CFA_XSP16, literal(-1)))
          CFI (cfiCond33) CFA_SP SP+-2
          CFI (cfiCond33) CFA_XSP16 add(XSP16, 14)
          CFI Block cfiCond34 Using cfiCommon0
          CFI (cfiCond34) Function ESP8266_Data_Send
          CFI (cfiCond34) Conditional ??CrossCallReturnLabel_16
          CFI (cfiCond34) R6 load(1, XDATA, add(CFA_XSP16, literal(-12)))
          CFI (cfiCond34) VB load(1, XDATA, add(CFA_XSP16, literal(-11)))
          CFI (cfiCond34) V0 load(1, XDATA, add(CFA_XSP16, literal(-10)))
          CFI (cfiCond34) V1 load(1, XDATA, add(CFA_XSP16, literal(-9)))
          CFI (cfiCond34) V2 load(1, XDATA, add(CFA_XSP16, literal(-8)))
          CFI (cfiCond34) V3 load(1, XDATA, add(CFA_XSP16, literal(-7)))
          CFI (cfiCond34) R7 load(1, XDATA, add(CFA_XSP16, literal(-6)))
          CFI (cfiCond34) ?RET_LOW load(1, XDATA, add(CFA_XSP16, literal(-5)))
          CFI (cfiCond34) ?RET_HIGH load(1, XDATA, add(CFA_XSP16, literal(-4)))
          CFI (cfiCond34) ?BRET_EXT load(1, XDATA, add(CFA_XSP16, literal(-3)))
          CFI (cfiCond34) DPL0 load(1, XDATA, add(CFA_XSP16, literal(-2)))
          CFI (cfiCond34) DPH0 load(1, XDATA, add(CFA_XSP16, literal(-1)))
          CFI (cfiCond34) CFA_SP SP+-2
          CFI (cfiCond34) CFA_XSP16 add(XSP16, 16)
          CFI Block cfiPicker35 Using cfiCommon1
          CFI (cfiPicker35) NoFunction
          CFI (cfiPicker35) Picker
        MOVX    A,@DPTR
        MOV     R0,A
        INC     DPTR
        MOVX    A,@DPTR
        XCH     A,R0
        RET
          CFI EndBlock cfiCond31
          CFI EndBlock cfiCond32
          CFI EndBlock cfiCond33
          CFI EndBlock cfiCond34
          CFI EndBlock cfiPicker35

        RSEG BANKED_CODE:CODE:NOROOT(0)
?Subroutine5:
          CFI Block cfiCond36 Using cfiCommon0
          CFI Function ESP8266_Data_Send
          CFI Conditional ??CrossCallReturnLabel_2
          CFI R6 load(1, XDATA, add(CFA_XSP16, literal(-12)))
          CFI VB load(1, XDATA, add(CFA_XSP16, literal(-11)))
          CFI V0 load(1, XDATA, add(CFA_XSP16, literal(-10)))
          CFI V1 load(1, XDATA, add(CFA_XSP16, literal(-9)))
          CFI V2 load(1, XDATA, add(CFA_XSP16, literal(-8)))
          CFI V3 load(1, XDATA, add(CFA_XSP16, literal(-7)))
          CFI R7 load(1, XDATA, add(CFA_XSP16, literal(-6)))
          CFI ?RET_LOW load(1, XDATA, add(CFA_XSP16, literal(-5)))
          CFI ?RET_HIGH load(1, XDATA, add(CFA_XSP16, literal(-4)))
          CFI ?BRET_EXT load(1, XDATA, add(CFA_XSP16, literal(-3)))
          CFI DPL0 load(1, XDATA, add(CFA_XSP16, literal(-2)))
          CFI DPH0 load(1, XDATA, add(CFA_XSP16, literal(-1)))
          CFI CFA_SP SP+-2
          CFI CFA_XSP16 add(XSP16, 22)
          CFI Block cfiCond37 Using cfiCommon0
          CFI (cfiCond37) Function ESP8266_Data_Send
          CFI (cfiCond37) Conditional ??CrossCallReturnLabel_3
          CFI (cfiCond37) R6 load(1, XDATA, add(CFA_XSP16, literal(-12)))
          CFI (cfiCond37) VB load(1, XDATA, add(CFA_XSP16, literal(-11)))
          CFI (cfiCond37) V0 load(1, XDATA, add(CFA_XSP16, literal(-10)))
          CFI (cfiCond37) V1 load(1, XDATA, add(CFA_XSP16, literal(-9)))
          CFI (cfiCond37) V2 load(1, XDATA, add(CFA_XSP16, literal(-8)))
          CFI (cfiCond37) V3 load(1, XDATA, add(CFA_XSP16, literal(-7)))
          CFI (cfiCond37) R7 load(1, XDATA, add(CFA_XSP16, literal(-6)))
          CFI (cfiCond37) ?RET_LOW load(1, XDATA, add(CFA_XSP16, literal(-5)))
          CFI (cfiCond37) ?RET_HIGH load(1, XDATA, add(CFA_XSP16, literal(-4)))
          CFI (cfiCond37) ?BRET_EXT load(1, XDATA, add(CFA_XSP16, literal(-3)))
          CFI (cfiCond37) DPL0 load(1, XDATA, add(CFA_XSP16, literal(-2)))
          CFI (cfiCond37) DPH0 load(1, XDATA, add(CFA_XSP16, literal(-1)))
          CFI (cfiCond37) CFA_SP SP+-2
          CFI (cfiCond37) CFA_XSP16 add(XSP16, 24)
          CFI Block cfiPicker38 Using cfiCommon1
          CFI (cfiPicker38) NoFunction
          CFI (cfiPicker38) Picker
        LCALL   ?Subroutine8 & 0xFFFF
??CrossCallReturnLabel_5:
        RET
          CFI EndBlock cfiCond36
          CFI EndBlock cfiCond37
          CFI EndBlock cfiPicker38

        RSEG BANKED_CODE:CODE:NOROOT(0)
?Subroutine8:
          CFI Block cfiCond39 Using cfiCommon0
          CFI Function ESP8266_Data_Send
          CFI Conditional ??CrossCallReturnLabel_5, ??CrossCallReturnLabel_2
          CFI R6 load(1, XDATA, add(CFA_XSP16, literal(-12)))
          CFI VB load(1, XDATA, add(CFA_XSP16, literal(-11)))
          CFI V0 load(1, XDATA, add(CFA_XSP16, literal(-10)))
          CFI V1 load(1, XDATA, add(CFA_XSP16, literal(-9)))
          CFI V2 load(1, XDATA, add(CFA_XSP16, literal(-8)))
          CFI V3 load(1, XDATA, add(CFA_XSP16, literal(-7)))
          CFI R7 load(1, XDATA, add(CFA_XSP16, literal(-6)))
          CFI ?RET_LOW load(1, XDATA, add(CFA_XSP16, literal(-5)))
          CFI ?RET_HIGH load(1, XDATA, add(CFA_XSP16, literal(-4)))
          CFI ?BRET_EXT load(1, XDATA, add(CFA_XSP16, literal(-3)))
          CFI DPL0 load(1, XDATA, add(CFA_XSP16, literal(-2)))
          CFI DPH0 load(1, XDATA, add(CFA_XSP16, literal(-1)))
          CFI CFA_SP SP+-4
          CFI CFA_XSP16 add(XSP16, 22)
          CFI Block cfiCond40 Using cfiCommon0
          CFI (cfiCond40) Function ESP8266_Data_Send
          CFI (cfiCond40) Conditional ??CrossCallReturnLabel_5, ??CrossCallReturnLabel_3
          CFI (cfiCond40) R6 load(1, XDATA, add(CFA_XSP16, literal(-12)))
          CFI (cfiCond40) VB load(1, XDATA, add(CFA_XSP16, literal(-11)))
          CFI (cfiCond40) V0 load(1, XDATA, add(CFA_XSP16, literal(-10)))
          CFI (cfiCond40) V1 load(1, XDATA, add(CFA_XSP16, literal(-9)))
          CFI (cfiCond40) V2 load(1, XDATA, add(CFA_XSP16, literal(-8)))
          CFI (cfiCond40) V3 load(1, XDATA, add(CFA_XSP16, literal(-7)))
          CFI (cfiCond40) R7 load(1, XDATA, add(CFA_XSP16, literal(-6)))
          CFI (cfiCond40) ?RET_LOW load(1, XDATA, add(CFA_XSP16, literal(-5)))
          CFI (cfiCond40) ?RET_HIGH load(1, XDATA, add(CFA_XSP16, literal(-4)))
          CFI (cfiCond40) ?BRET_EXT load(1, XDATA, add(CFA_XSP16, literal(-3)))
          CFI (cfiCond40) DPL0 load(1, XDATA, add(CFA_XSP16, literal(-2)))
          CFI (cfiCond40) DPH0 load(1, XDATA, add(CFA_XSP16, literal(-1)))
          CFI (cfiCond40) CFA_SP SP+-4
          CFI (cfiCond40) CFA_XSP16 add(XSP16, 24)
          CFI Block cfiCond41 Using cfiCommon0
          CFI (cfiCond41) Function ESP8266_Data_Send
          CFI (cfiCond41) Conditional ??CrossCallReturnLabel_4, ??CrossCallReturnLabel_0
          CFI (cfiCond41) R6 load(1, XDATA, add(CFA_XSP16, literal(-12)))
          CFI (cfiCond41) VB load(1, XDATA, add(CFA_XSP16, literal(-11)))
          CFI (cfiCond41) V0 load(1, XDATA, add(CFA_XSP16, literal(-10)))
          CFI (cfiCond41) V1 load(1, XDATA, add(CFA_XSP16, literal(-9)))
          CFI (cfiCond41) V2 load(1, XDATA, add(CFA_XSP16, literal(-8)))
          CFI (cfiCond41) V3 load(1, XDATA, add(CFA_XSP16, literal(-7)))
          CFI (cfiCond41) R7 load(1, XDATA, add(CFA_XSP16, literal(-6)))
          CFI (cfiCond41) ?RET_LOW load(1, XDATA, add(CFA_XSP16, literal(-5)))
          CFI (cfiCond41) ?RET_HIGH load(1, XDATA, add(CFA_XSP16, literal(-4)))
          CFI (cfiCond41) ?BRET_EXT load(1, XDATA, add(CFA_XSP16, literal(-3)))
          CFI (cfiCond41) DPL0 load(1, XDATA, add(CFA_XSP16, literal(-2)))
          CFI (cfiCond41) DPH0 load(1, XDATA, add(CFA_XSP16, literal(-1)))
          CFI (cfiCond41) CFA_SP SP+-4
          CFI (cfiCond41) CFA_XSP16 add(XSP16, 18)
          CFI Block cfiCond42 Using cfiCommon0
          CFI (cfiCond42) Function ESP8266_Data_Send
          CFI (cfiCond42) Conditional ??CrossCallReturnLabel_4, ??CrossCallReturnLabel_1
          CFI (cfiCond42) R6 load(1, XDATA, add(CFA_XSP16, literal(-12)))
          CFI (cfiCond42) VB load(1, XDATA, add(CFA_XSP16, literal(-11)))
          CFI (cfiCond42) V0 load(1, XDATA, add(CFA_XSP16, literal(-10)))
          CFI (cfiCond42) V1 load(1, XDATA, add(CFA_XSP16, literal(-9)))
          CFI (cfiCond42) V2 load(1, XDATA, add(CFA_XSP16, literal(-8)))
          CFI (cfiCond42) V3 load(1, XDATA, add(CFA_XSP16, literal(-7)))
          CFI (cfiCond42) R7 load(1, XDATA, add(CFA_XSP16, literal(-6)))
          CFI (cfiCond42) ?RET_LOW load(1, XDATA, add(CFA_XSP16, literal(-5)))
          CFI (cfiCond42) ?RET_HIGH load(1, XDATA, add(CFA_XSP16, literal(-4)))
          CFI (cfiCond42) ?BRET_EXT load(1, XDATA, add(CFA_XSP16, literal(-3)))
          CFI (cfiCond42) DPL0 load(1, XDATA, add(CFA_XSP16, literal(-2)))
          CFI (cfiCond42) DPH0 load(1, XDATA, add(CFA_XSP16, literal(-1)))
          CFI (cfiCond42) CFA_SP SP+-4
          CFI (cfiCond42) CFA_XSP16 add(XSP16, 20)
          CFI Block cfiPicker43 Using cfiCommon1
          CFI (cfiPicker43) NoFunction
          CFI (cfiPicker43) Picker
        MOV     DPTR,#pack
        LCALL   ?Subroutine9 & 0xFFFF
??CrossCallReturnLabel_11:
        INC     DPTR
        INC     DPTR
        RET
          CFI EndBlock cfiCond39
          CFI EndBlock cfiCond40
          CFI EndBlock cfiCond41
          CFI EndBlock cfiCond42
          CFI EndBlock cfiPicker43

        RSEG BANKED_CODE:CODE:NOROOT(0)
?Subroutine4:
          CFI Block cfiCond44 Using cfiCommon0
          CFI Function ESP8266_Data_Send
          CFI Conditional ??CrossCallReturnLabel_0
          CFI R6 load(1, XDATA, add(CFA_XSP16, literal(-12)))
          CFI VB load(1, XDATA, add(CFA_XSP16, literal(-11)))
          CFI V0 load(1, XDATA, add(CFA_XSP16, literal(-10)))
          CFI V1 load(1, XDATA, add(CFA_XSP16, literal(-9)))
          CFI V2 load(1, XDATA, add(CFA_XSP16, literal(-8)))
          CFI V3 load(1, XDATA, add(CFA_XSP16, literal(-7)))
          CFI R7 load(1, XDATA, add(CFA_XSP16, literal(-6)))
          CFI ?RET_LOW load(1, XDATA, add(CFA_XSP16, literal(-5)))
          CFI ?RET_HIGH load(1, XDATA, add(CFA_XSP16, literal(-4)))
          CFI ?BRET_EXT load(1, XDATA, add(CFA_XSP16, literal(-3)))
          CFI DPL0 load(1, XDATA, add(CFA_XSP16, literal(-2)))
          CFI DPH0 load(1, XDATA, add(CFA_XSP16, literal(-1)))
          CFI CFA_SP SP+-2
          CFI CFA_XSP16 add(XSP16, 18)
          CFI Block cfiCond45 Using cfiCommon0
          CFI (cfiCond45) Function ESP8266_Data_Send
          CFI (cfiCond45) Conditional ??CrossCallReturnLabel_1
          CFI (cfiCond45) R6 load(1, XDATA, add(CFA_XSP16, literal(-12)))
          CFI (cfiCond45) VB load(1, XDATA, add(CFA_XSP16, literal(-11)))
          CFI (cfiCond45) V0 load(1, XDATA, add(CFA_XSP16, literal(-10)))
          CFI (cfiCond45) V1 load(1, XDATA, add(CFA_XSP16, literal(-9)))
          CFI (cfiCond45) V2 load(1, XDATA, add(CFA_XSP16, literal(-8)))
          CFI (cfiCond45) V3 load(1, XDATA, add(CFA_XSP16, literal(-7)))
          CFI (cfiCond45) R7 load(1, XDATA, add(CFA_XSP16, literal(-6)))
          CFI (cfiCond45) ?RET_LOW load(1, XDATA, add(CFA_XSP16, literal(-5)))
          CFI (cfiCond45) ?RET_HIGH load(1, XDATA, add(CFA_XSP16, literal(-4)))
          CFI (cfiCond45) ?BRET_EXT load(1, XDATA, add(CFA_XSP16, literal(-3)))
          CFI (cfiCond45) DPL0 load(1, XDATA, add(CFA_XSP16, literal(-2)))
          CFI (cfiCond45) DPH0 load(1, XDATA, add(CFA_XSP16, literal(-1)))
          CFI (cfiCond45) CFA_SP SP+-2
          CFI (cfiCond45) CFA_XSP16 add(XSP16, 20)
          CFI Block cfiPicker46 Using cfiCommon1
          CFI (cfiPicker46) NoFunction
          CFI (cfiPicker46) Picker
        LCALL   ?Subroutine8 & 0xFFFF
??CrossCallReturnLabel_4:
        INC     DPTR
        INC     DPTR
        RET
          CFI EndBlock cfiCond44
          CFI EndBlock cfiCond45
          CFI EndBlock cfiPicker46

        RSEG BANKED_CODE:CODE:NOROOT(0)
?Subroutine3:
          CFI Block cfiCond47 Using cfiCommon0
          CFI Function ESP8266_Data_Send
          CFI Conditional ??CrossCallReturnLabel_23
          CFI R6 load(1, XDATA, add(CFA_XSP16, literal(-12)))
          CFI VB load(1, XDATA, add(CFA_XSP16, literal(-11)))
          CFI V0 load(1, XDATA, add(CFA_XSP16, literal(-10)))
          CFI V1 load(1, XDATA, add(CFA_XSP16, literal(-9)))
          CFI V2 load(1, XDATA, add(CFA_XSP16, literal(-8)))
          CFI V3 load(1, XDATA, add(CFA_XSP16, literal(-7)))
          CFI R7 load(1, XDATA, add(CFA_XSP16, literal(-6)))
          CFI ?RET_LOW load(1, XDATA, add(CFA_XSP16, literal(-5)))
          CFI ?RET_HIGH load(1, XDATA, add(CFA_XSP16, literal(-4)))
          CFI ?BRET_EXT load(1, XDATA, add(CFA_XSP16, literal(-3)))
          CFI DPL0 load(1, XDATA, add(CFA_XSP16, literal(-2)))
          CFI DPH0 load(1, XDATA, add(CFA_XSP16, literal(-1)))
          CFI CFA_SP SP+-2
          CFI CFA_XSP16 add(XSP16, 12)
          CFI Block cfiCond48 Using cfiCommon0
          CFI (cfiCond48) Function ESP8266_Data_Send
          CFI (cfiCond48) Conditional ??CrossCallReturnLabel_24
          CFI (cfiCond48) R6 load(1, XDATA, add(CFA_XSP16, literal(-12)))
          CFI (cfiCond48) VB load(1, XDATA, add(CFA_XSP16, literal(-11)))
          CFI (cfiCond48) V0 load(1, XDATA, add(CFA_XSP16, literal(-10)))
          CFI (cfiCond48) V1 load(1, XDATA, add(CFA_XSP16, literal(-9)))
          CFI (cfiCond48) V2 load(1, XDATA, add(CFA_XSP16, literal(-8)))
          CFI (cfiCond48) V3 load(1, XDATA, add(CFA_XSP16, literal(-7)))
          CFI (cfiCond48) R7 load(1, XDATA, add(CFA_XSP16, literal(-6)))
          CFI (cfiCond48) ?RET_LOW load(1, XDATA, add(CFA_XSP16, literal(-5)))
          CFI (cfiCond48) ?RET_HIGH load(1, XDATA, add(CFA_XSP16, literal(-4)))
          CFI (cfiCond48) ?BRET_EXT load(1, XDATA, add(CFA_XSP16, literal(-3)))
          CFI (cfiCond48) DPL0 load(1, XDATA, add(CFA_XSP16, literal(-2)))
          CFI (cfiCond48) DPH0 load(1, XDATA, add(CFA_XSP16, literal(-1)))
          CFI (cfiCond48) CFA_SP SP+-2
          CFI (cfiCond48) CFA_XSP16 add(XSP16, 14)
          CFI Block cfiCond49 Using cfiCommon0
          CFI (cfiCond49) Function ESP8266_Data_Send
          CFI (cfiCond49) Conditional ??CrossCallReturnLabel_25
          CFI (cfiCond49) R6 load(1, XDATA, add(CFA_XSP16, literal(-12)))
          CFI (cfiCond49) VB load(1, XDATA, add(CFA_XSP16, literal(-11)))
          CFI (cfiCond49) V0 load(1, XDATA, add(CFA_XSP16, literal(-10)))
          CFI (cfiCond49) V1 load(1, XDATA, add(CFA_XSP16, literal(-9)))
          CFI (cfiCond49) V2 load(1, XDATA, add(CFA_XSP16, literal(-8)))
          CFI (cfiCond49) V3 load(1, XDATA, add(CFA_XSP16, literal(-7)))
          CFI (cfiCond49) R7 load(1, XDATA, add(CFA_XSP16, literal(-6)))
          CFI (cfiCond49) ?RET_LOW load(1, XDATA, add(CFA_XSP16, literal(-5)))
          CFI (cfiCond49) ?RET_HIGH load(1, XDATA, add(CFA_XSP16, literal(-4)))
          CFI (cfiCond49) ?BRET_EXT load(1, XDATA, add(CFA_XSP16, literal(-3)))
          CFI (cfiCond49) DPL0 load(1, XDATA, add(CFA_XSP16, literal(-2)))
          CFI (cfiCond49) DPH0 load(1, XDATA, add(CFA_XSP16, literal(-1)))
          CFI (cfiCond49) CFA_SP SP+-2
          CFI (cfiCond49) CFA_XSP16 add(XSP16, 16)
          CFI Block cfiPicker50 Using cfiCommon1
          CFI (cfiPicker50) NoFunction
          CFI (cfiPicker50) Picker
        MOV     DPL,A
        CLR     A
        ADDC    A,R0
        MOV     DPH,A
          CFI EndBlock cfiCond47
          CFI EndBlock cfiCond48
          CFI EndBlock cfiCond49
          CFI EndBlock cfiPicker50
        REQUIRE ??Subroutine12_0
        ; // Fall through to label ??Subroutine12_0

        RSEG BANKED_CODE:CODE:NOROOT(0)
??Subroutine12_0:
          CFI Block cfiCond51 Using cfiCommon0
          CFI Function ESP8266_Data_Send
          CFI Conditional ??CrossCallReturnLabel_17
          CFI R6 load(1, XDATA, add(CFA_XSP16, literal(-12)))
          CFI VB load(1, XDATA, add(CFA_XSP16, literal(-11)))
          CFI V0 load(1, XDATA, add(CFA_XSP16, literal(-10)))
          CFI V1 load(1, XDATA, add(CFA_XSP16, literal(-9)))
          CFI V2 load(1, XDATA, add(CFA_XSP16, literal(-8)))
          CFI V3 load(1, XDATA, add(CFA_XSP16, literal(-7)))
          CFI R7 load(1, XDATA, add(CFA_XSP16, literal(-6)))
          CFI ?RET_LOW load(1, XDATA, add(CFA_XSP16, literal(-5)))
          CFI ?RET_HIGH load(1, XDATA, add(CFA_XSP16, literal(-4)))
          CFI ?BRET_EXT load(1, XDATA, add(CFA_XSP16, literal(-3)))
          CFI DPL0 load(1, XDATA, add(CFA_XSP16, literal(-2)))
          CFI DPH0 load(1, XDATA, add(CFA_XSP16, literal(-1)))
          CFI CFA_SP SP+-2
          CFI CFA_XSP16 add(XSP16, 18)
          CFI Block cfiCond52 Using cfiCommon0
          CFI (cfiCond52) Function ESP8266_Data_Send
          CFI (cfiCond52) Conditional ??CrossCallReturnLabel_18
          CFI (cfiCond52) R6 load(1, XDATA, add(CFA_XSP16, literal(-12)))
          CFI (cfiCond52) VB load(1, XDATA, add(CFA_XSP16, literal(-11)))
          CFI (cfiCond52) V0 load(1, XDATA, add(CFA_XSP16, literal(-10)))
          CFI (cfiCond52) V1 load(1, XDATA, add(CFA_XSP16, literal(-9)))
          CFI (cfiCond52) V2 load(1, XDATA, add(CFA_XSP16, literal(-8)))
          CFI (cfiCond52) V3 load(1, XDATA, add(CFA_XSP16, literal(-7)))
          CFI (cfiCond52) R7 load(1, XDATA, add(CFA_XSP16, literal(-6)))
          CFI (cfiCond52) ?RET_LOW load(1, XDATA, add(CFA_XSP16, literal(-5)))
          CFI (cfiCond52) ?RET_HIGH load(1, XDATA, add(CFA_XSP16, literal(-4)))
          CFI (cfiCond52) ?BRET_EXT load(1, XDATA, add(CFA_XSP16, literal(-3)))
          CFI (cfiCond52) DPL0 load(1, XDATA, add(CFA_XSP16, literal(-2)))
          CFI (cfiCond52) DPH0 load(1, XDATA, add(CFA_XSP16, literal(-1)))
          CFI (cfiCond52) CFA_SP SP+-2
          CFI (cfiCond52) CFA_XSP16 add(XSP16, 20)
          CFI Block cfiCond53 Using cfiCommon0
          CFI (cfiCond53) Function ESP8266_Data_Send
          CFI (cfiCond53) Conditional ??CrossCallReturnLabel_19
          CFI (cfiCond53) R6 load(1, XDATA, add(CFA_XSP16, literal(-12)))
          CFI (cfiCond53) VB load(1, XDATA, add(CFA_XSP16, literal(-11)))
          CFI (cfiCond53) V0 load(1, XDATA, add(CFA_XSP16, literal(-10)))
          CFI (cfiCond53) V1 load(1, XDATA, add(CFA_XSP16, literal(-9)))
          CFI (cfiCond53) V2 load(1, XDATA, add(CFA_XSP16, literal(-8)))
          CFI (cfiCond53) V3 load(1, XDATA, add(CFA_XSP16, literal(-7)))
          CFI (cfiCond53) R7 load(1, XDATA, add(CFA_XSP16, literal(-6)))
          CFI (cfiCond53) ?RET_LOW load(1, XDATA, add(CFA_XSP16, literal(-5)))
          CFI (cfiCond53) ?RET_HIGH load(1, XDATA, add(CFA_XSP16, literal(-4)))
          CFI (cfiCond53) ?BRET_EXT load(1, XDATA, add(CFA_XSP16, literal(-3)))
          CFI (cfiCond53) DPL0 load(1, XDATA, add(CFA_XSP16, literal(-2)))
          CFI (cfiCond53) DPH0 load(1, XDATA, add(CFA_XSP16, literal(-1)))
          CFI (cfiCond53) CFA_SP SP+-2
          CFI (cfiCond53) CFA_XSP16 add(XSP16, 22)
          CFI Block cfiCond54 Using cfiCommon0
          CFI (cfiCond54) Function ESP8266_Data_Send
          CFI (cfiCond54) Conditional ??CrossCallReturnLabel_20
          CFI (cfiCond54) R6 load(1, XDATA, add(CFA_XSP16, literal(-12)))
          CFI (cfiCond54) VB load(1, XDATA, add(CFA_XSP16, literal(-11)))
          CFI (cfiCond54) V0 load(1, XDATA, add(CFA_XSP16, literal(-10)))
          CFI (cfiCond54) V1 load(1, XDATA, add(CFA_XSP16, literal(-9)))
          CFI (cfiCond54) V2 load(1, XDATA, add(CFA_XSP16, literal(-8)))
          CFI (cfiCond54) V3 load(1, XDATA, add(CFA_XSP16, literal(-7)))
          CFI (cfiCond54) R7 load(1, XDATA, add(CFA_XSP16, literal(-6)))
          CFI (cfiCond54) ?RET_LOW load(1, XDATA, add(CFA_XSP16, literal(-5)))
          CFI (cfiCond54) ?RET_HIGH load(1, XDATA, add(CFA_XSP16, literal(-4)))
          CFI (cfiCond54) ?BRET_EXT load(1, XDATA, add(CFA_XSP16, literal(-3)))
          CFI (cfiCond54) DPL0 load(1, XDATA, add(CFA_XSP16, literal(-2)))
          CFI (cfiCond54) DPH0 load(1, XDATA, add(CFA_XSP16, literal(-1)))
          CFI (cfiCond54) CFA_SP SP+-2
          CFI (cfiCond54) CFA_XSP16 add(XSP16, 24)
          CFI Block cfiCond55 Using cfiCommon0
          CFI (cfiCond55) Function ESP8266_Data_Send
          CFI (cfiCond55) Conditional ??CrossCallReturnLabel_21
          CFI (cfiCond55) R6 load(1, XDATA, add(CFA_XSP16, literal(-12)))
          CFI (cfiCond55) VB load(1, XDATA, add(CFA_XSP16, literal(-11)))
          CFI (cfiCond55) V0 load(1, XDATA, add(CFA_XSP16, literal(-10)))
          CFI (cfiCond55) V1 load(1, XDATA, add(CFA_XSP16, literal(-9)))
          CFI (cfiCond55) V2 load(1, XDATA, add(CFA_XSP16, literal(-8)))
          CFI (cfiCond55) V3 load(1, XDATA, add(CFA_XSP16, literal(-7)))
          CFI (cfiCond55) R7 load(1, XDATA, add(CFA_XSP16, literal(-6)))
          CFI (cfiCond55) ?RET_LOW load(1, XDATA, add(CFA_XSP16, literal(-5)))
          CFI (cfiCond55) ?RET_HIGH load(1, XDATA, add(CFA_XSP16, literal(-4)))
          CFI (cfiCond55) ?BRET_EXT load(1, XDATA, add(CFA_XSP16, literal(-3)))
          CFI (cfiCond55) DPL0 load(1, XDATA, add(CFA_XSP16, literal(-2)))
          CFI (cfiCond55) DPH0 load(1, XDATA, add(CFA_XSP16, literal(-1)))
          CFI (cfiCond55) CFA_SP SP+-2
          CFI (cfiCond55) CFA_XSP16 add(XSP16, 26)
          CFI Block cfiCond56 Using cfiCommon0
          CFI (cfiCond56) Function ESP8266_Data_Send
          CFI (cfiCond56) Conditional ??CrossCallReturnLabel_22
          CFI (cfiCond56) R6 load(1, XDATA, add(CFA_XSP16, literal(-12)))
          CFI (cfiCond56) VB load(1, XDATA, add(CFA_XSP16, literal(-11)))
          CFI (cfiCond56) V0 load(1, XDATA, add(CFA_XSP16, literal(-10)))
          CFI (cfiCond56) V1 load(1, XDATA, add(CFA_XSP16, literal(-9)))
          CFI (cfiCond56) V2 load(1, XDATA, add(CFA_XSP16, literal(-8)))
          CFI (cfiCond56) V3 load(1, XDATA, add(CFA_XSP16, literal(-7)))
          CFI (cfiCond56) R7 load(1, XDATA, add(CFA_XSP16, literal(-6)))
          CFI (cfiCond56) ?RET_LOW load(1, XDATA, add(CFA_XSP16, literal(-5)))
          CFI (cfiCond56) ?RET_HIGH load(1, XDATA, add(CFA_XSP16, literal(-4)))
          CFI (cfiCond56) ?BRET_EXT load(1, XDATA, add(CFA_XSP16, literal(-3)))
          CFI (cfiCond56) DPL0 load(1, XDATA, add(CFA_XSP16, literal(-2)))
          CFI (cfiCond56) DPH0 load(1, XDATA, add(CFA_XSP16, literal(-1)))
          CFI (cfiCond56) CFA_SP SP+-2
          CFI (cfiCond56) CFA_XSP16 add(XSP16, 28)
          CFI Block cfiCond57 Using cfiCommon0
          CFI (cfiCond57) Function ESP8266_Data_Send
          CFI (cfiCond57) Conditional ??CrossCallReturnLabel_23
          CFI (cfiCond57) R6 load(1, XDATA, add(CFA_XSP16, literal(-12)))
          CFI (cfiCond57) VB load(1, XDATA, add(CFA_XSP16, literal(-11)))
          CFI (cfiCond57) V0 load(1, XDATA, add(CFA_XSP16, literal(-10)))
          CFI (cfiCond57) V1 load(1, XDATA, add(CFA_XSP16, literal(-9)))
          CFI (cfiCond57) V2 load(1, XDATA, add(CFA_XSP16, literal(-8)))
          CFI (cfiCond57) V3 load(1, XDATA, add(CFA_XSP16, literal(-7)))
          CFI (cfiCond57) R7 load(1, XDATA, add(CFA_XSP16, literal(-6)))
          CFI (cfiCond57) ?RET_LOW load(1, XDATA, add(CFA_XSP16, literal(-5)))
          CFI (cfiCond57) ?RET_HIGH load(1, XDATA, add(CFA_XSP16, literal(-4)))
          CFI (cfiCond57) ?BRET_EXT load(1, XDATA, add(CFA_XSP16, literal(-3)))
          CFI (cfiCond57) DPL0 load(1, XDATA, add(CFA_XSP16, literal(-2)))
          CFI (cfiCond57) DPH0 load(1, XDATA, add(CFA_XSP16, literal(-1)))
          CFI (cfiCond57) CFA_SP SP+-2
          CFI (cfiCond57) CFA_XSP16 add(XSP16, 12)
          CFI Block cfiCond58 Using cfiCommon0
          CFI (cfiCond58) Function ESP8266_Data_Send
          CFI (cfiCond58) Conditional ??CrossCallReturnLabel_24
          CFI (cfiCond58) R6 load(1, XDATA, add(CFA_XSP16, literal(-12)))
          CFI (cfiCond58) VB load(1, XDATA, add(CFA_XSP16, literal(-11)))
          CFI (cfiCond58) V0 load(1, XDATA, add(CFA_XSP16, literal(-10)))
          CFI (cfiCond58) V1 load(1, XDATA, add(CFA_XSP16, literal(-9)))
          CFI (cfiCond58) V2 load(1, XDATA, add(CFA_XSP16, literal(-8)))
          CFI (cfiCond58) V3 load(1, XDATA, add(CFA_XSP16, literal(-7)))
          CFI (cfiCond58) R7 load(1, XDATA, add(CFA_XSP16, literal(-6)))
          CFI (cfiCond58) ?RET_LOW load(1, XDATA, add(CFA_XSP16, literal(-5)))
          CFI (cfiCond58) ?RET_HIGH load(1, XDATA, add(CFA_XSP16, literal(-4)))
          CFI (cfiCond58) ?BRET_EXT load(1, XDATA, add(CFA_XSP16, literal(-3)))
          CFI (cfiCond58) DPL0 load(1, XDATA, add(CFA_XSP16, literal(-2)))
          CFI (cfiCond58) DPH0 load(1, XDATA, add(CFA_XSP16, literal(-1)))
          CFI (cfiCond58) CFA_SP SP+-2
          CFI (cfiCond58) CFA_XSP16 add(XSP16, 14)
          CFI Block cfiCond59 Using cfiCommon0
          CFI (cfiCond59) Function ESP8266_Data_Send
          CFI (cfiCond59) Conditional ??CrossCallReturnLabel_25
          CFI (cfiCond59) R6 load(1, XDATA, add(CFA_XSP16, literal(-12)))
          CFI (cfiCond59) VB load(1, XDATA, add(CFA_XSP16, literal(-11)))
          CFI (cfiCond59) V0 load(1, XDATA, add(CFA_XSP16, literal(-10)))
          CFI (cfiCond59) V1 load(1, XDATA, add(CFA_XSP16, literal(-9)))
          CFI (cfiCond59) V2 load(1, XDATA, add(CFA_XSP16, literal(-8)))
          CFI (cfiCond59) V3 load(1, XDATA, add(CFA_XSP16, literal(-7)))
          CFI (cfiCond59) R7 load(1, XDATA, add(CFA_XSP16, literal(-6)))
          CFI (cfiCond59) ?RET_LOW load(1, XDATA, add(CFA_XSP16, literal(-5)))
          CFI (cfiCond59) ?RET_HIGH load(1, XDATA, add(CFA_XSP16, literal(-4)))
          CFI (cfiCond59) ?BRET_EXT load(1, XDATA, add(CFA_XSP16, literal(-3)))
          CFI (cfiCond59) DPL0 load(1, XDATA, add(CFA_XSP16, literal(-2)))
          CFI (cfiCond59) DPH0 load(1, XDATA, add(CFA_XSP16, literal(-1)))
          CFI (cfiCond59) CFA_SP SP+-2
          CFI (cfiCond59) CFA_XSP16 add(XSP16, 16)
          CFI Block cfiPicker60 Using cfiCommon1
          CFI (cfiPicker60) NoFunction
          CFI (cfiPicker60) Picker
        MOVX    A,@DPTR
        MOV     ?V2,A
        MOV     R0,#?V2
        RET
          CFI EndBlock cfiCond51
          CFI EndBlock cfiCond52
          CFI EndBlock cfiCond53
          CFI EndBlock cfiCond54
          CFI EndBlock cfiCond55
          CFI EndBlock cfiCond56
          CFI EndBlock cfiCond57
          CFI EndBlock cfiCond58
          CFI EndBlock cfiCond59
          CFI EndBlock cfiPicker60

        RSEG BANKED_CODE:CODE:NOROOT(0)
?Subroutine2:
          CFI Block cfiCond61 Using cfiCommon0
          CFI Function ESP8266_Run
          CFI Conditional ??CrossCallReturnLabel_35
          CFI DPL0 Frame(CFA_SP, 4)
          CFI DPH0 Frame(CFA_SP, 5)
          CFI CFA_SP SP+-7
          CFI Block cfiCond62 Using cfiCommon0
          CFI (cfiCond62) Function ESP8266_Run
          CFI (cfiCond62) Conditional ??CrossCallReturnLabel_36
          CFI (cfiCond62) DPL0 Frame(CFA_SP, 4)
          CFI (cfiCond62) DPH0 Frame(CFA_SP, 5)
          CFI (cfiCond62) CFA_SP SP+-7
          CFI Block cfiCond63 Using cfiCommon0
          CFI (cfiCond63) Function ESP8266_CMD_Send
          CFI (cfiCond63) Conditional ??CrossCallReturnLabel_37
          CFI (cfiCond63) R6 load(1, XDATA, add(CFA_XSP16, literal(-10)))
          CFI (cfiCond63) VB load(1, XDATA, add(CFA_XSP16, literal(-9)))
          CFI (cfiCond63) V0 load(1, XDATA, add(CFA_XSP16, literal(-8)))
          CFI (cfiCond63) V1 load(1, XDATA, add(CFA_XSP16, literal(-7)))
          CFI (cfiCond63) R7 load(1, XDATA, add(CFA_XSP16, literal(-6)))
          CFI (cfiCond63) ?RET_LOW load(1, XDATA, add(CFA_XSP16, literal(-5)))
          CFI (cfiCond63) ?RET_HIGH load(1, XDATA, add(CFA_XSP16, literal(-4)))
          CFI (cfiCond63) ?BRET_EXT load(1, XDATA, add(CFA_XSP16, literal(-3)))
          CFI (cfiCond63) DPL0 load(1, XDATA, add(CFA_XSP16, literal(-2)))
          CFI (cfiCond63) DPH0 load(1, XDATA, add(CFA_XSP16, literal(-1)))
          CFI (cfiCond63) CFA_SP SP+-2
          CFI (cfiCond63) CFA_XSP16 add(XSP16, 10)
          CFI Block cfiCond64 Using cfiCommon0
          CFI (cfiCond64) Function ESP8266_Data_Send
          CFI (cfiCond64) Conditional ??CrossCallReturnLabel_38
          CFI (cfiCond64) R6 load(1, XDATA, add(CFA_XSP16, literal(-12)))
          CFI (cfiCond64) VB load(1, XDATA, add(CFA_XSP16, literal(-11)))
          CFI (cfiCond64) V0 load(1, XDATA, add(CFA_XSP16, literal(-10)))
          CFI (cfiCond64) V1 load(1, XDATA, add(CFA_XSP16, literal(-9)))
          CFI (cfiCond64) V2 load(1, XDATA, add(CFA_XSP16, literal(-8)))
          CFI (cfiCond64) V3 load(1, XDATA, add(CFA_XSP16, literal(-7)))
          CFI (cfiCond64) R7 load(1, XDATA, add(CFA_XSP16, literal(-6)))
          CFI (cfiCond64) ?RET_LOW load(1, XDATA, add(CFA_XSP16, literal(-5)))
          CFI (cfiCond64) ?RET_HIGH load(1, XDATA, add(CFA_XSP16, literal(-4)))
          CFI (cfiCond64) ?BRET_EXT load(1, XDATA, add(CFA_XSP16, literal(-3)))
          CFI (cfiCond64) DPL0 load(1, XDATA, add(CFA_XSP16, literal(-2)))
          CFI (cfiCond64) DPH0 load(1, XDATA, add(CFA_XSP16, literal(-1)))
          CFI (cfiCond64) CFA_SP SP+-2
          CFI (cfiCond64) CFA_XSP16 add(XSP16, 12)
          CFI Block cfiCond65 Using cfiCommon0
          CFI (cfiCond65) Function ESP8266_Data_Send
          CFI (cfiCond65) Conditional ??CrossCallReturnLabel_39
          CFI (cfiCond65) R6 load(1, XDATA, add(CFA_XSP16, literal(-12)))
          CFI (cfiCond65) VB load(1, XDATA, add(CFA_XSP16, literal(-11)))
          CFI (cfiCond65) V0 load(1, XDATA, add(CFA_XSP16, literal(-10)))
          CFI (cfiCond65) V1 load(1, XDATA, add(CFA_XSP16, literal(-9)))
          CFI (cfiCond65) V2 load(1, XDATA, add(CFA_XSP16, literal(-8)))
          CFI (cfiCond65) V3 load(1, XDATA, add(CFA_XSP16, literal(-7)))
          CFI (cfiCond65) R7 load(1, XDATA, add(CFA_XSP16, literal(-6)))
          CFI (cfiCond65) ?RET_LOW load(1, XDATA, add(CFA_XSP16, literal(-5)))
          CFI (cfiCond65) ?RET_HIGH load(1, XDATA, add(CFA_XSP16, literal(-4)))
          CFI (cfiCond65) ?BRET_EXT load(1, XDATA, add(CFA_XSP16, literal(-3)))
          CFI (cfiCond65) DPL0 load(1, XDATA, add(CFA_XSP16, literal(-2)))
          CFI (cfiCond65) DPH0 load(1, XDATA, add(CFA_XSP16, literal(-1)))
          CFI (cfiCond65) CFA_SP SP+-2
          CFI (cfiCond65) CFA_XSP16 add(XSP16, 12)
          CFI Block cfiPicker66 Using cfiCommon1
          CFI (cfiPicker66) NoFunction
          CFI (cfiPicker66) Picker
        MOV     R4,#pack & 0xff
        MOV     R5,#(pack >> 8) & 0xff
        MOV     DPTR,#ESP8266_Pack_Queue
          CFI EndBlock cfiCond61
          CFI EndBlock cfiCond62
          CFI EndBlock cfiCond63
          CFI EndBlock cfiCond64
          CFI EndBlock cfiCond65
          CFI EndBlock cfiPicker66
        REQUIRE ??Subroutine13_0
        ; // Fall through to label ??Subroutine13_0

        RSEG BANKED_CODE:CODE:NOROOT(0)
??Subroutine13_0:
          CFI Block cfiCond67 Using cfiCommon0
          CFI Function ESP8266_Run
          CFI Conditional ??CrossCallReturnLabel_26
          CFI DPL0 Frame(CFA_SP, 4)
          CFI DPH0 Frame(CFA_SP, 5)
          CFI CFA_SP SP+-7
          CFI Block cfiCond68 Using cfiCommon0
          CFI (cfiCond68) Function ESP8266_Run
          CFI (cfiCond68) Conditional ??CrossCallReturnLabel_27
          CFI (cfiCond68) DPL0 Frame(CFA_SP, 4)
          CFI (cfiCond68) DPH0 Frame(CFA_SP, 5)
          CFI (cfiCond68) CFA_SP SP+-7
          CFI Block cfiCond69 Using cfiCommon0
          CFI (cfiCond69) Function ESP8266_Run
          CFI (cfiCond69) Conditional ??CrossCallReturnLabel_28
          CFI (cfiCond69) DPL0 Frame(CFA_SP, 4)
          CFI (cfiCond69) DPH0 Frame(CFA_SP, 5)
          CFI (cfiCond69) CFA_SP SP+-7
          CFI Block cfiCond70 Using cfiCommon0
          CFI (cfiCond70) Function ESP8266_CMD_Send
          CFI (cfiCond70) Conditional ??CrossCallReturnLabel_29
          CFI (cfiCond70) R6 load(1, XDATA, add(CFA_XSP16, literal(-10)))
          CFI (cfiCond70) VB load(1, XDATA, add(CFA_XSP16, literal(-9)))
          CFI (cfiCond70) V0 load(1, XDATA, add(CFA_XSP16, literal(-8)))
          CFI (cfiCond70) V1 load(1, XDATA, add(CFA_XSP16, literal(-7)))
          CFI (cfiCond70) R7 load(1, XDATA, add(CFA_XSP16, literal(-6)))
          CFI (cfiCond70) ?RET_LOW load(1, XDATA, add(CFA_XSP16, literal(-5)))
          CFI (cfiCond70) ?RET_HIGH load(1, XDATA, add(CFA_XSP16, literal(-4)))
          CFI (cfiCond70) ?BRET_EXT load(1, XDATA, add(CFA_XSP16, literal(-3)))
          CFI (cfiCond70) DPL0 load(1, XDATA, add(CFA_XSP16, literal(-2)))
          CFI (cfiCond70) DPH0 load(1, XDATA, add(CFA_XSP16, literal(-1)))
          CFI (cfiCond70) CFA_SP SP+-2
          CFI (cfiCond70) CFA_XSP16 add(XSP16, 12)
          CFI Block cfiCond71 Using cfiCommon0
          CFI (cfiCond71) Function ESP8266_Data_Send
          CFI (cfiCond71) Conditional ??CrossCallReturnLabel_30
          CFI (cfiCond71) R6 load(1, XDATA, add(CFA_XSP16, literal(-12)))
          CFI (cfiCond71) VB load(1, XDATA, add(CFA_XSP16, literal(-11)))
          CFI (cfiCond71) V0 load(1, XDATA, add(CFA_XSP16, literal(-10)))
          CFI (cfiCond71) V1 load(1, XDATA, add(CFA_XSP16, literal(-9)))
          CFI (cfiCond71) V2 load(1, XDATA, add(CFA_XSP16, literal(-8)))
          CFI (cfiCond71) V3 load(1, XDATA, add(CFA_XSP16, literal(-7)))
          CFI (cfiCond71) R7 load(1, XDATA, add(CFA_XSP16, literal(-6)))
          CFI (cfiCond71) ?RET_LOW load(1, XDATA, add(CFA_XSP16, literal(-5)))
          CFI (cfiCond71) ?RET_HIGH load(1, XDATA, add(CFA_XSP16, literal(-4)))
          CFI (cfiCond71) ?BRET_EXT load(1, XDATA, add(CFA_XSP16, literal(-3)))
          CFI (cfiCond71) DPL0 load(1, XDATA, add(CFA_XSP16, literal(-2)))
          CFI (cfiCond71) DPH0 load(1, XDATA, add(CFA_XSP16, literal(-1)))
          CFI (cfiCond71) CFA_SP SP+-2
          CFI (cfiCond71) CFA_XSP16 add(XSP16, 12)
          CFI Block cfiCond72 Using cfiCommon0
          CFI (cfiCond72) Function ESP8266_Data_Send
          CFI (cfiCond72) Conditional ??CrossCallReturnLabel_31
          CFI (cfiCond72) R6 load(1, XDATA, add(CFA_XSP16, literal(-12)))
          CFI (cfiCond72) VB load(1, XDATA, add(CFA_XSP16, literal(-11)))
          CFI (cfiCond72) V0 load(1, XDATA, add(CFA_XSP16, literal(-10)))
          CFI (cfiCond72) V1 load(1, XDATA, add(CFA_XSP16, literal(-9)))
          CFI (cfiCond72) V2 load(1, XDATA, add(CFA_XSP16, literal(-8)))
          CFI (cfiCond72) V3 load(1, XDATA, add(CFA_XSP16, literal(-7)))
          CFI (cfiCond72) R7 load(1, XDATA, add(CFA_XSP16, literal(-6)))
          CFI (cfiCond72) ?RET_LOW load(1, XDATA, add(CFA_XSP16, literal(-5)))
          CFI (cfiCond72) ?RET_HIGH load(1, XDATA, add(CFA_XSP16, literal(-4)))
          CFI (cfiCond72) ?BRET_EXT load(1, XDATA, add(CFA_XSP16, literal(-3)))
          CFI (cfiCond72) DPL0 load(1, XDATA, add(CFA_XSP16, literal(-2)))
          CFI (cfiCond72) DPH0 load(1, XDATA, add(CFA_XSP16, literal(-1)))
          CFI (cfiCond72) CFA_SP SP+-2
          CFI (cfiCond72) CFA_XSP16 add(XSP16, 16)
          CFI Block cfiCond73 Using cfiCommon0
          CFI (cfiCond73) Function ESP8266_Data_Send
          CFI (cfiCond73) Conditional ??CrossCallReturnLabel_32
          CFI (cfiCond73) R6 load(1, XDATA, add(CFA_XSP16, literal(-12)))
          CFI (cfiCond73) VB load(1, XDATA, add(CFA_XSP16, literal(-11)))
          CFI (cfiCond73) V0 load(1, XDATA, add(CFA_XSP16, literal(-10)))
          CFI (cfiCond73) V1 load(1, XDATA, add(CFA_XSP16, literal(-9)))
          CFI (cfiCond73) V2 load(1, XDATA, add(CFA_XSP16, literal(-8)))
          CFI (cfiCond73) V3 load(1, XDATA, add(CFA_XSP16, literal(-7)))
          CFI (cfiCond73) R7 load(1, XDATA, add(CFA_XSP16, literal(-6)))
          CFI (cfiCond73) ?RET_LOW load(1, XDATA, add(CFA_XSP16, literal(-5)))
          CFI (cfiCond73) ?RET_HIGH load(1, XDATA, add(CFA_XSP16, literal(-4)))
          CFI (cfiCond73) ?BRET_EXT load(1, XDATA, add(CFA_XSP16, literal(-3)))
          CFI (cfiCond73) DPL0 load(1, XDATA, add(CFA_XSP16, literal(-2)))
          CFI (cfiCond73) DPH0 load(1, XDATA, add(CFA_XSP16, literal(-1)))
          CFI (cfiCond73) CFA_SP SP+-2
          CFI (cfiCond73) CFA_XSP16 add(XSP16, 14)
          CFI Block cfiCond74 Using cfiCommon0
          CFI (cfiCond74) Function SetSsidPwd
          CFI (cfiCond74) Conditional ??CrossCallReturnLabel_33
          CFI (cfiCond74) R6 load(1, XDATA, add(CFA_XSP16, literal(-14)))
          CFI (cfiCond74) VB load(1, XDATA, add(CFA_XSP16, literal(-13)))
          CFI (cfiCond74) V0 load(1, XDATA, add(CFA_XSP16, literal(-12)))
          CFI (cfiCond74) V1 load(1, XDATA, add(CFA_XSP16, literal(-11)))
          CFI (cfiCond74) V2 load(1, XDATA, add(CFA_XSP16, literal(-10)))
          CFI (cfiCond74) V3 load(1, XDATA, add(CFA_XSP16, literal(-9)))
          CFI (cfiCond74) V4 load(1, XDATA, add(CFA_XSP16, literal(-8)))
          CFI (cfiCond74) V5 load(1, XDATA, add(CFA_XSP16, literal(-7)))
          CFI (cfiCond74) R7 load(1, XDATA, add(CFA_XSP16, literal(-6)))
          CFI (cfiCond74) ?RET_LOW load(1, XDATA, add(CFA_XSP16, literal(-5)))
          CFI (cfiCond74) ?RET_HIGH load(1, XDATA, add(CFA_XSP16, literal(-4)))
          CFI (cfiCond74) ?BRET_EXT load(1, XDATA, add(CFA_XSP16, literal(-3)))
          CFI (cfiCond74) DPL0 load(1, XDATA, add(CFA_XSP16, literal(-2)))
          CFI (cfiCond74) DPH0 load(1, XDATA, add(CFA_XSP16, literal(-1)))
          CFI (cfiCond74) CFA_SP SP+-2
          CFI (cfiCond74) CFA_XSP16 add(XSP16, 94)
          CFI Block cfiCond75 Using cfiCommon0
          CFI (cfiCond75) Function SetSsidPwd
          CFI (cfiCond75) Conditional ??CrossCallReturnLabel_34
          CFI (cfiCond75) R6 load(1, XDATA, add(CFA_XSP16, literal(-14)))
          CFI (cfiCond75) VB load(1, XDATA, add(CFA_XSP16, literal(-13)))
          CFI (cfiCond75) V0 load(1, XDATA, add(CFA_XSP16, literal(-12)))
          CFI (cfiCond75) V1 load(1, XDATA, add(CFA_XSP16, literal(-11)))
          CFI (cfiCond75) V2 load(1, XDATA, add(CFA_XSP16, literal(-10)))
          CFI (cfiCond75) V3 load(1, XDATA, add(CFA_XSP16, literal(-9)))
          CFI (cfiCond75) V4 load(1, XDATA, add(CFA_XSP16, literal(-8)))
          CFI (cfiCond75) V5 load(1, XDATA, add(CFA_XSP16, literal(-7)))
          CFI (cfiCond75) R7 load(1, XDATA, add(CFA_XSP16, literal(-6)))
          CFI (cfiCond75) ?RET_LOW load(1, XDATA, add(CFA_XSP16, literal(-5)))
          CFI (cfiCond75) ?RET_HIGH load(1, XDATA, add(CFA_XSP16, literal(-4)))
          CFI (cfiCond75) ?BRET_EXT load(1, XDATA, add(CFA_XSP16, literal(-3)))
          CFI (cfiCond75) DPL0 load(1, XDATA, add(CFA_XSP16, literal(-2)))
          CFI (cfiCond75) DPH0 load(1, XDATA, add(CFA_XSP16, literal(-1)))
          CFI (cfiCond75) CFA_SP SP+-2
          CFI (cfiCond75) CFA_XSP16 add(XSP16, 94)
          CFI Block cfiCond76 Using cfiCommon0
          CFI (cfiCond76) Function ESP8266_Run
          CFI (cfiCond76) Conditional ??CrossCallReturnLabel_35
          CFI (cfiCond76) DPL0 Frame(CFA_SP, 4)
          CFI (cfiCond76) DPH0 Frame(CFA_SP, 5)
          CFI (cfiCond76) CFA_SP SP+-7
          CFI Block cfiCond77 Using cfiCommon0
          CFI (cfiCond77) Function ESP8266_Run
          CFI (cfiCond77) Conditional ??CrossCallReturnLabel_36
          CFI (cfiCond77) DPL0 Frame(CFA_SP, 4)
          CFI (cfiCond77) DPH0 Frame(CFA_SP, 5)
          CFI (cfiCond77) CFA_SP SP+-7
          CFI Block cfiCond78 Using cfiCommon0
          CFI (cfiCond78) Function ESP8266_CMD_Send
          CFI (cfiCond78) Conditional ??CrossCallReturnLabel_37
          CFI (cfiCond78) R6 load(1, XDATA, add(CFA_XSP16, literal(-10)))
          CFI (cfiCond78) VB load(1, XDATA, add(CFA_XSP16, literal(-9)))
          CFI (cfiCond78) V0 load(1, XDATA, add(CFA_XSP16, literal(-8)))
          CFI (cfiCond78) V1 load(1, XDATA, add(CFA_XSP16, literal(-7)))
          CFI (cfiCond78) R7 load(1, XDATA, add(CFA_XSP16, literal(-6)))
          CFI (cfiCond78) ?RET_LOW load(1, XDATA, add(CFA_XSP16, literal(-5)))
          CFI (cfiCond78) ?RET_HIGH load(1, XDATA, add(CFA_XSP16, literal(-4)))
          CFI (cfiCond78) ?BRET_EXT load(1, XDATA, add(CFA_XSP16, literal(-3)))
          CFI (cfiCond78) DPL0 load(1, XDATA, add(CFA_XSP16, literal(-2)))
          CFI (cfiCond78) DPH0 load(1, XDATA, add(CFA_XSP16, literal(-1)))
          CFI (cfiCond78) CFA_SP SP+-2
          CFI (cfiCond78) CFA_XSP16 add(XSP16, 10)
          CFI Block cfiCond79 Using cfiCommon0
          CFI (cfiCond79) Function ESP8266_Data_Send
          CFI (cfiCond79) Conditional ??CrossCallReturnLabel_38
          CFI (cfiCond79) R6 load(1, XDATA, add(CFA_XSP16, literal(-12)))
          CFI (cfiCond79) VB load(1, XDATA, add(CFA_XSP16, literal(-11)))
          CFI (cfiCond79) V0 load(1, XDATA, add(CFA_XSP16, literal(-10)))
          CFI (cfiCond79) V1 load(1, XDATA, add(CFA_XSP16, literal(-9)))
          CFI (cfiCond79) V2 load(1, XDATA, add(CFA_XSP16, literal(-8)))
          CFI (cfiCond79) V3 load(1, XDATA, add(CFA_XSP16, literal(-7)))
          CFI (cfiCond79) R7 load(1, XDATA, add(CFA_XSP16, literal(-6)))
          CFI (cfiCond79) ?RET_LOW load(1, XDATA, add(CFA_XSP16, literal(-5)))
          CFI (cfiCond79) ?RET_HIGH load(1, XDATA, add(CFA_XSP16, literal(-4)))
          CFI (cfiCond79) ?BRET_EXT load(1, XDATA, add(CFA_XSP16, literal(-3)))
          CFI (cfiCond79) DPL0 load(1, XDATA, add(CFA_XSP16, literal(-2)))
          CFI (cfiCond79) DPH0 load(1, XDATA, add(CFA_XSP16, literal(-1)))
          CFI (cfiCond79) CFA_SP SP+-2
          CFI (cfiCond79) CFA_XSP16 add(XSP16, 12)
          CFI Block cfiCond80 Using cfiCommon0
          CFI (cfiCond80) Function ESP8266_Data_Send
          CFI (cfiCond80) Conditional ??CrossCallReturnLabel_39
          CFI (cfiCond80) R6 load(1, XDATA, add(CFA_XSP16, literal(-12)))
          CFI (cfiCond80) VB load(1, XDATA, add(CFA_XSP16, literal(-11)))
          CFI (cfiCond80) V0 load(1, XDATA, add(CFA_XSP16, literal(-10)))
          CFI (cfiCond80) V1 load(1, XDATA, add(CFA_XSP16, literal(-9)))
          CFI (cfiCond80) V2 load(1, XDATA, add(CFA_XSP16, literal(-8)))
          CFI (cfiCond80) V3 load(1, XDATA, add(CFA_XSP16, literal(-7)))
          CFI (cfiCond80) R7 load(1, XDATA, add(CFA_XSP16, literal(-6)))
          CFI (cfiCond80) ?RET_LOW load(1, XDATA, add(CFA_XSP16, literal(-5)))
          CFI (cfiCond80) ?RET_HIGH load(1, XDATA, add(CFA_XSP16, literal(-4)))
          CFI (cfiCond80) ?BRET_EXT load(1, XDATA, add(CFA_XSP16, literal(-3)))
          CFI (cfiCond80) DPL0 load(1, XDATA, add(CFA_XSP16, literal(-2)))
          CFI (cfiCond80) DPH0 load(1, XDATA, add(CFA_XSP16, literal(-1)))
          CFI (cfiCond80) CFA_SP SP+-2
          CFI (cfiCond80) CFA_XSP16 add(XSP16, 12)
          CFI Block cfiPicker81 Using cfiCommon1
          CFI (cfiPicker81) NoFunction
          CFI (cfiPicker81) Picker
        MOVX    A,@DPTR
        MOV     R2,A
        INC     DPTR
        MOVX    A,@DPTR
        MOV     R3,A
        RET
          CFI EndBlock cfiCond67
          CFI EndBlock cfiCond68
          CFI EndBlock cfiCond69
          CFI EndBlock cfiCond70
          CFI EndBlock cfiCond71
          CFI EndBlock cfiCond72
          CFI EndBlock cfiCond73
          CFI EndBlock cfiCond74
          CFI EndBlock cfiCond75
          CFI EndBlock cfiCond76
          CFI EndBlock cfiCond77
          CFI EndBlock cfiCond78
          CFI EndBlock cfiCond79
          CFI EndBlock cfiCond80
          CFI EndBlock cfiPicker81
//  117 

        RSEG BANKED_CODE:CODE:NOROOT(0)
//  118 void ESP8266_Protocol_Send(Protocol_Info_T* pi){
ESP8266_Protocol_Send:
          CFI Block cfiBlock82 Using cfiCommon0
          CFI Function ESP8266_Protocol_Send
        CODE
        FUNCALL ESP8266_Protocol_Send, Protocol_Send_Transpond
        LOCFRAME ISTACK, 2, STACK
        LOCFRAME PSTACK, 0, STACK
        LOCFRAME XSTACK, 0, STACK
        LOCFRAME IOVERLAY, 0, STATIC
        LOCFRAME DOVERLAY, 0, STATIC
        ARGFRAME ISTACK, 2, STACK
        ARGFRAME PSTACK, 0, STACK
        ARGFRAME XSTACK, 0, STACK
        ARGFRAME IOVERLAY, 0, STATIC
        ARGFRAME DOVERLAY, 0, STATIC
        PUSH    DPL
          CFI DPL0 Frame(CFA_SP, 4)
          CFI CFA_SP SP+-4
        PUSH    DPH
          CFI DPH0 Frame(CFA_SP, 5)
          CFI CFA_SP SP+-5
        ; Saved register size: 2
        ; Auto size: 0
//  119     pi->ProtocolDesc->Send = ESP8266_Data_Send;
        MOV     A,R2
        ADD     A,#0xc
        MOV     DPL,A
        CLR     A
        ADDC    A,R3
        MOV     DPH,A
        LCALL   ??Subroutine11_0 & 0xFFFF
??CrossCallReturnLabel_13:
        ADD     A,#0x6
        MOV     DPL,A
        CLR     A
        ADDC    A,R0
        MOV     DPH,A
        MOV     A,#`??ESP8266_Data_Send::?relay` & 0xff
        MOVX    @DPTR,A
        INC     DPTR
        MOV     A,#(`??ESP8266_Data_Send::?relay` >> 8) & 0xff
        MOVX    @DPTR,A
//  120     Protocol_Send_Transpond(pi);
        ; Setup parameters for call to function Protocol_Send_Transpond
        LCALL   `??Protocol_Send_Transpond::?relay`; Banked call to: Protocol_Send_Transpond
//  121     
//  122 }
        LJMP    ?Subroutine0 & 0xFFFF
          CFI EndBlock cfiBlock82
//  123 

        RSEG BANKED_CODE:CODE:NOROOT(0)
//  124 void SetSsidPwd(char* SSID, char* PWD){
SetSsidPwd:
          CFI Block cfiBlock83 Using cfiCommon0
          CFI Function SetSsidPwd
        CODE
        FUNCALL SetSsidPwd, strlen
        LOCFRAME ISTACK, 0, STACK
        LOCFRAME PSTACK, 0, STACK
        LOCFRAME XSTACK, 94, STACK
        LOCFRAME IOVERLAY, 0, STATIC
        LOCFRAME DOVERLAY, 0, STATIC
        ARGFRAME ISTACK, 0, STACK
        ARGFRAME PSTACK, 0, STACK
        ARGFRAME XSTACK, 94, STACK
        ARGFRAME IOVERLAY, 0, STATIC
        ARGFRAME DOVERLAY, 0, STATIC
        FUNCALL SetSsidPwd, memcpy
        LOCFRAME ISTACK, 0, STACK
        LOCFRAME PSTACK, 0, STACK
        LOCFRAME XSTACK, 96, STACK
        LOCFRAME IOVERLAY, 0, STATIC
        LOCFRAME DOVERLAY, 0, STATIC
        ARGFRAME ISTACK, 0, STACK
        ARGFRAME PSTACK, 0, STACK
        ARGFRAME XSTACK, 96, STACK
        ARGFRAME IOVERLAY, 0, STATIC
        ARGFRAME DOVERLAY, 0, STATIC
        FUNCALL SetSsidPwd, strlen
        LOCFRAME ISTACK, 0, STACK
        LOCFRAME PSTACK, 0, STACK
        LOCFRAME XSTACK, 94, STACK
        LOCFRAME IOVERLAY, 0, STATIC
        LOCFRAME DOVERLAY, 0, STATIC
        ARGFRAME ISTACK, 0, STACK
        ARGFRAME PSTACK, 0, STACK
        ARGFRAME XSTACK, 94, STACK
        ARGFRAME IOVERLAY, 0, STATIC
        ARGFRAME DOVERLAY, 0, STATIC
        FUNCALL SetSsidPwd, memcpy
        LOCFRAME ISTACK, 0, STACK
        LOCFRAME PSTACK, 0, STACK
        LOCFRAME XSTACK, 96, STACK
        LOCFRAME IOVERLAY, 0, STATIC
        LOCFRAME DOVERLAY, 0, STATIC
        ARGFRAME ISTACK, 0, STACK
        ARGFRAME PSTACK, 0, STACK
        ARGFRAME XSTACK, 96, STACK
        ARGFRAME IOVERLAY, 0, STATIC
        ARGFRAME DOVERLAY, 0, STATIC
        FUNCALL SetSsidPwd, sprintf
        LOCFRAME ISTACK, 0, STACK
        LOCFRAME PSTACK, 0, STACK
        LOCFRAME XSTACK, 98, STACK
        LOCFRAME IOVERLAY, 0, STATIC
        LOCFRAME DOVERLAY, 0, STATIC
        ARGFRAME ISTACK, 0, STACK
        ARGFRAME PSTACK, 0, STACK
        ARGFRAME XSTACK, 98, STACK
        ARGFRAME IOVERLAY, 0, STATIC
        ARGFRAME DOVERLAY, 0, STATIC
        FUNCALL SetSsidPwd, ESP8266_CMD_Send
        LOCFRAME ISTACK, 0, STACK
        LOCFRAME PSTACK, 0, STACK
        LOCFRAME XSTACK, 94, STACK
        LOCFRAME IOVERLAY, 0, STATIC
        LOCFRAME DOVERLAY, 0, STATIC
        ARGFRAME ISTACK, 0, STACK
        ARGFRAME PSTACK, 0, STACK
        ARGFRAME XSTACK, 94, STACK
        ARGFRAME IOVERLAY, 0, STATIC
        ARGFRAME DOVERLAY, 0, STATIC
        FUNCALL SetSsidPwd, ESP8266_CMD_Send
        LOCFRAME ISTACK, 0, STACK
        LOCFRAME PSTACK, 0, STACK
        LOCFRAME XSTACK, 94, STACK
        LOCFRAME IOVERLAY, 0, STATIC
        LOCFRAME DOVERLAY, 0, STATIC
        ARGFRAME ISTACK, 0, STACK
        ARGFRAME PSTACK, 0, STACK
        ARGFRAME XSTACK, 94, STACK
        ARGFRAME IOVERLAY, 0, STATIC
        ARGFRAME DOVERLAY, 0, STATIC
        FUNCALL SetSsidPwd, ESP8266_CMD_Send
        LOCFRAME ISTACK, 0, STACK
        LOCFRAME PSTACK, 0, STACK
        LOCFRAME XSTACK, 94, STACK
        LOCFRAME IOVERLAY, 0, STATIC
        LOCFRAME DOVERLAY, 0, STATIC
        ARGFRAME ISTACK, 0, STACK
        ARGFRAME PSTACK, 0, STACK
        ARGFRAME XSTACK, 94, STACK
        ARGFRAME IOVERLAY, 0, STATIC
        ARGFRAME DOVERLAY, 0, STATIC
        REQUIRE ?V0
        REQUIRE ?V1
        REQUIRE ?V2
        REQUIRE ?V3
        REQUIRE ?V4
        REQUIRE ?V5
        MOV     A,#-0xe
        LCALL   ?BANKED_ENTER_XDATA
          CFI DPH0 load(1, XDATA, add(CFA_XSP16, literal(-1)))
          CFI DPL0 load(1, XDATA, add(CFA_XSP16, literal(-2)))
          CFI ?BRET_EXT load(1, XDATA, add(CFA_XSP16, literal(-3)))
          CFI ?RET_HIGH load(1, XDATA, add(CFA_XSP16, literal(-4)))
          CFI ?RET_LOW load(1, XDATA, add(CFA_XSP16, literal(-5)))
          CFI R7 load(1, XDATA, add(CFA_XSP16, literal(-6)))
          CFI V5 load(1, XDATA, add(CFA_XSP16, literal(-7)))
          CFI V4 load(1, XDATA, add(CFA_XSP16, literal(-8)))
          CFI V3 load(1, XDATA, add(CFA_XSP16, literal(-9)))
          CFI V2 load(1, XDATA, add(CFA_XSP16, literal(-10)))
          CFI V1 load(1, XDATA, add(CFA_XSP16, literal(-11)))
          CFI V0 load(1, XDATA, add(CFA_XSP16, literal(-12)))
          CFI VB load(1, XDATA, add(CFA_XSP16, literal(-13)))
          CFI R6 load(1, XDATA, add(CFA_XSP16, literal(-14)))
          CFI CFA_SP SP+0
          CFI CFA_XSP16 add(XSP16, 14)
        ; Saved register size: 14
        ; Auto size: 80
        MOV     A,#-0x50
        LCALL   ?ALLOC_XSTACK8
          CFI CFA_XSP16 add(XSP16, 94)
        MOV     ?V0,R2
        MOV     ?V1,R3
        MOV     A,R4
        MOV     R6,A
        MOV     A,R5
        MOV     R7,A
//  125   char Ssid[20] = {0};
        MOV     DPTR,#`?<Constant {0, 0, 0, 0, 0, 0, 0, 0, 0, 0, 0, 0`
        MOV     A,#0x14
        LCALL   ?XSTACK_DISP102_8
        MOV     A,#0x14
        LCALL   ?MOVE_LONG8_XDATA_XDATA
//  126   char  Pwd[20] = {0};
        MOV     DPTR,#`?<Constant {0, 0, 0, 0, 0, 0, 0, 0, 0, 0, 0, 0_1`
        MOV     R4,?XSP + 0
        MOV     R5,?XSP + 1
        MOV     A,#0x14
        LCALL   ?MOVE_LONG8_XDATA_XDATA
//  127   memcpy(Ssid, SSID, strlen(SSID));
        ; Setup parameters for call to function strlen
        LCALL   `??strlen::?relay`   ; Banked call to: strlen
        MOV     ?V2,R2
        MOV     ?V3,R3
        ; Setup parameters for call to function memcpy
        MOV     R0,#?V2
        LCALL   ?PUSH_XSTACK_I_TWO
          CFI CFA_XSP16 add(XSP16, 96)
        MOV     R4,?V0
        MOV     R5,?V1
        MOV     A,#0x16
        LCALL   ?XSTACK_DISP101_8
        LCALL   `??memcpy::?relay`   ; Banked call to: memcpy
        MOV     A,#0x2
        LCALL   ?DEALLOC_XSTACK8
          CFI CFA_XSP16 add(XSP16, 94)
//  128   memcpy(Pwd, PWD, strlen(PWD));
        ; Setup parameters for call to function strlen
        MOV     A,R6
        MOV     R2,A
        MOV     A,R7
        MOV     R3,A
        LCALL   `??strlen::?relay`   ; Banked call to: strlen
        MOV     ?V0,R2
        MOV     ?V1,R3
        ; Setup parameters for call to function memcpy
        MOV     R0,#?V0
        LCALL   ?PUSH_XSTACK_I_TWO
          CFI CFA_XSP16 add(XSP16, 96)
        MOV     A,R6
        MOV     R4,A
        MOV     A,R7
        MOV     R5,A
        MOV     A,#0x2
        LCALL   ?XSTACK_DISP101_8
        LCALL   `??memcpy::?relay`   ; Banked call to: memcpy
        MOV     A,#0x2
        LCALL   ?DEALLOC_XSTACK8
          CFI CFA_XSP16 add(XSP16, 94)
//  129   uint8_t cmd[40] = {0}; 
        MOV     DPTR,#`?<Constant {0, 0, 0, 0, 0, 0, 0, 0, 0, 0, 0, 0_2`
        MOV     A,#0x28
        LCALL   ?XSTACK_DISP102_8
        MOV     A,#0x28
        LCALL   ?MOVE_LONG8_XDATA_XDATA
//  130   sprintf((char*)cmd, (char const*)ESP_8266_CMD.SsidPwd, Ssid, Pwd);
        ; Setup parameters for call to function sprintf
        MOV     R0,?XSP + 0
        MOV     R1,?XSP + 1
        MOV     ?V0,R0
        MOV     ?V1,R1
        MOV     R0,#?V0
        LCALL   ?PUSH_XSTACK_I_TWO
          CFI CFA_XSP16 add(XSP16, 96)
        MOV     A,#0x16
        LCALL   ?XSTACK_DISP100_8
        MOV     ?V0,R0
        MOV     ?V1,R1
        MOV     R0,#?V0
        LCALL   ?PUSH_XSTACK_I_TWO
          CFI CFA_XSP16 add(XSP16, 98)
        MOV     DPTR,#ESP_8266_CMD + 2
        MOVX    A,@DPTR
        MOV     R4,A
        INC     DPTR
        MOVX    A,@DPTR
        MOV     R5,A
        MOV     A,#0x2c
        LCALL   ?XSTACK_DISP101_8
        LCALL   `??sprintf::?relay`  ; Banked call to: sprintf
        MOV     A,#0x4
        LCALL   ?DEALLOC_XSTACK8
          CFI CFA_XSP16 add(XSP16, 94)
//  131   ESP8266_CMD_Send(cmd);
        ; Setup parameters for call to function ESP8266_CMD_Send
        MOV     A,#0x28
        LCALL   ?XSTACK_DISP101_8
        LCALL   `??ESP8266_CMD_Send::?relay`; Banked call to: ESP8266_CMD_Send
//  132   ESP8266_CMD_Send(ESP_8266_CMD.MultiConn);
        ; Setup parameters for call to function ESP8266_CMD_Send
        MOV     DPTR,#ESP_8266_CMD + 4
        LCALL   ??Subroutine13_0 & 0xFFFF
??CrossCallReturnLabel_33:
        LCALL   `??ESP8266_CMD_Send::?relay`; Banked call to: ESP8266_CMD_Send
//  133   ESP8266_CMD_Send(ESP_8266_CMD.ServerMode);
        ; Setup parameters for call to function ESP8266_CMD_Send
        MOV     DPTR,#ESP_8266_CMD + 6
        LCALL   ??Subroutine13_0 & 0xFFFF
??CrossCallReturnLabel_34:
        LCALL   `??ESP8266_CMD_Send::?relay`; Banked call to: ESP8266_CMD_Send
//  134 }  
        MOV     A,#0x50
        LCALL   ?DEALLOC_XSTACK8
          CFI CFA_XSP16 add(XSP16, 14)
        MOV     R7,#0x6
        LJMP    ?BANKED_LEAVE_XDATA
          CFI EndBlock cfiBlock83

        RSEG XDATA_ID:CODE:NOROOT(0)
`?<Initializer for ESP_8266_CMD>`:
        DATA16
        DW `?<Constant "AT+CWMODE=%d\\r\\n">`
        DW `?<Constant "AT+CWJAP=\\"%s\\",\\"%s\\"\\r\\n">`
        DW `?<Constant "AT+CIPMUX=1\\r\\n">`
        DW `?<Constant "AT+CIPSERVER=1,8080\\r\\n">`
        DW `?<Constant "AT+CIPSEND=%d,%d\\r\\n">`

        RSEG BANK_RELAYS:CODE:REORDER:NOROOT(0)
`??ESP8266_Init::?relay`:
        CODE
        LCALL   ?BDISPATCH
        DATA24
        DC24    ESP8266_Init

        RSEG BANK_RELAYS:CODE:REORDER:NOROOT(0)
`??ESP8266_Poll::?relay`:
        CODE
        LCALL   ?BDISPATCH
        DATA24
        DC24    ESP8266_Poll

        RSEG BANK_RELAYS:CODE:REORDER:NOROOT(0)
`??ESP8266_Run::?relay`:
        CODE
        LCALL   ?BDISPATCH
        DATA24
        DC24    ESP8266_Run

        RSEG BANK_RELAYS:CODE:REORDER:NOROOT(0)
`??ESP8266_CMD_Send::?relay`:
        CODE
        LCALL   ?BDISPATCH
        DATA24
        DC24    ESP8266_CMD_Send

        RSEG BANK_RELAYS:CODE:REORDER:NOROOT(0)
`??ESP8266_Data_Send::?relay`:
        CODE
        LCALL   ?BDISPATCH
        DATA24
        DC24    ESP8266_Data_Send

        RSEG BANK_RELAYS:CODE:REORDER:NOROOT(0)
`??ESP8266_Protocol_Send::?relay`:
        CODE
        LCALL   ?BDISPATCH
        DATA24
        DC24    ESP8266_Protocol_Send

        RSEG BANK_RELAYS:CODE:REORDER:NOROOT(0)
`??SetSsidPwd::?relay`:
        CODE
        LCALL   ?BDISPATCH
        DATA24
        DC24    SetSsidPwd

        RSEG XDATA_ROM_C:CONST:REORDER:NOROOT(0)
        DATA8
`?<Constant "AT+CWMODE=%d\\r\\n">`:
        DB "AT+CWMODE=%d\015\012"

        RSEG XDATA_ROM_C:CONST:REORDER:NOROOT(0)
        DATA8
`?<Constant "AT+CWJAP=\\"%s\\",\\"%s\\"\\r\\n">`:
        DB "AT+CWJAP=\"%s\",\"%s\"\015\012"

        RSEG XDATA_ROM_C:CONST:REORDER:NOROOT(0)
        DATA8
`?<Constant "AT+CIPMUX=1\\r\\n">`:
        DB "AT+CIPMUX=1\015\012"

        RSEG XDATA_ROM_C:CONST:REORDER:NOROOT(0)
        DATA8
`?<Constant "AT+CIPSERVER=1,8080\\r\\n">`:
        DB "AT+CIPSERVER=1,8080\015\012"

        RSEG XDATA_ROM_C:CONST:REORDER:NOROOT(0)
        DATA8
`?<Constant "AT+CIPSEND=%d,%d\\r\\n">`:
        DB "AT+CIPSEND=%d,%d\015\012"

        RSEG XDATA_ROM_C:CONST:REORDER:NOROOT(0)
        DATA8
`?<Constant "ready">`:
        DB "ready"

        RSEG XDATA_ROM_C:CONST:REORDER:NOROOT(0)
        DATA8
`?<Constant "OK">`:
        DB "OK"

        RSEG XDATA_ROM_C:CONST:REORDER:NOROOT(0)
        DATA8
`?<Constant "\\302\\267\\323\\311\\306\\367\\306\\364\\2`:
        DB "\302\267\323\311\306\367\306\364\266\257\315\352\263\311\015\012"

        RSEG XDATA_ROM_C:CONST:REORDER:NOROOT(0)
        DATA8
`?<Constant "WIFI GOT IP">`:
        DB "WIFI GOT IP"

        RSEG XDATA_ROM_C:CONST:REORDER:NOROOT(0)
        DATA8
`?<Constant "\\302\\267\\323\\311\\306\\367\\301\\254\\2`:
        DB "\302\267\323\311\306\367\301\254\275\323\263\311\271\246\015\012"

        RSEG XDATA_ROM_C:CONST:REORDER:NOROOT(0)
        DATA8
`?<Constant "WIFI DISCONNECT">`:
        DB "WIFI DISCONNECT"

        RSEG XDATA_ROM_C:CONST:REORDER:NOROOT(0)
        DATA8
`?<Constant "\\302\\267\\323\\311\\306\\367\\301\\254\\2_1`:
        DB "\302\267\323\311\306\367\301\254\275\323\312\247\260\334\015\012"

        RSEG XDATA_ROM_C:CONST:REORDER:NOROOT(0)
        DATA8
`?<Constant "CONNECT">`:
        DB "CONNECT"

        RSEG XDATA_ROM_C:CONST:REORDER:NOROOT(0)
        DATA8
`?<Constant "\\326\\325\\266\\313\\301\\254\\275\\323\\r`:
        DB "\326\325\266\313\301\254\275\323\015\012"

        RSEG XDATA_ROM_C:CONST:REORDER:NOROOT(0)
        DATA8
`?<Constant "CLOSED">`:
        DB "CLOSED"

        RSEG XDATA_ROM_C:CONST:REORDER:NOROOT(0)
        DATA8
`?<Constant "\\326\\325\\266\\313\\315\\313\\263\\366\\r`:
        DB "\326\325\266\313\315\313\263\366\015\012"

        RSEG XDATA_ROM_C:CONST:REORDER:NOROOT(0)
        DATA8
`?<Constant "ERROR">`:
        DB "ERROR"

        RSEG XDATA_ROM_C:CONST:REORDER:NOROOT(0)
        DATA8
`?<Constant "WIFI\\304\\243\\277\\351ERROR\\r\\n">`:
        DB "WIFI\304\243\277\351ERROR\015\012"

        RSEG XDATA_ROM_C:CONST:REORDER:NOROOT(0)
        DATA8
`?<Constant "AT+CIPSERVER=0,8080\\r\\n">`:
        DB "AT+CIPSERVER=0,8080\015\012"

        RSEG XDATA_ROM_C:CONST:REORDER:NOROOT(0)
        DATA8
`?<Constant "\\267\\242\\313\\315\\270\\370WIFI:%X %X`:
        DB "\267\242\313\315\270\370WIFI:%X %X %X %X %X %X %X %X %X \015\012"

        RSEG XDATA_ROM_C:CONST:REORDER:NOROOT(0)
        DATA8
`?<Constant {0, 0, 0, 0, 0, 0, 0, 0, 0, 0, 0, 0`:
        DB 0
        DB 0
        DB 0
        DB 0
        DB 0
        DB 0
        DB 0
        DB 0
        DB 0
        DB 0
        DB 0
        DB 0
        DB 0
        DB 0
        DB 0
        DB 0
        DB 0
        DB 0
        DB 0
        DB 0

        RSEG XDATA_ROM_C:CONST:REORDER:NOROOT(0)
        DATA8
`?<Constant {0, 0, 0, 0, 0, 0, 0, 0, 0, 0, 0, 0_1`:
        DB 0
        DB 0
        DB 0
        DB 0
        DB 0
        DB 0
        DB 0
        DB 0
        DB 0
        DB 0
        DB 0
        DB 0
        DB 0
        DB 0
        DB 0
        DB 0
        DB 0
        DB 0
        DB 0
        DB 0

        RSEG XDATA_ROM_C:CONST:REORDER:NOROOT(0)
        DATA8
`?<Constant {0, 0, 0, 0, 0, 0, 0, 0, 0, 0, 0, 0_2`:
        DB 0
        DB 0
        DB 0
        DB 0
        DB 0
        DB 0
        DB 0
        DB 0
        DB 0
        DB 0
        DB 0
        DB 0
        DB 0
        DB 0
        DB 0
        DB 0
        DB 0
        DB 0
        DB 0
        DB 0
        DB 0
        DB 0
        DB 0
        DB 0
        DB 0
        DB 0
        DB 0
        DB 0
        DB 0
        DB 0
        DB 0
        DB 0
        DB 0
        DB 0
        DB 0
        DB 0
        DB 0
        DB 0
        DB 0
        DB 0

        END
//  135   
//  136   
//  137 
//  138 
//  139   
//  140   
// 
// 1 134 bytes in segment BANKED_CODE
//    42 bytes in segment BANK_RELAYS
//    10 bytes in segment XDATA_I
//    10 bytes in segment XDATA_ID
//   381 bytes in segment XDATA_ROM_C
//    16 bytes in segment XDATA_Z
// 
// 1 186 bytes of CODE  memory
//   381 bytes of CONST memory
//    26 bytes of XDATA memory
//
//Errors: none
//Warnings: none
